
CH32V307VCT6.elf:     file format elf32-littleriscv
CH32V307VCT6.elf
architecture: riscv:rv32, flags 0x00000112:
EXEC_P, HAS_SYMS, D_PAGED
start address 0x00000000

Program Header:
    LOAD off    0x00001000 vaddr 0x00000000 paddr 0x00000000 align 2**12
         filesz 0x000088d4 memsz 0x000088d4 flags r-x
    LOAD off    0x0000a000 vaddr 0x20000000 paddr 0x000088d4 align 2**12
         filesz 0x000000f0 memsz 0x00000130 flags rw-
    LOAD off    0x0000a800 vaddr 0x20007800 paddr 0x20007800 align 2**12
         filesz 0x00000000 memsz 0x00000800 flags rw-

Sections:
Idx Name          Size      VMA       LMA       File off  Algn
  0 .init         00000004  00000000  00000000  00001000  2**1
                  CONTENTS, ALLOC, LOAD, READONLY, CODE
  1 .vector       000001bc  00000004  00000004  00001004  2**1
                  CONTENTS, ALLOC, LOAD, READONLY, CODE
  2 .text         00008714  000001c0  000001c0  000011c0  2**3
                  CONTENTS, ALLOC, LOAD, READONLY, CODE
  3 .fini         00000000  000088d4  000088d4  0000a0f0  2**0
                  CONTENTS, ALLOC, LOAD, CODE
  4 .dalign       00000000  20000000  20000000  0000a0f0  2**0
                  CONTENTS
  5 .dlalign      00000000  000088d4  000088d4  0000a0f0  2**0
                  CONTENTS
  6 .data         000000f0  20000000  000088d4  0000a000  2**2
                  CONTENTS, ALLOC, LOAD, DATA
  7 .bss          00000040  200000f0  000089c4  0000a0f0  2**2
                  ALLOC
  8 .stack        00000800  20007800  20007800  0000a800  2**0
                  ALLOC
  9 .debug_info   00013819  00000000  00000000  0000a0f0  2**0
                  CONTENTS, READONLY, DEBUGGING
 10 .debug_abbrev 00002f90  00000000  00000000  0001d909  2**0
                  CONTENTS, READONLY, DEBUGGING
 11 .debug_aranges 00000ad0  00000000  00000000  000208a0  2**3
                  CONTENTS, READONLY, DEBUGGING
 12 .debug_ranges 00000ba8  00000000  00000000  00021370  2**3
                  CONTENTS, READONLY, DEBUGGING
 13 .debug_line   00011ce6  00000000  00000000  00021f18  2**0
                  CONTENTS, READONLY, DEBUGGING
 14 .debug_str    0000395e  00000000  00000000  00033bfe  2**0
                  CONTENTS, READONLY, DEBUGGING
 15 .comment      00000033  00000000  00000000  0003755c  2**0
                  CONTENTS, READONLY
 16 .debug_frame  00002d08  00000000  00000000  00037590  2**2
                  CONTENTS, READONLY, DEBUGGING
 17 .debug_loc    0000608c  00000000  00000000  0003a298  2**0
                  CONTENTS, READONLY, DEBUGGING
 18 .stab         00000084  00000000  00000000  00040324  2**2
                  CONTENTS, READONLY, DEBUGGING
 19 .stabstr      00000117  00000000  00000000  000403a8  2**0
                  CONTENTS, READONLY, DEBUGGING
SYMBOL TABLE:
00000000 l    d  .init	00000000 .init
00000004 l    d  .vector	00000000 .vector
000001c0 l    d  .text	00000000 .text
000088d4 l    d  .fini	00000000 .fini
20000000 l    d  .dalign	00000000 .dalign
000088d4 l    d  .dlalign	00000000 .dlalign
20000000 l    d  .data	00000000 .data
200000f0 l    d  .bss	00000000 .bss
20007800 l    d  .stack	00000000 .stack
00000000 l    d  .debug_info	00000000 .debug_info
00000000 l    d  .debug_abbrev	00000000 .debug_abbrev
00000000 l    d  .debug_aranges	00000000 .debug_aranges
00000000 l    d  .debug_ranges	00000000 .debug_ranges
00000000 l    d  .debug_line	00000000 .debug_line
00000000 l    d  .debug_str	00000000 .debug_str
00000000 l    d  .comment	00000000 .comment
00000000 l    d  .debug_frame	00000000 .debug_frame
00000000 l    d  .debug_loc	00000000 .debug_loc
00000000 l    d  .stab	00000000 .stab
00000000 l    d  .stabstr	00000000 .stabstr
00000000 l    df *ABS*	00000000 ./Startup/startup_ch32v30x_D8C.o
00000004 l       .vector	00000000 _vector_base
00000000 l    df *ABS*	00000000 ch32v30x_it.c
00000000 l    df *ABS*	00000000 main.c
00000000 l    df *ABS*	00000000 system_ch32v30x.c
00000000 l    df *ABS*	00000000 ch32v30x_gpio.c
00000000 l    df *ABS*	00000000 ch32v30x_misc.c
00000000 l    df *ABS*	00000000 ch32v30x_rcc.c
2000001c l     O .data	00000010 APBAHBPrescTable
200000cc l     O .data	00000004 ADCPrescTable
00000000 l    df *ABS*	00000000 ch32v30x_tim.c
00000000 l    df *ABS*	00000000 ch32v30x_usart.c
00000000 l    df *ABS*	00000000 Soft_I2C.c
00000000 l    df *ABS*	00000000 inv_mpu.c
00000cd6 l     F .text	00000070 set_int_enable
2000002c l     O .data	0000002c st
00000000 l    df *ABS*	00000000 inv_mpu_dmp_motion_driver.c
000017b4 l     F .text	00000030 dmp_enable_gyro_cal.part.0
000076cc l     O .text	00000bf6 dmp_memory
2000011c l     O .bss	00000010 dmp
00000000 l    df *ABS*	00000000 mpu6050.c
00000000 l    df *ABS*	00000000 mpu6050_DMP.c
000022a4 l     F .text	00000030 inv_row_2_scale
20000058 l     O .data	00000009 gyro_orientation
00000000 l    df *ABS*	00000000 timer.c
00000000 l    df *ABS*	00000000 debug.c
20000110 l     O .bss	00000002 p_ms
20000112 l     O .bss	00000001 p_us
200000dc l     O .data	00000004 curbrk.5273
00000000 l    df *ABS*	00000000 w_asin.c
00000000 l    df *ABS*	00000000 w_atan2.c
00000000 l    df *ABS*	00000000 e_asin.c
00000000 l    df *ABS*	00000000 e_atan2.c
00000000 l    df *ABS*	00000000 e_sqrt.c
00000000 l    df *ABS*	00000000 s_atan.c
000085b0 l     O .text	00000020 atanhi
000085d0 l     O .text	00000020 atanlo
00000000 l    df *ABS*	00000000 s_fabs.c
00000000 l    df *ABS*	00000000 s_matherr.c
00000000 l    df *ABS*	00000000 s_nan.c
00000000 l    df *ABS*	00000000 adddf3.c
00000000 l    df *ABS*	00000000 divdf3.c
00000000 l    df *ABS*	00000000 gedf2.c
00000000 l    df *ABS*	00000000 muldf3.c
00000000 l    df *ABS*	00000000 subdf3.c
00000000 l    df *ABS*	00000000 unorddf2.c
00000000 l    df *ABS*	00000000 addsf3.c
00000000 l    df *ABS*	00000000 divsf3.c
00000000 l    df *ABS*	00000000 mulsf3.c
00000000 l    df *ABS*	00000000 subsf3.c
00000000 l    df *ABS*	00000000 fixsfsi.c
00000000 l    df *ABS*	00000000 fixunssfsi.c
00000000 l    df *ABS*	00000000 floatsisf.c
00000000 l    df *ABS*	00000000 floatunsisf.c
00000000 l    df *ABS*	00000000 extendsfdf2.c
00000000 l    df *ABS*	00000000 truncdfsf2.c
00000000 l    df *ABS*	00000000 libgcc2.c
00000000 l    df *ABS*	00000000 errno.c
00000000 l    df *ABS*	00000000 memcmp.c
00000000 l    df *ABS*	00000000 memcpy.c
00000000 l    df *ABS*	00000000 printf.c
00000000 l    df *ABS*	00000000 puts.c
00000000 l    df *ABS*	00000000 sprintf.c
00000000 l    df *ABS*	00000000 wbuf.c
00000000 l    df *ABS*	00000000 wsetup.c
00000000 l    df *ABS*	00000000 fflush.c
00000000 l    df *ABS*	00000000 findfp.c
00006438 l     F .text	00000066 std
00000000 l    df *ABS*	00000000 fwalk.c
00000000 l    df *ABS*	00000000 makebuf.c
00000000 l    df *ABS*	00000000 nano-mallocr.c
00000000 l    df *ABS*	00000000 nano-mallocr.c
00000000 l    df *ABS*	00000000 nano-vfprintf.c
00000000 l    df *ABS*	00000000 nano-vfprintf.c
00006c1e l     F .text	00000028 __sfputc_r
00000000 l    df *ABS*	00000000 nano-vfprintf_i.c
00000000 l    df *ABS*	00000000 sbrkr.c
00000000 l    df *ABS*	00000000 stdio.c
00000000 l    df *ABS*	00000000 writer.c
00000000 l    df *ABS*	00000000 closer.c
00000000 l    df *ABS*	00000000 fstatr.c
00000000 l    df *ABS*	00000000 isattyr.c
00000000 l    df *ABS*	00000000 lseekr.c
00000000 l    df *ABS*	00000000 memchr.c
00000000 l    df *ABS*	00000000 memmove.c
00000000 l    df *ABS*	00000000 mlock.c
00000000 l    df *ABS*	00000000 nano-mallocr.c
00000000 l    df *ABS*	00000000 readr.c
00000000 l    df *ABS*	00000000 nano-mallocr.c
00000000 l    df *ABS*	00000000 close.c
00000000 l    df *ABS*	00000000 fstat.c
00000000 l    df *ABS*	00000000 isatty.c
00000000 l    df *ABS*	00000000 lseek.c
00000000 l    df *ABS*	00000000 read.c
00000000 l    df *ABS*	00000000 libgcc2.c
00000000 l    df *ABS*	00000000 impure.c
20000064 l     O .data	00000060 impure_data
00000000 l    df *ABS*	00000000 s_lib_ver.c
00000000 l    df *ABS*	00000000 reent.c
0000754c g     F .text	00000014 _malloc_usable_size_r
000005fa  w      .text	00000000 EXTI2_IRQHandler
000005fa  w      .text	00000000 TIM8_TRG_COM_IRQHandler
000005fa  w      .text	00000000 TIM8_CC_IRQHandler
00007412 g     F .text	00000028 _isatty_r
00005fc4 g     F .text	000000d4 _puts_r
000033c2 g     F .text	00000006 fabs
0000743a g     F .text	0000002c _lseek_r
000005fa  w      .text	00000000 UART8_IRQHandler
0000109c g     F .text	00000098 mpu_read_fifo_stream
00001b94 g     F .text	0000003e dmp_set_shake_reject_thresh
00005f84 g     F .text	00000040 printf
200008c8 g       .data	00000000 __global_pointer$
000001c8 g     F .text	00000028 .hidden __riscv_save_8
000005fa  w      .text	00000000 TIM1_CC_IRQHandler
0000735c g     F .text	00000030 __sseek
000064ee g     F .text	0000006c __sinit
000060ea g     F .text	000000bc __swbuf_r
00001736 g     F .text	0000007e mpu_set_dmp_state
000002ca g     F .text	00000010 HardFault_Handler
00001802 g     F .text	000000f2 dmp_set_orientation
00000e96 g     F .text	0000007c mpu_set_gyro_fsr
000064a8 g     F .text	00000046 __sfmoreglue
0000126e g     F .text	000000b0 mpu_lp_accel_mode
000074c6 g     F .text	00000002 __malloc_unlock
000018f4 g     F .text	00000052 dmp_set_fifo_rate
00000214 g     F .text	0000000c .hidden __riscv_restore_3
000005fa  w      .text	00000000 TIM6_IRQHandler
00005108 g     F .text	000002b2 .hidden __divsf3
00000f12 g     F .text	00000046 mpu_get_accel_fsr
000005fa  w      .text	00000000 SysTick_Handler
00007684 g     O .text	0000001e reg
0000075e g     F .text	0000005c NVIC_Init
00000cac g     F .text	0000002a SOFT_I2C_ReceiveAck
000005fa  w      .text	00000000 PVD_IRQHandler
000005fa  w      .text	00000000 SDIO_IRQHandler
0000120c g     F .text	00000062 mpu_set_int_latched
0000747e g     F .text	00000046 memmove
000005fa  w      .text	00000000 TIM9_BRK_IRQHandler
00000200 g     F .text	00000020 .hidden __riscv_restore_10
000005fa  w      .text	00000000 DMA2_Channel8_IRQHandler
000002c8 g     F .text	00000002 NMI_Handler
000059d6 g     F .text	00000062 .hidden __fixsfsi
000005fa  w      .text	00000000 CAN2_RX1_IRQHandler
000005fa  w      .text	00000000 EXTI3_IRQHandler
000001c8 g     F .text	00000028 .hidden __riscv_save_11
000040be g     F .text	000000ae .hidden __gtdf2
00005ea6 g     F .text	00000008 __errno
000005fa  w      .text	00000000 USBHS_IRQHandler
200000fc g     O .bss	00000004 Distance
000015ba g     F .text	0000006a mpu_write_mem
00000b10 g     F .text	0000000a USART_GetFlagStatus
000005fa  w      .text	00000000 DMA2_Channel9_IRQHandler
000073e8 g     F .text	0000002a _fstat_r
000005fa  w      .text	00000000 TIM10_CC_IRQHandler
2000012c g     O .bss	00000004 errno
200000f0 g       .bss	00000000 _sbss
00000800 g       *ABS*	00000000 __stack_size
00000fcc g     F .text	0000007e mpu_set_lpf
0000270a g     F .text	0000005a USART_Printf_Init
0000564e g     F .text	00000388 .hidden __subsf3
000005fa  w      .text	00000000 USBFS_IRQHandler
00000214 g     F .text	0000000c .hidden __riscv_restore_2
00002160 g     F .text	00000046 MPU6050_ReadReg
000013b6 g     F .text	000000bc mpu_set_sensors
00005ed2 g     F .text	000000b2 memcpy
0000649e g     F .text	0000000a _cleanup_r
000069b4 g     F .text	0000026a _svfprintf_r
00001c22 g     F .text	0000003c dmp_get_pedometer_step_count
000005fa  w      .text	00000000 EXTI0_IRQHandler
000005fa  w      .text	00000000 I2C2_EV_IRQHandler
000005fa  w      .text	00000000 TIM10_TRG_COM_IRQHandler
00000a16 g     F .text	00000018 TIM_Cmd
00006098 g     F .text	0000000c puts
200000c8 g     O .data	00000004 SystemCoreClock
0000756c g     F .text	0000000c _fstat
00000004 g       .init	00000000 _einit
00000a58 g     F .text	0000000c TIM_ClearITPendingBit
00000930 g     F .text	0000001e RCC_APB2PeriphClockCmd
000001c0 g     F .text	00000030 .hidden __riscv_save_12
000005fa  w      .text	00000000 CAN2_SCE_IRQHandler
000005fa  w      .text	00000000 ADC1_2_IRQHandler
00000686 g     F .text	000000c0 GPIO_Init
00001b16 g     F .text	0000002e dmp_set_tap_count
000005fa  w      .text	00000000 Break_Point_Handler
00000200 g     F .text	00000020 .hidden __riscv_restore_11
200000f8 g     O .bss	00000004 NVIC_Priority_Group
000005fa  w      .text	00000000 SPI1_IRQHandler
00000af2 g     F .text	00000016 USART_Cmd
000072be g     F .text	0000002a _sbrk_r
000005fa  w      .text	00000000 TAMPER_IRQHandler
000001f0 g     F .text	0000000c .hidden __riscv_save_1
00002070 g     F .text	0000006a MPU6050_WriteReg_HAL
00000214 g     F .text	0000000c .hidden __riscv_restore_0
00007520 g     F .text	0000002c _read_r
000001d6 g     F .text	0000001a .hidden __riscv_save_7
000005fa  w      .text	00000000 CAN2_RX0_IRQHandler
00005c22 g     F .text	000000ac .hidden __extendsfdf2
000005fa  w      .text	00000000 TIM8_UP_IRQHandler
0000094e g     F .text	0000001e RCC_APB1PeriphClockCmd
000033da g     F .text	00000730 .hidden __adddf3
000005fa  w      .text	00000000 Ecall_M_Mode_Handler
20007800 g       .stack	00000000 _heap_end
00007578 g     F .text	0000000c _isatty
200000e0 g     O .data	00000004 __fdlib_version
200000e8 g     O .data	00000004 _global_impure_ptr
0000020a g     F .text	00000016 .hidden __riscv_restore_5
000074c8 g     F .text	00000058 _realloc_r
000021a6 g     F .text	0000000e MPU6050_GetID
000005fa  w      .text	00000000 DMA2_Channel2_IRQHandler
000005fa  w      .text	00000000 DMA1_Channel4_IRQHandler
00000b1a g     F .text	0000001a SOFT_I2C_R_SDA
000027a2 g     F .text	00000026 _sbrk
0000168e g     F .text	000000a8 mpu_load_firmware
000005fa  w      .text	00000000 TIM9_UP_IRQHandler
0000020a g     F .text	00000016 .hidden __riscv_restore_6
000005fa  w      .text	00000000 USART3_IRQHandler
00001134 g     F .text	000000d8 mpu_set_bypass
000005fa  w      .text	00000000 RTC_IRQHandler
20000130 g       .bss	00000000 _ebss
00000b52 g     F .text	0000002c SOFT_I2C_W_SCL
000005fa  w      .text	00000000 DMA1_Channel7_IRQHandler
00001cf4 g     F .text	000001c2 dmp_enable_feature
000005fa  w      .text	00000000 CAN1_RX1_IRQHandler
000026aa g     F .text	0000002a Delay_Init
000005fa  w      .text	00000000 DVP_IRQHandler
000005fa  w      .text	00000000 UART5_IRQHandler
20000108 g     O .bss	00000004 walk
00002cee g     F .text	000001dc __ieee754_atan2
00000c3e g     F .text	0000004a SOFT_I2C_ReceiveByte
00000750 g     F .text	00000004 GPIO_SetBits
000005fa  w      .text	00000000 TIM4_IRQHandler
000001c8 g     F .text	00000028 .hidden __riscv_save_9
000005fa  w      .text	00000000 DMA2_Channel1_IRQHandler
00000bac g     F .text	00000032 SOFT_I2C_Start
00008838 g     O .text	00000020 __sf_fake_stderr
000001d6 g     F .text	0000001a .hidden __riscv_save_4
000005fa  w      .text	00000000 I2C1_EV_IRQHandler
000002da g     F .text	0000003a GPIO_Toggle_INIT
200000d0 g     O .data	00000004 SCL_bit
000068d0 g     F .text	000000e4 __ssputs_r
00000a40 g     F .text	00000018 TIM_GetITStatus
000007ba g     F .text	00000176 RCC_GetClocksFreq
00002888 g     F .text	00000466 __ieee754_asin
000005fa  w      .text	00000000 DMA1_Channel6_IRQHandler
00005e38 g     F .text	0000006e .hidden __clzsi2
00006c46 g     F .text	00000042 __sfputs_r
000005fa  w      .text	00000000 UART4_IRQHandler
000005fa  w      .text	00000000 DMA2_Channel4_IRQHandler
00007466 g     F .text	00000018 memchr
00000a64 g     F .text	0000008e USART_Init
0000674e g     F .text	000000a8 _free_r
00000314 g     F .text	00000028 TIM3_IRQHandler
000005fa  w      .text	00000000 RCC_IRQHandler
000001f0 g     F .text	0000000c .hidden __riscv_save_3
000005fa  w      .text	00000000 TIM1_TRG_COM_IRQHandler
000076a4 g     O .text	00000028 test
000005fa  w      .text	00000000 DMA1_Channel1_IRQHandler
00000000 g       .init	00000000 _start
000005fa  w      .text	00000000 DMA2_Channel7_IRQHandler
2000000c g     O .data	00000010 AHBPrescTable
00007584 g     F .text	0000000c _lseek
00001ad0 g     F .text	00000046 dmp_set_tap_axes
00001624 g     F .text	0000006a mpu_read_mem
0000033c g     F .text	0000003c scheduler_run
00002886 g     F .text	00000002 atan2
00005a8e g     F .text	000000c6 .hidden __floatsisf
000005fa  w      .text	00000000 EXTI15_10_IRQHandler
00000b34 g     F .text	0000001e RCCdelay_us
00000a2e g     F .text	00000012 TIM_ITConfig
00000f58 g     F .text	00000074 mpu_set_accel_fsr
00000754 g     F .text	00000004 GPIO_ResetBits
000005fa  w      .text	00000000 TIM7_IRQHandler
000073c0 g     F .text	00000028 _close_r
000005fa  w      .text	00000000 CAN2_TX_IRQHandler
20000000 g       .dalign	00000000 _data_vma
000005fa  w      .text	00000000 TIM5_IRQHandler
00005eae g     F .text	00000024 memcmp
200000f0 g     O .bss	00000001 task_num
00001eb6 g     F .text	000001ba dmp_read_fifo
000061a6 g     F .text	000000fc __swsetup_r
000005fa  w      .text	00000000 EXTI9_5_IRQHandler
00003b0a g     F .text	000005b4 .hidden __divdf3
0000655a g     F .text	000000a0 __sfp
0000416c g     F .text	000004b8 .hidden __muldf3
000001c8 g     F .text	00000028 .hidden __riscv_save_10
000072e8 g     F .text	0000002c __sread
000005fa  w      .text	00000000 ETH_WKUP_IRQHandler
00001cc0 g     F .text	00000034 dmp_enable_6x_lp_quat
000074c4 g     F .text	00000002 __malloc_lock
0000020a g     F .text	00000016 .hidden __riscv_restore_4
00000200 g     F .text	00000020 .hidden __riscv_restore_8
000063d2 g     F .text	00000066 _fflush_r
000001d6 g     F .text	0000001a .hidden __riscv_save_6
000005fa  w      .text	00000000 SPI2_IRQHandler
00008858 g     O .text	00000020 __sf_fake_stdin
00000220 g     F .text	000000a8 memset
00000200 g     F .text	00000020 .hidden __riscv_restore_9
0000020a g     F .text	00000016 .hidden __riscv_restore_7
00000378 g     F .text	0000005a main
200000d4 g     O .data	00000004 SDA_bit
000005fa  w      .text	00000000 TIM10_BRK_IRQHandler
000005fa  w      .text	00000000 TIM9_CC_IRQHandler
00001946 g     F .text	0000018a dmp_set_tap_thresh
0000738c g     F .text	00000006 __sclose
000033c8 g     F .text	00000004 matherr
000005fa  w      .text	00000000 DMA2_Channel5_IRQHandler
00005cce g     F .text	0000016a .hidden __truncdfsf2
000067f6 g     F .text	000000da _malloc_r
000005fa  w      .text	00000000 DMA1_Channel5_IRQHandler
00001c5e g     F .text	0000002e dmp_enable_gyro_cal
000005fa  w      .text	00000000 EXTI4_IRQHandler
000026d4 g     F .text	00000036 Delay_Ms
000005fa  w      .text	00000000 USB_LP_CAN1_RX0_IRQHandler
000053ba g     F .text	00000294 .hidden __mulsf3
00000c88 g     F .text	00000024 SOFT_I2C_SendAck
000003d2 g     F .text	000000fa SystemInit
000075e4 g     O .text	0000000c hw
000005fa  w      .text	00000000 RNG_IRQHandler
000017e4 g     F .text	0000001e dmp_load_motion_driver_firmware
00005f84 g     F .text	00000040 iprintf
00000bde g     F .text	00000024 SOFT_I2C_Stop
0000309e g     F .text	00000324 atan
000005fa  w      .text	00000000 USB_HP_CAN1_TX_IRQHandler
000060a4 g     F .text	00000046 sprintf
00008738 g     O .text	00000100 .hidden __clz_tab
00000000 g       .init	00000000 _sinit
000020da g     F .text	00000086 MPU6050_ReadReg_HAL
00007392 g     F .text	0000002e _write_r
000027c8 g     F .text	000000be asin
000005fa  w      .text	00000000 DMA1_Channel3_IRQHandler
00002650 g     F .text	0000005a Tim3_Init
0000131e g     F .text	00000098 mpu_set_sample_rate
000005fa  w      .text	00000000 ETH_IRQHandler
00006f10 g     F .text	0000010c _printf_common
200000e4 g     O .data	00000004 _impure_ptr
000005fa  w      .text	00000000 TIM1_UP_IRQHandler
000062a2 g     F .text	00000130 __sflush_r
000069b4 g     F .text	0000026a _svfiprintf_r
000005fa  w      .text	00000000 WWDG_IRQHandler
000005fa  w      .text	00000000 USBHSWakeup_IRQHandler
000005fa  w      .text	00000000 DMA2_Channel11_IRQHandler
000005fa  w      .text	00000000 Ecall_U_Mode_Handler
00002206 g     F .text	0000009e mpu6050_task
000005fa  w      .text	00000000 DMA2_Channel6_IRQHandler
000005fa  w      .text	00000000 TIM2_IRQHandler
20008000 g       .stack	00000000 _eusrstack
000001f0 g     F .text	0000000c .hidden __riscv_save_2
000005fa  w      .text	00000000 SW_Handler
00001472 g     F .text	00000148 mpu_init
000033cc g     F .text	0000000e nan
00002eca g     F .text	000001d4 __ieee754_sqrt
2000010c g     O .bss	00000004 yaw
000021b4 g     F .text	00000052 dmp_getwalk
000005fa  w      .text	00000000 TIM1_BRK_IRQHandler
00006664 g     F .text	00000058 __swhatbuf_r
00000b08 g     F .text	00000008 USART_SendData
000005fa  w      .text	00000000 DMA2_Channel10_IRQHandler
000005fa  w      .text	00000000 EXTI1_IRQHandler
000001d6 g     F .text	0000001a .hidden __riscv_save_5
00002764 g     F .text	0000003e _write
200000f0 g       .data	00000000 _edata
20000130 g       .bss	00000000 _end
00000c02 g     F .text	0000003c SOFT_I2C_SendByte
20000100 g     O .bss	00000004 pitch
0000096c g     F .text	000000aa TIM_TimeBaseInit
000005fa  w      .text	00000000 RTCAlarm_IRQHandler
20000104 g     O .bss	00000004 roll
000088d4 g       .dlalign	00000000 _data_lma
000005fa  w      .text	00000000 TIM10_UP_IRQHandler
000005fa  w      .text	00000000 TIM9_TRG_COM_IRQHandler
000005fa  w      .text	00000000 UART7_IRQHandler
000005fa  w      .text	00000000 USART2_IRQHandler
000005fa  w      .text	00000000 UART6_IRQHandler
00007314 g     F .text	00000048 __swrite
00006c88 g     F .text	00000288 _vfiprintf_r
000065fa g     F .text	0000006a _fwalk_reent
000004cc g     F .text	0000012e SystemCoreClockUpdate
00005b54 g     F .text	000000ce .hidden __floatunsisf
0000248c g     F .text	000001c4 MPU6050_DMP_Get_Data
000005fa  w      .text	00000000 I2C2_ER_IRQHandler
000005fa  w      .text	00000000 DMA1_Channel2_IRQHandler
00008878 g     O .text	00000020 __sf_fake_stdout
000060a4 g     F .text	00000046 siprintf
00001b6c g     F .text	00000028 dmp_set_tap_time_multi
000001fc g     F .text	00000024 .hidden __riscv_restore_12
000005fa  w      .text	00000000 TIM8_BRK_IRQHandler
00007590 g     F .text	0000000c _read
00004d62 g     F .text	0000003c .hidden __unorddf2
000005fc  w      .text	00000000 handle_reset
000005fa  w      .text	00000000 CAN1_SCE_IRQHandler
20000000 g     O .data	0000000c scheduler_task
00005a38 g     F .text	00000056 .hidden __fixunssfsi
000005fa  w      .text	00000000 FLASH_IRQHandler
000001f0 g     F .text	0000000c .hidden __riscv_save_0
000005fa  w      .text	00000000 USART1_IRQHandler
00001c8c g     F .text	00000034 dmp_enable_lp_quat
000066bc g     F .text	00000092 __smakebuf_r
0000701c g     F .text	000002a2 _printf_i
000005fa  w      .text	00000000 SPI3_IRQHandler
000040be g     F .text	000000ae .hidden __gedf2
20000118 g     O .bss	00000004 __malloc_sbrk_start
000005fa  w      .text	00000000 I2C1_ER_IRQHandler
00000758 g     F .text	00000006 NVIC_PriorityGroupConfig
00001b44 g     F .text	00000028 dmp_set_tap_time
20000114 g     O .bss	00000004 __malloc_free_list
00001bfa g     F .text	00000028 dmp_set_shake_reject_timeout
00000214 g     F .text	0000000c .hidden __riscv_restore_1
00001bd2 g     F .text	00000028 dmp_set_shake_reject_time
00004624 g     F .text	0000073e .hidden __subdf3
00006c88 g     F .text	00000288 _vfprintf_r
200000d8 g     O .data	00000004 steplength
000022d4 g     F .text	000001b8 MPU6050_DMP_init
00000746 g     F .text	0000000a GPIO_ReadInputDataBit
0000104a g     F .text	00000052 mpu_configure_fifo
00004d9e g     F .text	0000036a .hidden __addsf3
200000f4 g     O .bss	00000004 uwtick
000005fa  w      .text	00000000 USBWakeUp_IRQHandler
00000d46 g     F .text	00000150 mpu_reset_fifo
00007560 g     F .text	0000000c _close
000005fa  w      .text	00000000 DMA2_Channel3_IRQHandler
00000b7e g     F .text	0000002e SOFT_I2C_W_SDA



Disassembly of section .init:

00000000 <_sinit>:
   0:	5fc0006f          	j	5fc <handle_reset>

Disassembly of section .vector:

00000004 <_vector_base>:
	...
   c:	02c8                	addi	a0,sp,324
   e:	0000                	unimp
  10:	02ca                	slli	t0,t0,0x12
  12:	0000                	unimp
  14:	0000                	unimp
  16:	0000                	unimp
  18:	05fa                	slli	a1,a1,0x1e
	...
  22:	0000                	unimp
  24:	05fa                	slli	a1,a1,0x1e
  26:	0000                	unimp
  28:	05fa                	slli	a1,a1,0x1e
	...
  32:	0000                	unimp
  34:	05fa                	slli	a1,a1,0x1e
  36:	0000                	unimp
  38:	0000                	unimp
  3a:	0000                	unimp
  3c:	05fa                	slli	a1,a1,0x1e
  3e:	0000                	unimp
  40:	0000                	unimp
  42:	0000                	unimp
  44:	05fa                	slli	a1,a1,0x1e
  46:	0000                	unimp
  48:	05fa                	slli	a1,a1,0x1e
  4a:	0000                	unimp
  4c:	05fa                	slli	a1,a1,0x1e
  4e:	0000                	unimp
  50:	05fa                	slli	a1,a1,0x1e
  52:	0000                	unimp
  54:	05fa                	slli	a1,a1,0x1e
  56:	0000                	unimp
  58:	05fa                	slli	a1,a1,0x1e
  5a:	0000                	unimp
  5c:	05fa                	slli	a1,a1,0x1e
  5e:	0000                	unimp
  60:	05fa                	slli	a1,a1,0x1e
  62:	0000                	unimp
  64:	05fa                	slli	a1,a1,0x1e
  66:	0000                	unimp
  68:	05fa                	slli	a1,a1,0x1e
  6a:	0000                	unimp
  6c:	05fa                	slli	a1,a1,0x1e
  6e:	0000                	unimp
  70:	05fa                	slli	a1,a1,0x1e
  72:	0000                	unimp
  74:	05fa                	slli	a1,a1,0x1e
  76:	0000                	unimp
  78:	05fa                	slli	a1,a1,0x1e
  7a:	0000                	unimp
  7c:	05fa                	slli	a1,a1,0x1e
  7e:	0000                	unimp
  80:	05fa                	slli	a1,a1,0x1e
  82:	0000                	unimp
  84:	05fa                	slli	a1,a1,0x1e
  86:	0000                	unimp
  88:	05fa                	slli	a1,a1,0x1e
  8a:	0000                	unimp
  8c:	05fa                	slli	a1,a1,0x1e
  8e:	0000                	unimp
  90:	05fa                	slli	a1,a1,0x1e
  92:	0000                	unimp
  94:	05fa                	slli	a1,a1,0x1e
  96:	0000                	unimp
  98:	05fa                	slli	a1,a1,0x1e
  9a:	0000                	unimp
  9c:	05fa                	slli	a1,a1,0x1e
  9e:	0000                	unimp
  a0:	05fa                	slli	a1,a1,0x1e
  a2:	0000                	unimp
  a4:	05fa                	slli	a1,a1,0x1e
  a6:	0000                	unimp
  a8:	05fa                	slli	a1,a1,0x1e
  aa:	0000                	unimp
  ac:	05fa                	slli	a1,a1,0x1e
  ae:	0000                	unimp
  b0:	05fa                	slli	a1,a1,0x1e
  b2:	0000                	unimp
  b4:	05fa                	slli	a1,a1,0x1e
  b6:	0000                	unimp
  b8:	0314                	addi	a3,sp,384
  ba:	0000                	unimp
  bc:	05fa                	slli	a1,a1,0x1e
  be:	0000                	unimp
  c0:	05fa                	slli	a1,a1,0x1e
  c2:	0000                	unimp
  c4:	05fa                	slli	a1,a1,0x1e
  c6:	0000                	unimp
  c8:	05fa                	slli	a1,a1,0x1e
  ca:	0000                	unimp
  cc:	05fa                	slli	a1,a1,0x1e
  ce:	0000                	unimp
  d0:	05fa                	slli	a1,a1,0x1e
  d2:	0000                	unimp
  d4:	05fa                	slli	a1,a1,0x1e
  d6:	0000                	unimp
  d8:	05fa                	slli	a1,a1,0x1e
  da:	0000                	unimp
  dc:	05fa                	slli	a1,a1,0x1e
  de:	0000                	unimp
  e0:	05fa                	slli	a1,a1,0x1e
  e2:	0000                	unimp
  e4:	05fa                	slli	a1,a1,0x1e
  e6:	0000                	unimp
  e8:	05fa                	slli	a1,a1,0x1e
  ea:	0000                	unimp
  ec:	05fa                	slli	a1,a1,0x1e
  ee:	0000                	unimp
  f0:	05fa                	slli	a1,a1,0x1e
  f2:	0000                	unimp
  f4:	05fa                	slli	a1,a1,0x1e
  f6:	0000                	unimp
  f8:	05fa                	slli	a1,a1,0x1e
  fa:	0000                	unimp
  fc:	05fa                	slli	a1,a1,0x1e
  fe:	0000                	unimp
 100:	05fa                	slli	a1,a1,0x1e
 102:	0000                	unimp
 104:	0000                	unimp
 106:	0000                	unimp
 108:	05fa                	slli	a1,a1,0x1e
 10a:	0000                	unimp
 10c:	05fa                	slli	a1,a1,0x1e
 10e:	0000                	unimp
 110:	05fa                	slli	a1,a1,0x1e
 112:	0000                	unimp
 114:	05fa                	slli	a1,a1,0x1e
 116:	0000                	unimp
 118:	05fa                	slli	a1,a1,0x1e
 11a:	0000                	unimp
 11c:	05fa                	slli	a1,a1,0x1e
 11e:	0000                	unimp
 120:	05fa                	slli	a1,a1,0x1e
 122:	0000                	unimp
 124:	05fa                	slli	a1,a1,0x1e
 126:	0000                	unimp
 128:	05fa                	slli	a1,a1,0x1e
 12a:	0000                	unimp
 12c:	05fa                	slli	a1,a1,0x1e
 12e:	0000                	unimp
 130:	05fa                	slli	a1,a1,0x1e
 132:	0000                	unimp
 134:	05fa                	slli	a1,a1,0x1e
 136:	0000                	unimp
 138:	05fa                	slli	a1,a1,0x1e
 13a:	0000                	unimp
 13c:	05fa                	slli	a1,a1,0x1e
 13e:	0000                	unimp
 140:	05fa                	slli	a1,a1,0x1e
 142:	0000                	unimp
 144:	05fa                	slli	a1,a1,0x1e
 146:	0000                	unimp
 148:	05fa                	slli	a1,a1,0x1e
 14a:	0000                	unimp
 14c:	05fa                	slli	a1,a1,0x1e
 14e:	0000                	unimp
 150:	05fa                	slli	a1,a1,0x1e
 152:	0000                	unimp
 154:	05fa                	slli	a1,a1,0x1e
 156:	0000                	unimp
 158:	05fa                	slli	a1,a1,0x1e
 15a:	0000                	unimp
 15c:	05fa                	slli	a1,a1,0x1e
 15e:	0000                	unimp
 160:	05fa                	slli	a1,a1,0x1e
 162:	0000                	unimp
 164:	05fa                	slli	a1,a1,0x1e
 166:	0000                	unimp
 168:	05fa                	slli	a1,a1,0x1e
 16a:	0000                	unimp
 16c:	05fa                	slli	a1,a1,0x1e
 16e:	0000                	unimp
 170:	05fa                	slli	a1,a1,0x1e
 172:	0000                	unimp
 174:	05fa                	slli	a1,a1,0x1e
 176:	0000                	unimp
 178:	05fa                	slli	a1,a1,0x1e
 17a:	0000                	unimp
 17c:	05fa                	slli	a1,a1,0x1e
 17e:	0000                	unimp
 180:	05fa                	slli	a1,a1,0x1e
 182:	0000                	unimp
 184:	05fa                	slli	a1,a1,0x1e
 186:	0000                	unimp
 188:	05fa                	slli	a1,a1,0x1e
 18a:	0000                	unimp
 18c:	05fa                	slli	a1,a1,0x1e
 18e:	0000                	unimp
 190:	05fa                	slli	a1,a1,0x1e
 192:	0000                	unimp
 194:	05fa                	slli	a1,a1,0x1e
 196:	0000                	unimp
 198:	05fa                	slli	a1,a1,0x1e
 19a:	0000                	unimp
 19c:	05fa                	slli	a1,a1,0x1e
 19e:	0000                	unimp
 1a0:	05fa                	slli	a1,a1,0x1e
	...

Disassembly of section .text:

000001c0 <__riscv_save_12>:
     1c0:	7139                	addi	sp,sp,-64
     1c2:	4301                	li	t1,0
     1c4:	c66e                	sw	s11,12(sp)
     1c6:	a019                	j	1cc <__riscv_save_10+0x4>

000001c8 <__riscv_save_10>:
     1c8:	7139                	addi	sp,sp,-64
     1ca:	5341                	li	t1,-16
     1cc:	c86a                	sw	s10,16(sp)
     1ce:	ca66                	sw	s9,20(sp)
     1d0:	cc62                	sw	s8,24(sp)
     1d2:	ce5e                	sw	s7,28(sp)
     1d4:	a019                	j	1da <__riscv_save_4+0x4>

000001d6 <__riscv_save_4>:
     1d6:	7139                	addi	sp,sp,-64
     1d8:	5301                	li	t1,-32
     1da:	d05a                	sw	s6,32(sp)
     1dc:	d256                	sw	s5,36(sp)
     1de:	d452                	sw	s4,40(sp)
     1e0:	d64e                	sw	s3,44(sp)
     1e2:	d84a                	sw	s2,48(sp)
     1e4:	da26                	sw	s1,52(sp)
     1e6:	dc22                	sw	s0,56(sp)
     1e8:	de06                	sw	ra,60(sp)
     1ea:	40610133          	sub	sp,sp,t1
     1ee:	8282                	jr	t0

000001f0 <__riscv_save_0>:
     1f0:	1141                	addi	sp,sp,-16
     1f2:	c04a                	sw	s2,0(sp)
     1f4:	c226                	sw	s1,4(sp)
     1f6:	c422                	sw	s0,8(sp)
     1f8:	c606                	sw	ra,12(sp)
     1fa:	8282                	jr	t0

000001fc <__riscv_restore_12>:
     1fc:	4db2                	lw	s11,12(sp)
     1fe:	0141                	addi	sp,sp,16

00000200 <__riscv_restore_10>:
     200:	4d02                	lw	s10,0(sp)
     202:	4c92                	lw	s9,4(sp)
     204:	4c22                	lw	s8,8(sp)
     206:	4bb2                	lw	s7,12(sp)
     208:	0141                	addi	sp,sp,16

0000020a <__riscv_restore_4>:
     20a:	4b02                	lw	s6,0(sp)
     20c:	4a92                	lw	s5,4(sp)
     20e:	4a22                	lw	s4,8(sp)
     210:	49b2                	lw	s3,12(sp)
     212:	0141                	addi	sp,sp,16

00000214 <__riscv_restore_0>:
     214:	4902                	lw	s2,0(sp)
     216:	4492                	lw	s1,4(sp)
     218:	4422                	lw	s0,8(sp)
     21a:	40b2                	lw	ra,12(sp)
     21c:	0141                	addi	sp,sp,16
     21e:	8082                	ret

00000220 <memset>:
     220:	433d                	li	t1,15
     222:	872a                	mv	a4,a0
     224:	02c37363          	bgeu	t1,a2,24a <memset+0x2a>
     228:	00f77793          	andi	a5,a4,15
     22c:	efbd                	bnez	a5,2aa <memset+0x8a>
     22e:	e5ad                	bnez	a1,298 <memset+0x78>
     230:	ff067693          	andi	a3,a2,-16
     234:	8a3d                	andi	a2,a2,15
     236:	96ba                	add	a3,a3,a4
     238:	c30c                	sw	a1,0(a4)
     23a:	c34c                	sw	a1,4(a4)
     23c:	c70c                	sw	a1,8(a4)
     23e:	c74c                	sw	a1,12(a4)
     240:	0741                	addi	a4,a4,16
     242:	fed76be3          	bltu	a4,a3,238 <memset+0x18>
     246:	e211                	bnez	a2,24a <memset+0x2a>
     248:	8082                	ret
     24a:	40c306b3          	sub	a3,t1,a2
     24e:	068a                	slli	a3,a3,0x2
     250:	00000297          	auipc	t0,0x0
     254:	9696                	add	a3,a3,t0
     256:	00a68067          	jr	10(a3)
     25a:	00b70723          	sb	a1,14(a4)
     25e:	00b706a3          	sb	a1,13(a4)
     262:	00b70623          	sb	a1,12(a4)
     266:	00b705a3          	sb	a1,11(a4)
     26a:	00b70523          	sb	a1,10(a4)
     26e:	00b704a3          	sb	a1,9(a4)
     272:	00b70423          	sb	a1,8(a4)
     276:	00b703a3          	sb	a1,7(a4)
     27a:	00b70323          	sb	a1,6(a4)
     27e:	00b702a3          	sb	a1,5(a4)
     282:	00b70223          	sb	a1,4(a4)
     286:	00b701a3          	sb	a1,3(a4)
     28a:	00b70123          	sb	a1,2(a4)
     28e:	00b700a3          	sb	a1,1(a4)
     292:	00b70023          	sb	a1,0(a4)
     296:	8082                	ret
     298:	0ff5f593          	andi	a1,a1,255
     29c:	00859693          	slli	a3,a1,0x8
     2a0:	8dd5                	or	a1,a1,a3
     2a2:	01059693          	slli	a3,a1,0x10
     2a6:	8dd5                	or	a1,a1,a3
     2a8:	b761                	j	230 <memset+0x10>
     2aa:	00279693          	slli	a3,a5,0x2
     2ae:	00000297          	auipc	t0,0x0
     2b2:	9696                	add	a3,a3,t0
     2b4:	8286                	mv	t0,ra
     2b6:	fa8680e7          	jalr	-88(a3)
     2ba:	8096                	mv	ra,t0
     2bc:	17c1                	addi	a5,a5,-16
     2be:	8f1d                	sub	a4,a4,a5
     2c0:	963e                	add	a2,a2,a5
     2c2:	f8c374e3          	bgeu	t1,a2,24a <memset+0x2a>
     2c6:	b7a5                	j	22e <memset+0xe>

000002c8 <NMI_Handler>:
     2c8:	a001                	j	2c8 <NMI_Handler>

000002ca <HardFault_Handler>:
     2ca:	beef07b7          	lui	a5,0xbeef0
     2ce:	e000e737          	lui	a4,0xe000e
     2d2:	08078793          	addi	a5,a5,128 # beef0080 <_eusrstack+0x9eee8080>
     2d6:	c73c                	sw	a5,72(a4)
     2d8:	a001                	j	2d8 <HardFault_Handler+0xe>

000002da <GPIO_Toggle_INIT>:
     2da:	f17ff2ef          	jal	t0,1f0 <__riscv_save_0>
     2de:	1141                	addi	sp,sp,-16
     2e0:	4585                	li	a1,1
     2e2:	4511                	li	a0,4
     2e4:	c202                	sw	zero,4(sp)
     2e6:	c402                	sw	zero,8(sp)
     2e8:	c602                	sw	zero,12(sp)
     2ea:	2599                	jal	930 <RCC_APB2PeriphClockCmd>
     2ec:	03000793          	li	a5,48
     2f0:	40011437          	lui	s0,0x40011
     2f4:	827c                	sh	a5,4(sp)
     2f6:	47d1                	li	a5,20
     2f8:	c63e                	sw	a5,12(sp)
     2fa:	004c                	addi	a1,sp,4
     2fc:	478d                	li	a5,3
     2fe:	80040513          	addi	a0,s0,-2048 # 40010800 <_eusrstack+0x20008800>
     302:	c43e                	sw	a5,8(sp)
     304:	2649                	jal	686 <GPIO_Init>
     306:	03000593          	li	a1,48
     30a:	80040513          	addi	a0,s0,-2048
     30e:	2189                	jal	750 <GPIO_SetBits>
     310:	0141                	addi	sp,sp,16
     312:	b709                	j	214 <__riscv_restore_0>

00000314 <TIM3_IRQHandler>:
     314:	40000537          	lui	a0,0x40000
     318:	4585                	li	a1,1
     31a:	40050513          	addi	a0,a0,1024 # 40000400 <_eusrstack+0x1fff8400>
     31e:	270d                	jal	a40 <TIM_GetITStatus>
     320:	c511                	beqz	a0,32c <TIM3_IRQHandler+0x18>
     322:	82c18793          	addi	a5,gp,-2004 # 200000f4 <uwtick>
     326:	4398                	lw	a4,0(a5)
     328:	0705                	addi	a4,a4,1
     32a:	c398                	sw	a4,0(a5)
     32c:	40000537          	lui	a0,0x40000
     330:	4585                	li	a1,1
     332:	40050513          	addi	a0,a0,1024 # 40000400 <_eusrstack+0x1fff8400>
     336:	270d                	jal	a58 <TIM_ClearITPendingBit>
     338:	30200073          	mret

0000033c <scheduler_run>:
     33c:	e9bff2ef          	jal	t0,1d6 <__riscv_save_4>
     340:	200004b7          	lui	s1,0x20000
     344:	4401                	li	s0,0
     346:	00048493          	mv	s1,s1
     34a:	4a31                	li	s4,12
     34c:	8281c783          	lbu	a5,-2008(gp) # 200000f0 <_edata>
     350:	00f46363          	bltu	s0,a5,356 <scheduler_run+0x1a>
     354:	bd5d                	j	20a <__riscv_restore_4>
     356:	034407b3          	mul	a5,s0,s4
     35a:	82c1a683          	lw	a3,-2004(gp) # 200000f4 <uwtick>
     35e:	97a6                	add	a5,a5,s1
     360:	4798                	lw	a4,8(a5)
     362:	43d0                	lw	a2,4(a5)
     364:	9732                	add	a4,a4,a2
     366:	00d77563          	bgeu	a4,a3,370 <scheduler_run+0x34>
     36a:	c794                	sw	a3,8(a5)
     36c:	439c                	lw	a5,0(a5)
     36e:	9782                	jalr	a5
     370:	0405                	addi	s0,s0,1
     372:	0ff47413          	andi	s0,s0,255
     376:	bfd9                	j	34c <scheduler_run+0x10>

00000378 <main>:
     378:	e79ff2ef          	jal	t0,1f0 <__riscv_save_0>
     37c:	4509                	li	a0,2
     37e:	2ee9                	jal	758 <NVIC_PriorityGroupConfig>
     380:	22b1                	jal	4cc <SystemCoreClockUpdate>
     382:	328020ef          	jal	ra,26aa <Delay_Init>
     386:	6571                	lui	a0,0x1c
     388:	20050513          	addi	a0,a0,512 # 1c200 <_data_lma+0x1392c>
     38c:	37e020ef          	jal	ra,270a <USART_Printf_Init>
     390:	37a9                	jal	2da <GPIO_Toggle_INIT>
     392:	200007b7          	lui	a5,0x20000
     396:	0c87a583          	lw	a1,200(a5) # 200000c8 <SystemCoreClock>
     39a:	00007537          	lui	a0,0x7
     39e:	5cc50513          	addi	a0,a0,1484 # 75cc <_read+0x3c>
     3a2:	3e3050ef          	jal	ra,5f84 <iprintf>
     3a6:	05f00593          	li	a1,95
     3aa:	3e800513          	li	a0,1000
     3ae:	2a2020ef          	jal	ra,2650 <Tim3_Init>
     3b2:	4705                	li	a4,1
     3b4:	82e18423          	sb	a4,-2008(gp) # 200000f0 <_edata>
     3b8:	71d010ef          	jal	ra,22d4 <MPU6050_DMP_init>
     3bc:	5eb010ef          	jal	ra,21a6 <MPU6050_GetID>
     3c0:	85aa                	mv	a1,a0
     3c2:	00007537          	lui	a0,0x7
     3c6:	5dc50513          	addi	a0,a0,1500 # 75dc <_read+0x4c>
     3ca:	3bb050ef          	jal	ra,5f84 <iprintf>
     3ce:	37bd                	jal	33c <scheduler_run>
     3d0:	bffd                	j	3ce <main+0x56>

000003d2 <SystemInit>:
     3d2:	400217b7          	lui	a5,0x40021
     3d6:	4398                	lw	a4,0(a5)
     3d8:	f0ff06b7          	lui	a3,0xf0ff0
     3dc:	1141                	addi	sp,sp,-16
     3de:	00176713          	ori	a4,a4,1
     3e2:	c398                	sw	a4,0(a5)
     3e4:	43d8                	lw	a4,4(a5)
     3e6:	00020637          	lui	a2,0x20
     3ea:	8f75                	and	a4,a4,a3
     3ec:	c3d8                	sw	a4,4(a5)
     3ee:	4398                	lw	a4,0(a5)
     3f0:	fef706b7          	lui	a3,0xfef70
     3f4:	16fd                	addi	a3,a3,-1
     3f6:	8f75                	and	a4,a4,a3
     3f8:	c398                	sw	a4,0(a5)
     3fa:	4398                	lw	a4,0(a5)
     3fc:	fffc06b7          	lui	a3,0xfffc0
     400:	16fd                	addi	a3,a3,-1
     402:	8f75                	and	a4,a4,a3
     404:	c398                	sw	a4,0(a5)
     406:	43d8                	lw	a4,4(a5)
     408:	ff0106b7          	lui	a3,0xff010
     40c:	16fd                	addi	a3,a3,-1
     40e:	8f75                	and	a4,a4,a3
     410:	c3d8                	sw	a4,4(a5)
     412:	4398                	lw	a4,0(a5)
     414:	ec0006b7          	lui	a3,0xec000
     418:	16fd                	addi	a3,a3,-1
     41a:	8f75                	and	a4,a4,a3
     41c:	c398                	sw	a4,0(a5)
     41e:	00ff0737          	lui	a4,0xff0
     422:	c798                	sw	a4,8(a5)
     424:	0207a623          	sw	zero,44(a5) # 4002102c <_eusrstack+0x2001902c>
     428:	c402                	sw	zero,8(sp)
     42a:	c602                	sw	zero,12(sp)
     42c:	4398                	lw	a4,0(a5)
     42e:	66c1                	lui	a3,0x10
     430:	8f55                	or	a4,a4,a3
     432:	c398                	sw	a4,0(a5)
     434:	400216b7          	lui	a3,0x40021
     438:	6705                	lui	a4,0x1
     43a:	429c                	lw	a5,0(a3)
     43c:	8ff1                	and	a5,a5,a2
     43e:	c63e                	sw	a5,12(sp)
     440:	47a2                	lw	a5,8(sp)
     442:	0785                	addi	a5,a5,1
     444:	c43e                	sw	a5,8(sp)
     446:	47b2                	lw	a5,12(sp)
     448:	e781                	bnez	a5,450 <SystemInit+0x7e>
     44a:	47a2                	lw	a5,8(sp)
     44c:	fee797e3          	bne	a5,a4,43a <SystemInit+0x68>
     450:	400217b7          	lui	a5,0x40021
     454:	439c                	lw	a5,0(a5)
     456:	00e79713          	slli	a4,a5,0xe
     45a:	06075763          	bgez	a4,4c8 <SystemInit+0xf6>
     45e:	4785                	li	a5,1
     460:	c63e                	sw	a5,12(sp)
     462:	4732                	lw	a4,12(sp)
     464:	4785                	li	a5,1
     466:	04f71f63          	bne	a4,a5,4c4 <SystemInit+0xf2>
     46a:	400217b7          	lui	a5,0x40021
     46e:	43d8                	lw	a4,4(a5)
     470:	ffc106b7          	lui	a3,0xffc10
     474:	16fd                	addi	a3,a3,-1
     476:	c3d8                	sw	a4,4(a5)
     478:	43d8                	lw	a4,4(a5)
     47a:	c3d8                	sw	a4,4(a5)
     47c:	43d8                	lw	a4,4(a5)
     47e:	40076713          	ori	a4,a4,1024
     482:	c3d8                	sw	a4,4(a5)
     484:	43d8                	lw	a4,4(a5)
     486:	8f75                	and	a4,a4,a3
     488:	c3d8                	sw	a4,4(a5)
     48a:	43d8                	lw	a4,4(a5)
     48c:	002906b7          	lui	a3,0x290
     490:	8f55                	or	a4,a4,a3
     492:	c3d8                	sw	a4,4(a5)
     494:	4398                	lw	a4,0(a5)
     496:	010006b7          	lui	a3,0x1000
     49a:	8f55                	or	a4,a4,a3
     49c:	c398                	sw	a4,0(a5)
     49e:	4398                	lw	a4,0(a5)
     4a0:	00671693          	slli	a3,a4,0x6
     4a4:	fe06dde3          	bgez	a3,49e <SystemInit+0xcc>
     4a8:	43d8                	lw	a4,4(a5)
     4aa:	400216b7          	lui	a3,0x40021
     4ae:	9b71                	andi	a4,a4,-4
     4b0:	c3d8                	sw	a4,4(a5)
     4b2:	43d8                	lw	a4,4(a5)
     4b4:	00276713          	ori	a4,a4,2
     4b8:	c3d8                	sw	a4,4(a5)
     4ba:	4721                	li	a4,8
     4bc:	42dc                	lw	a5,4(a3)
     4be:	8bb1                	andi	a5,a5,12
     4c0:	fee79ee3          	bne	a5,a4,4bc <SystemInit+0xea>
     4c4:	0141                	addi	sp,sp,16
     4c6:	8082                	ret
     4c8:	c602                	sw	zero,12(sp)
     4ca:	bf61                	j	462 <SystemInit+0x90>

000004cc <SystemCoreClockUpdate>:
     4cc:	400216b7          	lui	a3,0x40021
     4d0:	42d8                	lw	a4,4(a3)
     4d2:	200007b7          	lui	a5,0x20000
     4d6:	4611                	li	a2,4
     4d8:	8b31                	andi	a4,a4,12
     4da:	0c878793          	addi	a5,a5,200 # 200000c8 <SystemCoreClock>
     4de:	00c70563          	beq	a4,a2,4e8 <SystemCoreClockUpdate+0x1c>
     4e2:	4621                	li	a2,8
     4e4:	02c70863          	beq	a4,a2,514 <SystemCoreClockUpdate+0x48>
     4e8:	007a1737          	lui	a4,0x7a1
     4ec:	20070713          	addi	a4,a4,512 # 7a1200 <_data_lma+0x79892c>
     4f0:	c398                	sw	a4,0(a5)
     4f2:	40021737          	lui	a4,0x40021
     4f6:	4358                	lw	a4,4(a4)
     4f8:	8311                	srli	a4,a4,0x4
     4fa:	00f77693          	andi	a3,a4,15
     4fe:	20000737          	lui	a4,0x20000
     502:	00c70713          	addi	a4,a4,12 # 2000000c <AHBPrescTable>
     506:	9736                	add	a4,a4,a3
     508:	2314                	lbu	a3,0(a4)
     50a:	4398                	lw	a4,0(a5)
     50c:	00d75733          	srl	a4,a4,a3
     510:	c398                	sw	a4,0(a5)
     512:	8082                	ret
     514:	42d8                	lw	a4,4(a3)
     516:	42d4                	lw	a3,4(a3)
     518:	6641                	lui	a2,0x10
     51a:	8349                	srli	a4,a4,0x12
     51c:	8b3d                	andi	a4,a4,15
     51e:	8ef1                	and	a3,a3,a2
     520:	00270613          	addi	a2,a4,2
     524:	cf15                	beqz	a4,560 <SystemCoreClockUpdate+0x94>
     526:	473d                	li	a4,15
     528:	02e60f63          	beq	a2,a4,566 <SystemCoreClockUpdate+0x9a>
     52c:	4741                	li	a4,16
     52e:	02e60f63          	beq	a2,a4,56c <SystemCoreClockUpdate+0xa0>
     532:	4745                	li	a4,17
     534:	4581                	li	a1,0
     536:	00e61363          	bne	a2,a4,53c <SystemCoreClockUpdate+0x70>
     53a:	4641                	li	a2,16
     53c:	e2a1                	bnez	a3,57c <SystemCoreClockUpdate+0xb0>
     53e:	40024737          	lui	a4,0x40024
     542:	80072703          	lw	a4,-2048(a4) # 40023800 <_eusrstack+0x2001b800>
     546:	8b41                	andi	a4,a4,16
     548:	c70d                	beqz	a4,572 <SystemCoreClockUpdate+0xa6>
     54a:	007a1737          	lui	a4,0x7a1
     54e:	20070713          	addi	a4,a4,512 # 7a1200 <_data_lma+0x79892c>
     552:	02c70633          	mul	a2,a4,a2
     556:	c390                	sw	a2,0(a5)
     558:	ddc9                	beqz	a1,4f2 <SystemCoreClockUpdate+0x26>
     55a:	4398                	lw	a4,0(a5)
     55c:	8305                	srli	a4,a4,0x1
     55e:	bf49                	j	4f0 <SystemCoreClockUpdate+0x24>
     560:	4581                	li	a1,0
     562:	4649                	li	a2,18
     564:	bfe1                	j	53c <SystemCoreClockUpdate+0x70>
     566:	4585                	li	a1,1
     568:	4635                	li	a2,13
     56a:	bfc9                	j	53c <SystemCoreClockUpdate+0x70>
     56c:	4581                	li	a1,0
     56e:	463d                	li	a2,15
     570:	b7f1                	j	53c <SystemCoreClockUpdate+0x70>
     572:	003d1737          	lui	a4,0x3d1
     576:	90070713          	addi	a4,a4,-1792 # 3d0900 <_data_lma+0x3c802c>
     57a:	bfe1                	j	552 <SystemCoreClockUpdate+0x86>
     57c:	40021537          	lui	a0,0x40021
     580:	5558                	lw	a4,44(a0)
     582:	00f71693          	slli	a3,a4,0xf
     586:	5558                	lw	a4,44(a0)
     588:	0406df63          	bgez	a3,5e6 <SystemCoreClockUpdate+0x11a>
     58c:	8311                	srli	a4,a4,0x4
     58e:	8b3d                	andi	a4,a4,15
     590:	00170693          	addi	a3,a4,1
     594:	007a1737          	lui	a4,0x7a1
     598:	20070713          	addi	a4,a4,512 # 7a1200 <_data_lma+0x79892c>
     59c:	02d75733          	divu	a4,a4,a3
     5a0:	c398                	sw	a4,0(a5)
     5a2:	5554                	lw	a3,44(a0)
     5a4:	82a1                	srli	a3,a3,0x8
     5a6:	8abd                	andi	a3,a3,15
     5a8:	e28d                	bnez	a3,5ca <SystemCoreClockUpdate+0xfe>
     5aa:	4695                	li	a3,5
     5ac:	02d70733          	mul	a4,a4,a3
     5b0:	8305                	srli	a4,a4,0x1
     5b2:	c398                	sw	a4,0(a5)
     5b4:	40021737          	lui	a4,0x40021
     5b8:	5758                	lw	a4,44(a4)
     5ba:	4394                	lw	a3,0(a5)
     5bc:	8b3d                	andi	a4,a4,15
     5be:	0705                	addi	a4,a4,1
     5c0:	02e6d733          	divu	a4,a3,a4
     5c4:	c398                	sw	a4,0(a5)
     5c6:	4398                	lw	a4,0(a5)
     5c8:	b769                	j	552 <SystemCoreClockUpdate+0x86>
     5ca:	4505                	li	a0,1
     5cc:	00a69463          	bne	a3,a0,5d4 <SystemCoreClockUpdate+0x108>
     5d0:	46e5                	li	a3,25
     5d2:	bfe9                	j	5ac <SystemCoreClockUpdate+0xe0>
     5d4:	453d                	li	a0,15
     5d6:	00a69663          	bne	a3,a0,5e2 <SystemCoreClockUpdate+0x116>
     5da:	46d1                	li	a3,20
     5dc:	02e68733          	mul	a4,a3,a4
     5e0:	bfc9                	j	5b2 <SystemCoreClockUpdate+0xe6>
     5e2:	0689                	addi	a3,a3,2
     5e4:	bfe5                	j	5dc <SystemCoreClockUpdate+0x110>
     5e6:	8b3d                	andi	a4,a4,15
     5e8:	00170693          	addi	a3,a4,1 # 40021001 <_eusrstack+0x20019001>
     5ec:	007a1737          	lui	a4,0x7a1
     5f0:	20070713          	addi	a4,a4,512 # 7a1200 <_data_lma+0x79892c>
     5f4:	02d75733          	divu	a4,a4,a3
     5f8:	b7f1                	j	5c4 <SystemCoreClockUpdate+0xf8>

000005fa <ADC1_2_IRQHandler>:
     5fa:	a001                	j	5fa <ADC1_2_IRQHandler>

000005fc <handle_reset>:
     5fc:	20000197          	auipc	gp,0x20000
     600:	2cc18193          	addi	gp,gp,716 # 200008c8 <__global_pointer$>
     604:	20008117          	auipc	sp,0x20008
     608:	9fc10113          	addi	sp,sp,-1540 # 20008000 <_eusrstack>
     60c:	00008517          	auipc	a0,0x8
     610:	2c850513          	addi	a0,a0,712 # 88d4 <_data_lma>
     614:	20000597          	auipc	a1,0x20000
     618:	9ec58593          	addi	a1,a1,-1556 # 20000000 <_data_vma>
     61c:	82818613          	addi	a2,gp,-2008 # 200000f0 <_edata>
     620:	00c5fa63          	bgeu	a1,a2,634 <handle_reset+0x38>
     624:	00052283          	lw	t0,0(a0)
     628:	0055a023          	sw	t0,0(a1)
     62c:	0511                	addi	a0,a0,4
     62e:	0591                	addi	a1,a1,4
     630:	fec5eae3          	bltu	a1,a2,624 <handle_reset+0x28>
     634:	82818513          	addi	a0,gp,-2008 # 200000f0 <_edata>
     638:	86818593          	addi	a1,gp,-1944 # 20000130 <_ebss>
     63c:	00b57763          	bgeu	a0,a1,64a <handle_reset+0x4e>
     640:	00052023          	sw	zero,0(a0)
     644:	0511                	addi	a0,a0,4
     646:	feb56de3          	bltu	a0,a1,640 <handle_reset+0x44>
     64a:	42fd                	li	t0,31
     64c:	bc029073          	csrw	0xbc0,t0
     650:	42ad                	li	t0,11
     652:	80429073          	csrw	0x804,t0
     656:	000062b7          	lui	t0,0x6
     65a:	08828293          	addi	t0,t0,136 # 6088 <_puts_r+0xc4>
     65e:	30029073          	csrw	mstatus,t0
     662:	00000297          	auipc	t0,0x0
     666:	9a228293          	addi	t0,t0,-1630 # 4 <_einit>
     66a:	0032e293          	ori	t0,t0,3
     66e:	30529073          	csrw	mtvec,t0
     672:	d61ff0ef          	jal	ra,3d2 <SystemInit>
     676:	00000297          	auipc	t0,0x0
     67a:	d0228293          	addi	t0,t0,-766 # 378 <main>
     67e:	34129073          	csrw	mepc,t0
     682:	30200073          	mret

00000686 <GPIO_Init>:
     686:	459c                	lw	a5,8(a1)
     688:	0107f713          	andi	a4,a5,16
     68c:	00f7f813          	andi	a6,a5,15
     690:	c701                	beqz	a4,698 <GPIO_Init+0x12>
     692:	41d8                	lw	a4,4(a1)
     694:	00e86833          	or	a6,a6,a4
     698:	218e                	lhu	a1,0(a1)
     69a:	0ff5f713          	andi	a4,a1,255
     69e:	c339                	beqz	a4,6e4 <GPIO_Init+0x5e>
     6a0:	4118                	lw	a4,0(a0)
     6a2:	4681                	li	a3,0
     6a4:	4e85                	li	t4,1
     6a6:	4f3d                	li	t5,15
     6a8:	02800f93          	li	t6,40
     6ac:	04800293          	li	t0,72
     6b0:	4e21                	li	t3,8
     6b2:	00de9633          	sll	a2,t4,a3
     6b6:	00c5f8b3          	and	a7,a1,a2
     6ba:	03161163          	bne	a2,a7,6dc <GPIO_Init+0x56>
     6be:	00269893          	slli	a7,a3,0x2
     6c2:	011f1333          	sll	t1,t5,a7
     6c6:	fff34313          	not	t1,t1
     6ca:	00e37733          	and	a4,t1,a4
     6ce:	011818b3          	sll	a7,a6,a7
     6d2:	00e8e733          	or	a4,a7,a4
     6d6:	05f79f63          	bne	a5,t6,734 <GPIO_Init+0xae>
     6da:	c950                	sw	a2,20(a0)
     6dc:	0685                	addi	a3,a3,1
     6de:	fdc69ae3          	bne	a3,t3,6b2 <GPIO_Init+0x2c>
     6e2:	c118                	sw	a4,0(a0)
     6e4:	0ff00713          	li	a4,255
     6e8:	04b77563          	bgeu	a4,a1,732 <GPIO_Init+0xac>
     6ec:	4154                	lw	a3,4(a0)
     6ee:	4621                	li	a2,8
     6f0:	4e85                	li	t4,1
     6f2:	4f3d                	li	t5,15
     6f4:	02800f93          	li	t6,40
     6f8:	04800293          	li	t0,72
     6fc:	4e41                	li	t3,16
     6fe:	00ce98b3          	sll	a7,t4,a2
     702:	0115f733          	and	a4,a1,a7
     706:	02e89263          	bne	a7,a4,72a <GPIO_Init+0xa4>
     70a:	00261713          	slli	a4,a2,0x2
     70e:	1701                	addi	a4,a4,-32
     710:	00ef1333          	sll	t1,t5,a4
     714:	fff34313          	not	t1,t1
     718:	00d376b3          	and	a3,t1,a3
     71c:	00e81733          	sll	a4,a6,a4
     720:	8ed9                	or	a3,a3,a4
     722:	01f79d63          	bne	a5,t6,73c <GPIO_Init+0xb6>
     726:	01152a23          	sw	a7,20(a0)
     72a:	0605                	addi	a2,a2,1
     72c:	fdc619e3          	bne	a2,t3,6fe <GPIO_Init+0x78>
     730:	c154                	sw	a3,4(a0)
     732:	8082                	ret
     734:	fa5794e3          	bne	a5,t0,6dc <GPIO_Init+0x56>
     738:	c910                	sw	a2,16(a0)
     73a:	b74d                	j	6dc <GPIO_Init+0x56>
     73c:	fe5797e3          	bne	a5,t0,72a <GPIO_Init+0xa4>
     740:	01152823          	sw	a7,16(a0)
     744:	b7dd                	j	72a <GPIO_Init+0xa4>

00000746 <GPIO_ReadInputDataBit>:
     746:	4508                	lw	a0,8(a0)
     748:	8d6d                	and	a0,a0,a1
     74a:	00a03533          	snez	a0,a0
     74e:	8082                	ret

00000750 <GPIO_SetBits>:
     750:	c90c                	sw	a1,16(a0)
     752:	8082                	ret

00000754 <GPIO_ResetBits>:
     754:	c94c                	sw	a1,20(a0)
     756:	8082                	ret

00000758 <NVIC_PriorityGroupConfig>:
     758:	82a1a823          	sw	a0,-2000(gp) # 200000f8 <NVIC_Priority_Group>
     75c:	8082                	ret

0000075e <NVIC_Init>:
     75e:	8301a703          	lw	a4,-2000(gp) # 200000f8 <NVIC_Priority_Group>
     762:	4789                	li	a5,2
     764:	2110                	lbu	a2,0(a0)
     766:	02f71163          	bne	a4,a5,788 <NVIC_Init+0x2a>
     76a:	3114                	lbu	a3,1(a0)
     76c:	478d                	li	a5,3
     76e:	00d7ed63          	bltu	a5,a3,788 <NVIC_Init+0x2a>
     772:	213c                	lbu	a5,2(a0)
     774:	069a                	slli	a3,a3,0x6
     776:	e000e737          	lui	a4,0xe000e
     77a:	0796                	slli	a5,a5,0x5
     77c:	8fd5                	or	a5,a5,a3
     77e:	0ff7f793          	andi	a5,a5,255
     782:	9732                	add	a4,a4,a2
     784:	40f70023          	sb	a5,1024(a4) # e000e400 <_eusrstack+0xc0006400>
     788:	4154                	lw	a3,4(a0)
     78a:	4705                	li	a4,1
     78c:	00565793          	srli	a5,a2,0x5
     790:	00c71733          	sll	a4,a4,a2
     794:	ca89                	beqz	a3,7a6 <NVIC_Init+0x48>
     796:	04078793          	addi	a5,a5,64
     79a:	078a                	slli	a5,a5,0x2
     79c:	e000e6b7          	lui	a3,0xe000e
     7a0:	97b6                	add	a5,a5,a3
     7a2:	c398                	sw	a4,0(a5)
     7a4:	8082                	ret
     7a6:	06078793          	addi	a5,a5,96
     7aa:	e000e6b7          	lui	a3,0xe000e
     7ae:	078a                	slli	a5,a5,0x2
     7b0:	97b6                	add	a5,a5,a3
     7b2:	c398                	sw	a4,0(a5)
     7b4:	0000100f          	fence.i
     7b8:	8082                	ret

000007ba <RCC_GetClocksFreq>:
     7ba:	40021737          	lui	a4,0x40021
     7be:	435c                	lw	a5,4(a4)
     7c0:	4691                	li	a3,4
     7c2:	8bb1                	andi	a5,a5,12
     7c4:	00d78563          	beq	a5,a3,7ce <RCC_GetClocksFreq+0x14>
     7c8:	46a1                	li	a3,8
     7ca:	06d78263          	beq	a5,a3,82e <__stack_size+0x2e>
     7ce:	007a17b7          	lui	a5,0x7a1
     7d2:	20078793          	addi	a5,a5,512 # 7a1200 <_data_lma+0x79892c>
     7d6:	c11c                	sw	a5,0(a0)
     7d8:	40021637          	lui	a2,0x40021
     7dc:	425c                	lw	a5,4(a2)
     7de:	20000737          	lui	a4,0x20000
     7e2:	01c70713          	addi	a4,a4,28 # 2000001c <APBAHBPrescTable>
     7e6:	8391                	srli	a5,a5,0x4
     7e8:	8bbd                	andi	a5,a5,15
     7ea:	97ba                	add	a5,a5,a4
     7ec:	2394                	lbu	a3,0(a5)
     7ee:	411c                	lw	a5,0(a0)
     7f0:	00d7d7b3          	srl	a5,a5,a3
     7f4:	c15c                	sw	a5,4(a0)
     7f6:	4254                	lw	a3,4(a2)
     7f8:	82a1                	srli	a3,a3,0x8
     7fa:	8a9d                	andi	a3,a3,7
     7fc:	96ba                	add	a3,a3,a4
     7fe:	2294                	lbu	a3,0(a3)
     800:	00d7d6b3          	srl	a3,a5,a3
     804:	c514                	sw	a3,8(a0)
     806:	4254                	lw	a3,4(a2)
     808:	82ad                	srli	a3,a3,0xb
     80a:	8a9d                	andi	a3,a3,7
     80c:	9736                	add	a4,a4,a3
     80e:	2318                	lbu	a4,0(a4)
     810:	00e7d7b3          	srl	a5,a5,a4
     814:	c55c                	sw	a5,12(a0)
     816:	4258                	lw	a4,4(a2)
     818:	8339                	srli	a4,a4,0xe
     81a:	00377693          	andi	a3,a4,3
     81e:	80418713          	addi	a4,gp,-2044 # 200000cc <ADCPrescTable>
     822:	9736                	add	a4,a4,a3
     824:	2318                	lbu	a4,0(a4)
     826:	02e7d7b3          	divu	a5,a5,a4
     82a:	c91c                	sw	a5,16(a0)
     82c:	8082                	ret
     82e:	435c                	lw	a5,4(a4)
     830:	4358                	lw	a4,4(a4)
     832:	66c1                	lui	a3,0x10
     834:	83c9                	srli	a5,a5,0x12
     836:	8f75                	and	a4,a4,a3
     838:	1ffff6b7          	lui	a3,0x1ffff
     83c:	70c6a683          	lw	a3,1804(a3) # 1ffff70c <_data_lma+0x1fff6e38>
     840:	8bbd                	andi	a5,a5,15
     842:	0789                	addi	a5,a5,2
     844:	01169613          	slli	a2,a3,0x11
     848:	00064863          	bltz	a2,858 <__stack_size+0x58>
     84c:	46c5                	li	a3,17
     84e:	4601                	li	a2,0
     850:	02d79263          	bne	a5,a3,874 <__stack_size+0x74>
     854:	47c9                	li	a5,18
     856:	a839                	j	874 <__stack_size+0x74>
     858:	4689                	li	a3,2
     85a:	02d78f63          	beq	a5,a3,898 <__stack_size+0x98>
     85e:	46bd                	li	a3,15
     860:	02d78e63          	beq	a5,a3,89c <__stack_size+0x9c>
     864:	46c1                	li	a3,16
     866:	02d78e63          	beq	a5,a3,8a2 <__stack_size+0xa2>
     86a:	46c5                	li	a3,17
     86c:	4601                	li	a2,0
     86e:	00d79363          	bne	a5,a3,874 <__stack_size+0x74>
     872:	47c1                	li	a5,16
     874:	ef1d                	bnez	a4,8b2 <__stack_size+0xb2>
     876:	40024737          	lui	a4,0x40024
     87a:	80072703          	lw	a4,-2048(a4) # 40023800 <_eusrstack+0x2001b800>
     87e:	8b41                	andi	a4,a4,16
     880:	c705                	beqz	a4,8a8 <__stack_size+0xa8>
     882:	007a1737          	lui	a4,0x7a1
     886:	20070713          	addi	a4,a4,512 # 7a1200 <_data_lma+0x79892c>
     88a:	02f707b3          	mul	a5,a4,a5
     88e:	c11c                	sw	a5,0(a0)
     890:	d621                	beqz	a2,7d8 <RCC_GetClocksFreq+0x1e>
     892:	411c                	lw	a5,0(a0)
     894:	8385                	srli	a5,a5,0x1
     896:	b781                	j	7d6 <RCC_GetClocksFreq+0x1c>
     898:	4601                	li	a2,0
     89a:	bf6d                	j	854 <__stack_size+0x54>
     89c:	4605                	li	a2,1
     89e:	47b5                	li	a5,13
     8a0:	bfd1                	j	874 <__stack_size+0x74>
     8a2:	4601                	li	a2,0
     8a4:	47bd                	li	a5,15
     8a6:	b7f9                	j	874 <__stack_size+0x74>
     8a8:	003d1737          	lui	a4,0x3d1
     8ac:	90070713          	addi	a4,a4,-1792 # 3d0900 <_data_lma+0x3c802c>
     8b0:	bfe9                	j	88a <__stack_size+0x8a>
     8b2:	400215b7          	lui	a1,0x40021
     8b6:	55d8                	lw	a4,44(a1)
     8b8:	00f71693          	slli	a3,a4,0xf
     8bc:	55d8                	lw	a4,44(a1)
     8be:	0406df63          	bgez	a3,91c <__stack_size+0x11c>
     8c2:	8311                	srli	a4,a4,0x4
     8c4:	8b3d                	andi	a4,a4,15
     8c6:	00170693          	addi	a3,a4,1
     8ca:	007a1737          	lui	a4,0x7a1
     8ce:	20070713          	addi	a4,a4,512 # 7a1200 <_data_lma+0x79892c>
     8d2:	02d75733          	divu	a4,a4,a3
     8d6:	c118                	sw	a4,0(a0)
     8d8:	55d4                	lw	a3,44(a1)
     8da:	82a1                	srli	a3,a3,0x8
     8dc:	8abd                	andi	a3,a3,15
     8de:	e28d                	bnez	a3,900 <__stack_size+0x100>
     8e0:	4695                	li	a3,5
     8e2:	02d70733          	mul	a4,a4,a3
     8e6:	8305                	srli	a4,a4,0x1
     8e8:	c118                	sw	a4,0(a0)
     8ea:	40021737          	lui	a4,0x40021
     8ee:	5758                	lw	a4,44(a4)
     8f0:	4114                	lw	a3,0(a0)
     8f2:	8b3d                	andi	a4,a4,15
     8f4:	0705                	addi	a4,a4,1
     8f6:	02e6d733          	divu	a4,a3,a4
     8fa:	c118                	sw	a4,0(a0)
     8fc:	4118                	lw	a4,0(a0)
     8fe:	b771                	j	88a <__stack_size+0x8a>
     900:	4585                	li	a1,1
     902:	00b69463          	bne	a3,a1,90a <__stack_size+0x10a>
     906:	46e5                	li	a3,25
     908:	bfe9                	j	8e2 <__stack_size+0xe2>
     90a:	45bd                	li	a1,15
     90c:	00b69663          	bne	a3,a1,918 <__stack_size+0x118>
     910:	46d1                	li	a3,20
     912:	02e68733          	mul	a4,a3,a4
     916:	bfc9                	j	8e8 <__stack_size+0xe8>
     918:	0689                	addi	a3,a3,2
     91a:	bfe5                	j	912 <__stack_size+0x112>
     91c:	8b3d                	andi	a4,a4,15
     91e:	00170693          	addi	a3,a4,1 # 40021001 <_eusrstack+0x20019001>
     922:	007a1737          	lui	a4,0x7a1
     926:	20070713          	addi	a4,a4,512 # 7a1200 <_data_lma+0x79892c>
     92a:	02d75733          	divu	a4,a4,a3
     92e:	b7f1                	j	8fa <__stack_size+0xfa>

00000930 <RCC_APB2PeriphClockCmd>:
     930:	c599                	beqz	a1,93e <RCC_APB2PeriphClockCmd+0xe>
     932:	40021737          	lui	a4,0x40021
     936:	4f1c                	lw	a5,24(a4)
     938:	8d5d                	or	a0,a0,a5
     93a:	cf08                	sw	a0,24(a4)
     93c:	8082                	ret
     93e:	400217b7          	lui	a5,0x40021
     942:	4f98                	lw	a4,24(a5)
     944:	fff54513          	not	a0,a0
     948:	8d79                	and	a0,a0,a4
     94a:	cf88                	sw	a0,24(a5)
     94c:	8082                	ret

0000094e <RCC_APB1PeriphClockCmd>:
     94e:	c599                	beqz	a1,95c <RCC_APB1PeriphClockCmd+0xe>
     950:	40021737          	lui	a4,0x40021
     954:	4f5c                	lw	a5,28(a4)
     956:	8d5d                	or	a0,a0,a5
     958:	cf48                	sw	a0,28(a4)
     95a:	8082                	ret
     95c:	400217b7          	lui	a5,0x40021
     960:	4fd8                	lw	a4,28(a5)
     962:	fff54513          	not	a0,a0
     966:	8d79                	and	a0,a0,a4
     968:	cfc8                	sw	a0,28(a5)
     96a:	8082                	ret

0000096c <TIM_TimeBaseInit>:
     96c:	211e                	lhu	a5,0(a0)
     96e:	40013737          	lui	a4,0x40013
     972:	c0070693          	addi	a3,a4,-1024 # 40012c00 <_eusrstack+0x2000ac00>
     976:	07c2                	slli	a5,a5,0x10
     978:	83c1                	srli	a5,a5,0x10
     97a:	04d50063          	beq	a0,a3,9ba <TIM_TimeBaseInit+0x4e>
     97e:	400006b7          	lui	a3,0x40000
     982:	02d50c63          	beq	a0,a3,9ba <TIM_TimeBaseInit+0x4e>
     986:	40068693          	addi	a3,a3,1024 # 40000400 <_eusrstack+0x1fff8400>
     98a:	02d50863          	beq	a0,a3,9ba <TIM_TimeBaseInit+0x4e>
     98e:	400016b7          	lui	a3,0x40001
     992:	80068613          	addi	a2,a3,-2048 # 40000800 <_eusrstack+0x1fff8800>
     996:	02c50263          	beq	a0,a2,9ba <TIM_TimeBaseInit+0x4e>
     99a:	c0068693          	addi	a3,a3,-1024
     99e:	00d50e63          	beq	a0,a3,9ba <TIM_TimeBaseInit+0x4e>
     9a2:	40070713          	addi	a4,a4,1024
     9a6:	00e50a63          	beq	a0,a4,9ba <TIM_TimeBaseInit+0x4e>
     9aa:	40015737          	lui	a4,0x40015
     9ae:	c0070693          	addi	a3,a4,-1024 # 40014c00 <_eusrstack+0x2000cc00>
     9b2:	00d50463          	beq	a0,a3,9ba <TIM_TimeBaseInit+0x4e>
     9b6:	00e51663          	bne	a0,a4,9c2 <TIM_TimeBaseInit+0x56>
     9ba:	21ba                	lhu	a4,2(a1)
     9bc:	f8f7f793          	andi	a5,a5,-113
     9c0:	8fd9                	or	a5,a5,a4
     9c2:	40001737          	lui	a4,0x40001
     9c6:	00e50c63          	beq	a0,a4,9de <TIM_TimeBaseInit+0x72>
     9ca:	40070713          	addi	a4,a4,1024 # 40001400 <_eusrstack+0x1fff9400>
     9ce:	00e50863          	beq	a0,a4,9de <TIM_TimeBaseInit+0x72>
     9d2:	cff7f793          	andi	a5,a5,-769
     9d6:	21fa                	lhu	a4,6(a1)
     9d8:	07c2                	slli	a5,a5,0x10
     9da:	83c1                	srli	a5,a5,0x10
     9dc:	8fd9                	or	a5,a5,a4
     9de:	a11e                	sh	a5,0(a0)
     9e0:	21de                	lhu	a5,4(a1)
     9e2:	b55e                	sh	a5,44(a0)
     9e4:	219e                	lhu	a5,0(a1)
     9e6:	b51e                	sh	a5,40(a0)
     9e8:	400137b7          	lui	a5,0x40013
     9ec:	c0078713          	addi	a4,a5,-1024 # 40012c00 <_eusrstack+0x2000ac00>
     9f0:	00e50e63          	beq	a0,a4,a0c <TIM_TimeBaseInit+0xa0>
     9f4:	40078793          	addi	a5,a5,1024
     9f8:	00f50a63          	beq	a0,a5,a0c <TIM_TimeBaseInit+0xa0>
     9fc:	400157b7          	lui	a5,0x40015
     a00:	c0078713          	addi	a4,a5,-1024 # 40014c00 <_eusrstack+0x2000cc00>
     a04:	00e50463          	beq	a0,a4,a0c <TIM_TimeBaseInit+0xa0>
     a08:	00f51463          	bne	a0,a5,a10 <TIM_TimeBaseInit+0xa4>
     a0c:	259c                	lbu	a5,8(a1)
     a0e:	b91e                	sh	a5,48(a0)
     a10:	4785                	li	a5,1
     a12:	a95e                	sh	a5,20(a0)
     a14:	8082                	ret

00000a16 <TIM_Cmd>:
     a16:	211e                	lhu	a5,0(a0)
     a18:	c589                	beqz	a1,a22 <TIM_Cmd+0xc>
     a1a:	0017e793          	ori	a5,a5,1
     a1e:	a11e                	sh	a5,0(a0)
     a20:	8082                	ret
     a22:	07c2                	slli	a5,a5,0x10
     a24:	83c1                	srli	a5,a5,0x10
     a26:	9bf9                	andi	a5,a5,-2
     a28:	07c2                	slli	a5,a5,0x10
     a2a:	83c1                	srli	a5,a5,0x10
     a2c:	bfcd                	j	a1e <TIM_Cmd+0x8>

00000a2e <TIM_ITConfig>:
     a2e:	255e                	lhu	a5,12(a0)
     a30:	c601                	beqz	a2,a38 <TIM_ITConfig+0xa>
     a32:	8ddd                	or	a1,a1,a5
     a34:	a54e                	sh	a1,12(a0)
     a36:	8082                	ret
     a38:	fff5c593          	not	a1,a1
     a3c:	8dfd                	and	a1,a1,a5
     a3e:	bfdd                	j	a34 <TIM_ITConfig+0x6>

00000a40 <TIM_GetITStatus>:
     a40:	291e                	lhu	a5,16(a0)
     a42:	254a                	lhu	a0,12(a0)
     a44:	8fed                	and	a5,a5,a1
     a46:	0542                	slli	a0,a0,0x10
     a48:	8141                	srli	a0,a0,0x10
     a4a:	c789                	beqz	a5,a54 <TIM_GetITStatus+0x14>
     a4c:	8d6d                	and	a0,a0,a1
     a4e:	00a03533          	snez	a0,a0
     a52:	8082                	ret
     a54:	4501                	li	a0,0
     a56:	8082                	ret

00000a58 <TIM_ClearITPendingBit>:
     a58:	fff5c593          	not	a1,a1
     a5c:	05c2                	slli	a1,a1,0x10
     a5e:	81c1                	srli	a1,a1,0x10
     a60:	a90e                	sh	a1,16(a0)
     a62:	8082                	ret

00000a64 <USART_Init>:
     a64:	f8cff2ef          	jal	t0,1f0 <__riscv_save_0>
     a68:	2916                	lhu	a3,16(a0)
     a6a:	77f5                	lui	a5,0xffffd
     a6c:	17fd                	addi	a5,a5,-1
     a6e:	8ff5                	and	a5,a5,a3
     a70:	21f6                	lhu	a3,6(a1)
     a72:	25da                	lhu	a4,12(a1)
     a74:	7179                	addi	sp,sp,-48
     a76:	8fd5                	or	a5,a5,a3
     a78:	a91e                	sh	a5,16(a0)
     a7a:	2556                	lhu	a3,12(a0)
     a7c:	77fd                	lui	a5,0xfffff
     a7e:	9f378793          	addi	a5,a5,-1549 # ffffe9f3 <_eusrstack+0xdfff69f3>
     a82:	8ff5                	and	a5,a5,a3
     a84:	21d6                	lhu	a3,4(a1)
     a86:	842a                	mv	s0,a0
     a88:	c62e                	sw	a1,12(sp)
     a8a:	8fd5                	or	a5,a5,a3
     a8c:	2596                	lhu	a3,8(a1)
     a8e:	8fd5                	or	a5,a5,a3
     a90:	25b6                	lhu	a3,10(a1)
     a92:	8fd5                	or	a5,a5,a3
     a94:	a55e                	sh	a5,12(a0)
     a96:	295e                	lhu	a5,20(a0)
     a98:	07c2                	slli	a5,a5,0x10
     a9a:	83c1                	srli	a5,a5,0x10
     a9c:	cff7f793          	andi	a5,a5,-769
     aa0:	8fd9                	or	a5,a5,a4
     aa2:	a95e                	sh	a5,20(a0)
     aa4:	0868                	addi	a0,sp,28
     aa6:	3b11                	jal	7ba <RCC_GetClocksFreq>
     aa8:	400147b7          	lui	a5,0x40014
     aac:	80078793          	addi	a5,a5,-2048 # 40013800 <_eusrstack+0x2000b800>
     ab0:	45b2                	lw	a1,12(sp)
     ab2:	02f41e63          	bne	s0,a5,aee <USART_Init+0x8a>
     ab6:	57a2                	lw	a5,40(sp)
     ab8:	4765                	li	a4,25
     aba:	02e787b3          	mul	a5,a5,a4
     abe:	4198                	lw	a4,0(a1)
     ac0:	06400693          	li	a3,100
     ac4:	070a                	slli	a4,a4,0x2
     ac6:	02e7d7b3          	divu	a5,a5,a4
     aca:	02d7d733          	divu	a4,a5,a3
     ace:	02d7f7b3          	remu	a5,a5,a3
     ad2:	0712                	slli	a4,a4,0x4
     ad4:	0792                	slli	a5,a5,0x4
     ad6:	03278793          	addi	a5,a5,50
     ada:	02d7d7b3          	divu	a5,a5,a3
     ade:	8bbd                	andi	a5,a5,15
     ae0:	8fd9                	or	a5,a5,a4
     ae2:	07c2                	slli	a5,a5,0x10
     ae4:	83c1                	srli	a5,a5,0x10
     ae6:	a41e                	sh	a5,8(s0)
     ae8:	6145                	addi	sp,sp,48
     aea:	f2aff06f          	j	214 <__riscv_restore_0>
     aee:	5792                	lw	a5,36(sp)
     af0:	b7e1                	j	ab8 <USART_Init+0x54>

00000af2 <USART_Cmd>:
     af2:	c591                	beqz	a1,afe <USART_Cmd+0xc>
     af4:	255e                	lhu	a5,12(a0)
     af6:	6709                	lui	a4,0x2
     af8:	8fd9                	or	a5,a5,a4
     afa:	a55e                	sh	a5,12(a0)
     afc:	8082                	ret
     afe:	255a                	lhu	a4,12(a0)
     b00:	77f9                	lui	a5,0xffffe
     b02:	17fd                	addi	a5,a5,-1
     b04:	8ff9                	and	a5,a5,a4
     b06:	bfd5                	j	afa <USART_Cmd+0x8>

00000b08 <USART_SendData>:
     b08:	1ff5f593          	andi	a1,a1,511
     b0c:	a14e                	sh	a1,4(a0)
     b0e:	8082                	ret

00000b10 <USART_GetFlagStatus>:
     b10:	210a                	lhu	a0,0(a0)
     b12:	8d6d                	and	a0,a0,a1
     b14:	00a03533          	snez	a0,a0
     b18:	8082                	ret

00000b1a <SOFT_I2C_R_SDA>:
     b1a:	ed6ff2ef          	jal	t0,1f0 <__riscv_save_0>
     b1e:	40011537          	lui	a0,0x40011
     b22:	02000593          	li	a1,32
     b26:	80050513          	addi	a0,a0,-2048 # 40010800 <_eusrstack+0x20008800>
     b2a:	3931                	jal	746 <GPIO_ReadInputDataBit>
     b2c:	00a03533          	snez	a0,a0
     b30:	ee4ff06f          	j	214 <__riscv_restore_0>

00000b34 <RCCdelay_us>:
     b34:	04800793          	li	a5,72
     b38:	02f50533          	mul	a0,a0,a5
     b3c:	1141                	addi	sp,sp,-16
     b3e:	810d                	srli	a0,a0,0x3
     b40:	c62a                	sw	a0,12(sp)
     b42:	0001                	nop
     b44:	47b2                	lw	a5,12(sp)
     b46:	fff78713          	addi	a4,a5,-1 # ffffdfff <_eusrstack+0xdfff5fff>
     b4a:	c63a                	sw	a4,12(sp)
     b4c:	fbfd                	bnez	a5,b42 <RCCdelay_us+0xe>
     b4e:	0141                	addi	sp,sp,16
     b50:	8082                	ret

00000b52 <SOFT_I2C_W_SCL>:
     b52:	e9eff2ef          	jal	t0,1f0 <__riscv_save_0>
     b56:	842a                	mv	s0,a0
     b58:	45c1                	li	a1,16
     b5a:	cd01                	beqz	a0,b72 <SOFT_I2C_W_SCL+0x20>
     b5c:	40011537          	lui	a0,0x40011
     b60:	80050513          	addi	a0,a0,-2048 # 40010800 <_eusrstack+0x20008800>
     b64:	36f5                	jal	750 <GPIO_SetBits>
     b66:	4515                	li	a0,5
     b68:	8081a423          	sw	s0,-2040(gp) # 200000d0 <SCL_bit>
     b6c:	37e1                	jal	b34 <RCCdelay_us>
     b6e:	ea6ff06f          	j	214 <__riscv_restore_0>
     b72:	40011537          	lui	a0,0x40011
     b76:	80050513          	addi	a0,a0,-2048 # 40010800 <_eusrstack+0x20008800>
     b7a:	3ee9                	jal	754 <GPIO_ResetBits>
     b7c:	b7ed                	j	b66 <SOFT_I2C_W_SCL+0x14>

00000b7e <SOFT_I2C_W_SDA>:
     b7e:	e72ff2ef          	jal	t0,1f0 <__riscv_save_0>
     b82:	842a                	mv	s0,a0
     b84:	02000593          	li	a1,32
     b88:	cd01                	beqz	a0,ba0 <SOFT_I2C_W_SDA+0x22>
     b8a:	40011537          	lui	a0,0x40011
     b8e:	80050513          	addi	a0,a0,-2048 # 40010800 <_eusrstack+0x20008800>
     b92:	3e7d                	jal	750 <GPIO_SetBits>
     b94:	4515                	li	a0,5
     b96:	8081a623          	sw	s0,-2036(gp) # 200000d4 <SDA_bit>
     b9a:	3f69                	jal	b34 <RCCdelay_us>
     b9c:	e78ff06f          	j	214 <__riscv_restore_0>
     ba0:	40011537          	lui	a0,0x40011
     ba4:	80050513          	addi	a0,a0,-2048 # 40010800 <_eusrstack+0x20008800>
     ba8:	3675                	jal	754 <GPIO_ResetBits>
     baa:	b7ed                	j	b94 <SOFT_I2C_W_SDA+0x16>

00000bac <SOFT_I2C_Start>:
     bac:	e44ff2ef          	jal	t0,1f0 <__riscv_save_0>
     bb0:	4505                	li	a0,1
     bb2:	37f1                	jal	b7e <SOFT_I2C_W_SDA>
     bb4:	80c18493          	addi	s1,gp,-2036 # 200000d4 <SDA_bit>
     bb8:	4905                	li	s2,1
     bba:	4505                	li	a0,1
     bbc:	0124a023          	sw	s2,0(s1) # 20000000 <_data_vma>
     bc0:	3f49                	jal	b52 <SOFT_I2C_W_SCL>
     bc2:	80818413          	addi	s0,gp,-2040 # 200000d0 <SCL_bit>
     bc6:	4501                	li	a0,0
     bc8:	01242023          	sw	s2,0(s0)
     bcc:	3f4d                	jal	b7e <SOFT_I2C_W_SDA>
     bce:	4501                	li	a0,0
     bd0:	0004a023          	sw	zero,0(s1)
     bd4:	3fbd                	jal	b52 <SOFT_I2C_W_SCL>
     bd6:	00042023          	sw	zero,0(s0)
     bda:	e3aff06f          	j	214 <__riscv_restore_0>

00000bde <SOFT_I2C_Stop>:
     bde:	e12ff2ef          	jal	t0,1f0 <__riscv_save_0>
     be2:	4501                	li	a0,0
     be4:	3f69                	jal	b7e <SOFT_I2C_W_SDA>
     be6:	80c18413          	addi	s0,gp,-2036 # 200000d4 <SDA_bit>
     bea:	4505                	li	a0,1
     bec:	00042023          	sw	zero,0(s0)
     bf0:	378d                	jal	b52 <SOFT_I2C_W_SCL>
     bf2:	4485                	li	s1,1
     bf4:	4505                	li	a0,1
     bf6:	8091a423          	sw	s1,-2040(gp) # 200000d0 <SCL_bit>
     bfa:	3751                	jal	b7e <SOFT_I2C_W_SDA>
     bfc:	c004                	sw	s1,0(s0)
     bfe:	e16ff06f          	j	214 <__riscv_restore_0>

00000c02 <SOFT_I2C_SendByte>:
     c02:	dd4ff2ef          	jal	t0,1d6 <__riscv_save_4>
     c06:	8aaa                	mv	s5,a0
     c08:	4401                	li	s0,0
     c0a:	08000b13          	li	s6,128
     c0e:	4921                	li	s2,8
     c10:	408b54b3          	sra	s1,s6,s0
     c14:	0154f4b3          	and	s1,s1,s5
     c18:	8526                	mv	a0,s1
     c1a:	3795                	jal	b7e <SOFT_I2C_W_SDA>
     c1c:	4505                	li	a0,1
     c1e:	8091a623          	sw	s1,-2036(gp) # 200000d4 <SDA_bit>
     c22:	3f05                	jal	b52 <SOFT_I2C_W_SCL>
     c24:	80818493          	addi	s1,gp,-2040 # 200000d0 <SCL_bit>
     c28:	4785                	li	a5,1
     c2a:	4501                	li	a0,0
     c2c:	c09c                	sw	a5,0(s1)
     c2e:	0405                	addi	s0,s0,1
     c30:	370d                	jal	b52 <SOFT_I2C_W_SCL>
     c32:	0004a023          	sw	zero,0(s1)
     c36:	fd241de3          	bne	s0,s2,c10 <SOFT_I2C_SendByte+0xe>
     c3a:	dd0ff06f          	j	20a <__riscv_restore_4>

00000c3e <SOFT_I2C_ReceiveByte>:
     c3e:	d98ff2ef          	jal	t0,1d6 <__riscv_save_4>
     c42:	4505                	li	a0,1
     c44:	3f2d                	jal	b7e <SOFT_I2C_W_SDA>
     c46:	4705                	li	a4,1
     c48:	80e1a623          	sw	a4,-2036(gp) # 200000d4 <SDA_bit>
     c4c:	4481                	li	s1,0
     c4e:	4401                	li	s0,0
     c50:	08000b13          	li	s6,128
     c54:	4a21                	li	s4,8
     c56:	4505                	li	a0,1
     c58:	3ded                	jal	b52 <SOFT_I2C_W_SCL>
     c5a:	4985                	li	s3,1
     c5c:	8131a423          	sw	s3,-2040(gp) # 200000d0 <SCL_bit>
     c60:	3d6d                	jal	b1a <SOFT_I2C_R_SDA>
     c62:	80818a93          	addi	s5,gp,-2040 # 200000d0 <SCL_bit>
     c66:	01351763          	bne	a0,s3,c74 <SOFT_I2C_ReceiveByte+0x36>
     c6a:	409b57b3          	sra	a5,s6,s1
     c6e:	8c5d                	or	s0,s0,a5
     c70:	0ff47413          	andi	s0,s0,255
     c74:	4501                	li	a0,0
     c76:	3df1                	jal	b52 <SOFT_I2C_W_SCL>
     c78:	0485                	addi	s1,s1,1
     c7a:	000aa023          	sw	zero,0(s5)
     c7e:	fd449ce3          	bne	s1,s4,c56 <SOFT_I2C_ReceiveByte+0x18>
     c82:	8522                	mv	a0,s0
     c84:	d86ff06f          	j	20a <__riscv_restore_4>

00000c88 <SOFT_I2C_SendAck>:
     c88:	d68ff2ef          	jal	t0,1f0 <__riscv_save_0>
     c8c:	842a                	mv	s0,a0
     c8e:	3dc5                	jal	b7e <SOFT_I2C_W_SDA>
     c90:	4505                	li	a0,1
     c92:	8081a623          	sw	s0,-2036(gp) # 200000d4 <SDA_bit>
     c96:	3d75                	jal	b52 <SOFT_I2C_W_SCL>
     c98:	80818413          	addi	s0,gp,-2040 # 200000d0 <SCL_bit>
     c9c:	4785                	li	a5,1
     c9e:	4501                	li	a0,0
     ca0:	c01c                	sw	a5,0(s0)
     ca2:	3d45                	jal	b52 <SOFT_I2C_W_SCL>
     ca4:	00042023          	sw	zero,0(s0)
     ca8:	d6cff06f          	j	214 <__riscv_restore_0>

00000cac <SOFT_I2C_ReceiveAck>:
     cac:	d44ff2ef          	jal	t0,1f0 <__riscv_save_0>
     cb0:	4505                	li	a0,1
     cb2:	35f1                	jal	b7e <SOFT_I2C_W_SDA>
     cb4:	4485                	li	s1,1
     cb6:	4505                	li	a0,1
     cb8:	8091a623          	sw	s1,-2036(gp) # 200000d4 <SDA_bit>
     cbc:	80818413          	addi	s0,gp,-2040 # 200000d0 <SCL_bit>
     cc0:	3d49                	jal	b52 <SOFT_I2C_W_SCL>
     cc2:	c004                	sw	s1,0(s0)
     cc4:	3d99                	jal	b1a <SOFT_I2C_R_SDA>
     cc6:	84aa                	mv	s1,a0
     cc8:	4501                	li	a0,0
     cca:	3561                	jal	b52 <SOFT_I2C_W_SCL>
     ccc:	8526                	mv	a0,s1
     cce:	00042023          	sw	zero,0(s0)
     cd2:	d42ff06f          	j	214 <__riscv_restore_0>

00000cd6 <set_int_enable>:
     cd6:	d1aff2ef          	jal	t0,1f0 <__riscv_save_0>
     cda:	20000437          	lui	s0,0x20000
     cde:	02c40793          	addi	a5,s0,44 # 2000002c <st>
     ce2:	0247c783          	lbu	a5,36(a5)
     ce6:	1141                	addi	sp,sp,-16
     ce8:	02c40413          	addi	s0,s0,44
     cec:	c39d                	beqz	a5,d12 <set_int_enable+0x3c>
     cee:	c111                	beqz	a0,cf2 <set_int_enable+0x1c>
     cf0:	4509                	li	a0,2
     cf2:	4018                	lw	a4,0(s0)
     cf4:	405c                	lw	a5,4(s0)
     cf6:	87c8                	sb	a0,15(sp)
     cf8:	3b0c                	lbu	a1,17(a4)
     cfa:	2388                	lbu	a0,0(a5)
     cfc:	00f10693          	addi	a3,sp,15
     d00:	4605                	li	a2,1
     d02:	36e010ef          	jal	ra,2070 <MPU6050_WriteReg_HAL>
     d06:	c90d                	beqz	a0,d38 <set_int_enable+0x62>
     d08:	57fd                	li	a5,-1
     d0a:	853e                	mv	a0,a5
     d0c:	0141                	addi	sp,sp,16
     d0e:	d06ff06f          	j	214 <__riscv_restore_0>
     d12:	243c                	lbu	a5,10(s0)
     d14:	dbf5                	beqz	a5,d08 <set_int_enable+0x32>
     d16:	c50d                	beqz	a0,d40 <set_int_enable+0x6a>
     d18:	3818                	lbu	a4,17(s0)
     d1a:	4781                	li	a5,0
     d1c:	f77d                	bnez	a4,d0a <set_int_enable+0x34>
     d1e:	4785                	li	a5,1
     d20:	87dc                	sb	a5,15(sp)
     d22:	405c                	lw	a5,4(s0)
     d24:	4018                	lw	a4,0(s0)
     d26:	00f10693          	addi	a3,sp,15
     d2a:	2388                	lbu	a0,0(a5)
     d2c:	3b0c                	lbu	a1,17(a4)
     d2e:	4605                	li	a2,1
     d30:	340010ef          	jal	ra,2070 <MPU6050_WriteReg_HAL>
     d34:	57fd                	li	a5,-1
     d36:	f971                	bnez	a0,d0a <set_int_enable+0x34>
     d38:	879c                	lbu	a5,15(sp)
     d3a:	b81c                	sb	a5,17(s0)
     d3c:	4781                	li	a5,0
     d3e:	b7f1                	j	d0a <set_int_enable+0x34>
     d40:	000107a3          	sb	zero,15(sp)
     d44:	bff9                	j	d22 <set_int_enable+0x4c>

00000d46 <mpu_reset_fifo>:
     d46:	caaff2ef          	jal	t0,1f0 <__riscv_save_0>
     d4a:	20000437          	lui	s0,0x20000
     d4e:	02c40793          	addi	a5,s0,44 # 2000002c <st>
     d52:	27bc                	lbu	a5,10(a5)
     d54:	1141                	addi	sp,sp,-16
     d56:	e789                	bnez	a5,d60 <mpu_reset_fifo+0x1a>
     d58:	557d                	li	a0,-1
     d5a:	0141                	addi	sp,sp,16
     d5c:	cb8ff06f          	j	214 <__riscv_restore_0>
     d60:	02c40413          	addi	s0,s0,44
     d64:	4018                	lw	a4,0(s0)
     d66:	405c                	lw	a5,4(s0)
     d68:	000107a3          	sb	zero,15(sp)
     d6c:	3b0c                	lbu	a1,17(a4)
     d6e:	2388                	lbu	a0,0(a5)
     d70:	00f10693          	addi	a3,sp,15
     d74:	4605                	li	a2,1
     d76:	2fa010ef          	jal	ra,2070 <MPU6050_WriteReg_HAL>
     d7a:	fd79                	bnez	a0,d58 <mpu_reset_fifo+0x12>
     d7c:	4018                	lw	a4,0(s0)
     d7e:	405c                	lw	a5,4(s0)
     d80:	00f10693          	addi	a3,sp,15
     d84:	334c                	lbu	a1,5(a4)
     d86:	2388                	lbu	a0,0(a5)
     d88:	4605                	li	a2,1
     d8a:	2e6010ef          	jal	ra,2070 <MPU6050_WriteReg_HAL>
     d8e:	f569                	bnez	a0,d58 <mpu_reset_fifo+0x12>
     d90:	4018                	lw	a4,0(s0)
     d92:	405c                	lw	a5,4(s0)
     d94:	00f10693          	addi	a3,sp,15
     d98:	234c                	lbu	a1,4(a4)
     d9a:	2388                	lbu	a0,0(a5)
     d9c:	4605                	li	a2,1
     d9e:	2d2010ef          	jal	ra,2070 <MPU6050_WriteReg_HAL>
     da2:	f95d                	bnez	a0,d58 <mpu_reset_fifo+0x12>
     da4:	405c                	lw	a5,4(s0)
     da6:	2388                	lbu	a0,0(a5)
     da8:	401c                	lw	a5,0(s0)
     daa:	23cc                	lbu	a1,4(a5)
     dac:	02444783          	lbu	a5,36(s0)
     db0:	cfad                	beqz	a5,e2a <mpu_reset_fifo+0xe4>
     db2:	47b1                	li	a5,12
     db4:	00f10693          	addi	a3,sp,15
     db8:	4605                	li	a2,1
     dba:	87dc                	sb	a5,15(sp)
     dbc:	2b4010ef          	jal	ra,2070 <MPU6050_WriteReg_HAL>
     dc0:	fd41                	bnez	a0,d58 <mpu_reset_fifo+0x12>
     dc2:	03200513          	li	a0,50
     dc6:	10f010ef          	jal	ra,26d4 <Delay_Ms>
     dca:	fc000793          	li	a5,-64
     dce:	87dc                	sb	a5,15(sp)
     dd0:	243c                	lbu	a5,10(s0)
     dd2:	8b85                	andi	a5,a5,1
     dd4:	c399                	beqz	a5,dda <mpu_reset_fifo+0x94>
     dd6:	5781                	li	a5,-32
     dd8:	87dc                	sb	a5,15(sp)
     dda:	4018                	lw	a4,0(s0)
     ddc:	405c                	lw	a5,4(s0)
     dde:	00f10693          	addi	a3,sp,15
     de2:	234c                	lbu	a1,4(a4)
     de4:	2388                	lbu	a0,0(a5)
     de6:	4605                	li	a2,1
     de8:	288010ef          	jal	ra,2070 <MPU6050_WriteReg_HAL>
     dec:	f535                	bnez	a0,d58 <mpu_reset_fifo+0x12>
     dee:	381c                	lbu	a5,17(s0)
     df0:	c391                	beqz	a5,df4 <mpu_reset_fifo+0xae>
     df2:	4789                	li	a5,2
     df4:	87dc                	sb	a5,15(sp)
     df6:	4018                	lw	a4,0(s0)
     df8:	405c                	lw	a5,4(s0)
     dfa:	00f10693          	addi	a3,sp,15
     dfe:	3b0c                	lbu	a1,17(a4)
     e00:	2388                	lbu	a0,0(a5)
     e02:	4605                	li	a2,1
     e04:	26c010ef          	jal	ra,2070 <MPU6050_WriteReg_HAL>
     e08:	f921                	bnez	a0,d58 <mpu_reset_fifo+0x12>
     e0a:	4018                	lw	a4,0(s0)
     e0c:	405c                	lw	a5,4(s0)
     e0e:	000107a3          	sb	zero,15(sp)
     e12:	00f10693          	addi	a3,sp,15
     e16:	334c                	lbu	a1,5(a4)
     e18:	2388                	lbu	a0,0(a5)
     e1a:	4605                	li	a2,1
     e1c:	254010ef          	jal	ra,2070 <MPU6050_WriteReg_HAL>
     e20:	00a03533          	snez	a0,a0
     e24:	40a00533          	neg	a0,a0
     e28:	bf0d                	j	d5a <mpu_reset_fifo+0x14>
     e2a:	4791                	li	a5,4
     e2c:	00f10693          	addi	a3,sp,15
     e30:	4605                	li	a2,1
     e32:	87dc                	sb	a5,15(sp)
     e34:	23c010ef          	jal	ra,2070 <MPU6050_WriteReg_HAL>
     e38:	f20510e3          	bnez	a0,d58 <mpu_reset_fifo+0x12>
     e3c:	283c                	lbu	a5,18(s0)
     e3e:	04000713          	li	a4,64
     e42:	e791                	bnez	a5,e4e <mpu_reset_fifo+0x108>
     e44:	243c                	lbu	a5,10(s0)
     e46:	8b85                	andi	a5,a5,1
     e48:	c399                	beqz	a5,e4e <mpu_reset_fifo+0x108>
     e4a:	06000713          	li	a4,96
     e4e:	87d8                	sb	a4,15(sp)
     e50:	405c                	lw	a5,4(s0)
     e52:	4018                	lw	a4,0(s0)
     e54:	00f10693          	addi	a3,sp,15
     e58:	2388                	lbu	a0,0(a5)
     e5a:	234c                	lbu	a1,4(a4)
     e5c:	4605                	li	a2,1
     e5e:	212010ef          	jal	ra,2070 <MPU6050_WriteReg_HAL>
     e62:	ee051be3          	bnez	a0,d58 <mpu_reset_fifo+0x12>
     e66:	03200513          	li	a0,50
     e6a:	06b010ef          	jal	ra,26d4 <Delay_Ms>
     e6e:	381c                	lbu	a5,17(s0)
     e70:	4018                	lw	a4,0(s0)
     e72:	00f10693          	addi	a3,sp,15
     e76:	00f037b3          	snez	a5,a5
     e7a:	87dc                	sb	a5,15(sp)
     e7c:	405c                	lw	a5,4(s0)
     e7e:	3b0c                	lbu	a1,17(a4)
     e80:	4605                	li	a2,1
     e82:	2388                	lbu	a0,0(a5)
     e84:	1ec010ef          	jal	ra,2070 <MPU6050_WriteReg_HAL>
     e88:	ec0518e3          	bnez	a0,d58 <mpu_reset_fifo+0x12>
     e8c:	4018                	lw	a4,0(s0)
     e8e:	405c                	lw	a5,4(s0)
     e90:	01040693          	addi	a3,s0,16
     e94:	b749                	j	e16 <mpu_reset_fifo+0xd0>

00000e96 <mpu_set_gyro_fsr>:
     e96:	b5aff2ef          	jal	t0,1f0 <__riscv_save_0>
     e9a:	20000437          	lui	s0,0x20000
     e9e:	02c40793          	addi	a5,s0,44 # 2000002c <st>
     ea2:	27bc                	lbu	a5,10(a5)
     ea4:	1141                	addi	sp,sp,-16
     ea6:	e789                	bnez	a5,eb0 <mpu_set_gyro_fsr+0x1a>
     ea8:	557d                	li	a0,-1
     eaa:	0141                	addi	sp,sp,16
     eac:	b68ff06f          	j	214 <__riscv_restore_0>
     eb0:	1f400793          	li	a5,500
     eb4:	02c40413          	addi	s0,s0,44
     eb8:	04f50863          	beq	a0,a5,f08 <mpu_set_gyro_fsr+0x72>
     ebc:	02a7ec63          	bltu	a5,a0,ef4 <mpu_set_gyro_fsr+0x5e>
     ec0:	0fa00793          	li	a5,250
     ec4:	fef512e3          	bne	a0,a5,ea8 <mpu_set_gyro_fsr+0x12>
     ec8:	000107a3          	sb	zero,15(sp)
     ecc:	879c                	lbu	a5,15(sp)
     ece:	2418                	lbu	a4,8(s0)
     ed0:	4501                	li	a0,0
     ed2:	838d                	srli	a5,a5,0x3
     ed4:	fcf70be3          	beq	a4,a5,eaa <mpu_set_gyro_fsr+0x14>
     ed8:	4018                	lw	a4,0(s0)
     eda:	405c                	lw	a5,4(s0)
     edc:	00f10693          	addi	a3,sp,15
     ee0:	236c                	lbu	a1,6(a4)
     ee2:	2388                	lbu	a0,0(a5)
     ee4:	4605                	li	a2,1
     ee6:	18a010ef          	jal	ra,2070 <MPU6050_WriteReg_HAL>
     eea:	fd5d                	bnez	a0,ea8 <mpu_set_gyro_fsr+0x12>
     eec:	879c                	lbu	a5,15(sp)
     eee:	838d                	srli	a5,a5,0x3
     ef0:	a41c                	sb	a5,8(s0)
     ef2:	bf65                	j	eaa <mpu_set_gyro_fsr+0x14>
     ef4:	3e800793          	li	a5,1000
     ef8:	00f50b63          	beq	a0,a5,f0e <mpu_set_gyro_fsr+0x78>
     efc:	7d000793          	li	a5,2000
     f00:	faf514e3          	bne	a0,a5,ea8 <mpu_set_gyro_fsr+0x12>
     f04:	47e1                	li	a5,24
     f06:	a011                	j	f0a <mpu_set_gyro_fsr+0x74>
     f08:	47a1                	li	a5,8
     f0a:	87dc                	sb	a5,15(sp)
     f0c:	b7c1                	j	ecc <mpu_set_gyro_fsr+0x36>
     f0e:	47c1                	li	a5,16
     f10:	bfed                	j	f0a <mpu_set_gyro_fsr+0x74>

00000f12 <mpu_get_accel_fsr>:
     f12:	20000737          	lui	a4,0x20000
     f16:	02c70693          	addi	a3,a4,44 # 2000002c <st>
     f1a:	3694                	lbu	a3,9(a3)
     f1c:	4605                	li	a2,1
     f1e:	87aa                	mv	a5,a0
     f20:	02c70713          	addi	a4,a4,44
     f24:	02c68463          	beq	a3,a2,f4c <mpu_get_accel_fsr+0x3a>
     f28:	ca89                	beqz	a3,f3a <mpu_get_accel_fsr+0x28>
     f2a:	4609                	li	a2,2
     f2c:	02c68263          	beq	a3,a2,f50 <mpu_get_accel_fsr+0x3e>
     f30:	460d                	li	a2,3
     f32:	02c68163          	beq	a3,a2,f54 <mpu_get_accel_fsr+0x42>
     f36:	557d                	li	a0,-1
     f38:	8082                	ret
     f3a:	4689                	li	a3,2
     f3c:	a394                	sb	a3,0(a5)
     f3e:	3b38                	lbu	a4,19(a4)
     f40:	4501                	li	a0,0
     f42:	c701                	beqz	a4,f4a <mpu_get_accel_fsr+0x38>
     f44:	2398                	lbu	a4,0(a5)
     f46:	0706                	slli	a4,a4,0x1
     f48:	a398                	sb	a4,0(a5)
     f4a:	8082                	ret
     f4c:	4691                	li	a3,4
     f4e:	b7fd                	j	f3c <mpu_get_accel_fsr+0x2a>
     f50:	46a1                	li	a3,8
     f52:	b7ed                	j	f3c <mpu_get_accel_fsr+0x2a>
     f54:	46c1                	li	a3,16
     f56:	b7dd                	j	f3c <mpu_get_accel_fsr+0x2a>

00000f58 <mpu_set_accel_fsr>:
     f58:	a98ff2ef          	jal	t0,1f0 <__riscv_save_0>
     f5c:	20000437          	lui	s0,0x20000
     f60:	02c40793          	addi	a5,s0,44 # 2000002c <st>
     f64:	27bc                	lbu	a5,10(a5)
     f66:	1141                	addi	sp,sp,-16
     f68:	e789                	bnez	a5,f72 <mpu_set_accel_fsr+0x1a>
     f6a:	557d                	li	a0,-1
     f6c:	0141                	addi	sp,sp,16
     f6e:	aa6ff06f          	j	214 <__riscv_restore_0>
     f72:	4791                	li	a5,4
     f74:	02c40413          	addi	s0,s0,44
     f78:	04f50563          	beq	a0,a5,fc2 <mpu_set_accel_fsr+0x6a>
     f7c:	02a7eb63          	bltu	a5,a0,fb2 <mpu_set_accel_fsr+0x5a>
     f80:	4789                	li	a5,2
     f82:	fef514e3          	bne	a0,a5,f6a <mpu_set_accel_fsr+0x12>
     f86:	000107a3          	sb	zero,15(sp)
     f8a:	879c                	lbu	a5,15(sp)
     f8c:	3418                	lbu	a4,9(s0)
     f8e:	4501                	li	a0,0
     f90:	838d                	srli	a5,a5,0x3
     f92:	fcf70de3          	beq	a4,a5,f6c <mpu_set_accel_fsr+0x14>
     f96:	4018                	lw	a4,0(s0)
     f98:	405c                	lw	a5,4(s0)
     f9a:	00f10693          	addi	a3,sp,15
     f9e:	336c                	lbu	a1,7(a4)
     fa0:	2388                	lbu	a0,0(a5)
     fa2:	4605                	li	a2,1
     fa4:	0cc010ef          	jal	ra,2070 <MPU6050_WriteReg_HAL>
     fa8:	f169                	bnez	a0,f6a <mpu_set_accel_fsr+0x12>
     faa:	879c                	lbu	a5,15(sp)
     fac:	838d                	srli	a5,a5,0x3
     fae:	b41c                	sb	a5,9(s0)
     fb0:	bf75                	j	f6c <mpu_set_accel_fsr+0x14>
     fb2:	47a1                	li	a5,8
     fb4:	00f50a63          	beq	a0,a5,fc8 <mpu_set_accel_fsr+0x70>
     fb8:	47c1                	li	a5,16
     fba:	faf518e3          	bne	a0,a5,f6a <mpu_set_accel_fsr+0x12>
     fbe:	47e1                	li	a5,24
     fc0:	a011                	j	fc4 <mpu_set_accel_fsr+0x6c>
     fc2:	47a1                	li	a5,8
     fc4:	87dc                	sb	a5,15(sp)
     fc6:	b7d1                	j	f8a <mpu_set_accel_fsr+0x32>
     fc8:	47c1                	li	a5,16
     fca:	bfed                	j	fc4 <mpu_set_accel_fsr+0x6c>

00000fcc <mpu_set_lpf>:
     fcc:	a24ff2ef          	jal	t0,1f0 <__riscv_save_0>
     fd0:	20000437          	lui	s0,0x20000
     fd4:	02c40793          	addi	a5,s0,44 # 2000002c <st>
     fd8:	27bc                	lbu	a5,10(a5)
     fda:	1141                	addi	sp,sp,-16
     fdc:	e789                	bnez	a5,fe6 <mpu_set_lpf+0x1a>
     fde:	557d                	li	a0,-1
     fe0:	0141                	addi	sp,sp,16
     fe2:	a32ff06f          	j	214 <__riscv_restore_0>
     fe6:	0bb00793          	li	a5,187
     fea:	02c40413          	addi	s0,s0,44
     fee:	02a7f663          	bgeu	a5,a0,101a <mpu_set_lpf+0x4e>
     ff2:	4785                	li	a5,1
     ff4:	87dc                	sb	a5,15(sp)
     ff6:	3438                	lbu	a4,11(s0)
     ff8:	879c                	lbu	a5,15(sp)
     ffa:	4501                	li	a0,0
     ffc:	fef702e3          	beq	a4,a5,fe0 <mpu_set_lpf+0x14>
    1000:	4018                	lw	a4,0(s0)
    1002:	405c                	lw	a5,4(s0)
    1004:	00f10693          	addi	a3,sp,15
    1008:	232c                	lbu	a1,2(a4)
    100a:	2388                	lbu	a0,0(a5)
    100c:	4605                	li	a2,1
    100e:	062010ef          	jal	ra,2070 <MPU6050_WriteReg_HAL>
    1012:	f571                	bnez	a0,fde <mpu_set_lpf+0x12>
    1014:	879c                	lbu	a5,15(sp)
    1016:	b43c                	sb	a5,11(s0)
    1018:	b7e1                	j	fe0 <mpu_set_lpf+0x14>
    101a:	06100793          	li	a5,97
    101e:	00a7f463          	bgeu	a5,a0,1026 <mpu_set_lpf+0x5a>
    1022:	4789                	li	a5,2
    1024:	bfc1                	j	ff4 <mpu_set_lpf+0x28>
    1026:	02900793          	li	a5,41
    102a:	00a7f463          	bgeu	a5,a0,1032 <mpu_set_lpf+0x66>
    102e:	478d                	li	a5,3
    1030:	b7d1                	j	ff4 <mpu_set_lpf+0x28>
    1032:	47cd                	li	a5,19
    1034:	00a7f463          	bgeu	a5,a0,103c <mpu_set_lpf+0x70>
    1038:	4791                	li	a5,4
    103a:	bf6d                	j	ff4 <mpu_set_lpf+0x28>
    103c:	47a5                	li	a5,9
    103e:	00a7f463          	bgeu	a5,a0,1046 <mpu_set_lpf+0x7a>
    1042:	4795                	li	a5,5
    1044:	bf45                	j	ff4 <mpu_set_lpf+0x28>
    1046:	4799                	li	a5,6
    1048:	b775                	j	ff4 <mpu_set_lpf+0x28>

0000104a <mpu_configure_fifo>:
    104a:	98cff2ef          	jal	t0,1d6 <__riscv_save_4>
    104e:	20000437          	lui	s0,0x20000
    1052:	02c40413          	addi	s0,s0,44 # 2000002c <st>
    1056:	02444783          	lbu	a5,36(s0)
    105a:	4901                	li	s2,0
    105c:	ef8d                	bnez	a5,1096 <mpu_configure_fifo+0x4c>
    105e:	243c                	lbu	a5,10(s0)
    1060:	597d                	li	s2,-1
    1062:	cb95                	beqz	a5,1096 <mpu_configure_fifo+0x4c>
    1064:	0fe57493          	andi	s1,a0,254
    1068:	8fe5                	and	a5,a5,s1
    106a:	01044983          	lbu	s3,16(s0)
    106e:	a81c                	sb	a5,16(s0)
    1070:	8f85                	sub	a5,a5,s1
    1072:	00f037b3          	snez	a5,a5
    1076:	40f00933          	neg	s2,a5
    107a:	285c                	lbu	a5,20(s0)
    107c:	8fc5                	or	a5,a5,s1
    107e:	cb91                	beqz	a5,1092 <mpu_configure_fifo+0x48>
    1080:	4505                	li	a0,1
    1082:	3991                	jal	cd6 <set_int_enable>
    1084:	c889                	beqz	s1,1096 <mpu_configure_fifo+0x4c>
    1086:	31c1                	jal	d46 <mpu_reset_fifo>
    1088:	c519                	beqz	a0,1096 <mpu_configure_fifo+0x4c>
    108a:	01340823          	sb	s3,16(s0)
    108e:	597d                	li	s2,-1
    1090:	a019                	j	1096 <mpu_configure_fifo+0x4c>
    1092:	4501                	li	a0,0
    1094:	3189                	jal	cd6 <set_int_enable>
    1096:	854a                	mv	a0,s2
    1098:	972ff06f          	j	20a <__riscv_restore_4>

0000109c <mpu_read_fifo_stream>:
    109c:	93aff2ef          	jal	t0,1d6 <__riscv_save_4>
    10a0:	200009b7          	lui	s3,0x20000
    10a4:	02c98493          	addi	s1,s3,44 # 2000002c <st>
    10a8:	0244c783          	lbu	a5,36(s1)
    10ac:	1141                	addi	sp,sp,-16
    10ae:	e789                	bnez	a5,10b8 <mpu_read_fifo_stream+0x1c>
    10b0:	557d                	li	a0,-1
    10b2:	0141                	addi	sp,sp,16
    10b4:	956ff06f          	j	20a <__riscv_restore_4>
    10b8:	24bc                	lbu	a5,10(s1)
    10ba:	dbfd                	beqz	a5,10b0 <mpu_read_fifo_stream+0x14>
    10bc:	4098                	lw	a4,0(s1)
    10be:	40dc                	lw	a5,4(s1)
    10c0:	8aae                	mv	s5,a1
    10c2:	892a                	mv	s2,a0
    10c4:	274c                	lbu	a1,12(a4)
    10c6:	2388                	lbu	a0,0(a5)
    10c8:	8a32                	mv	s4,a2
    10ca:	0074                	addi	a3,sp,12
    10cc:	4609                	li	a2,2
    10ce:	00c010ef          	jal	ra,20da <MPU6050_ReadReg_HAL>
    10d2:	fd79                	bnez	a0,10b0 <mpu_read_fifo_stream+0x14>
    10d4:	861c                	lbu	a5,12(sp)
    10d6:	8680                	lbu	s0,13(sp)
    10d8:	07a2                	slli	a5,a5,0x8
    10da:	8c5d                	or	s0,s0,a5
    10dc:	01247563          	bgeu	s0,s2,10e6 <mpu_read_fifo_stream+0x4a>
    10e0:	000a0023          	sb	zero,0(s4)
    10e4:	b7f1                	j	10b0 <mpu_read_fifo_stream+0x14>
    10e6:	40d8                	lw	a4,4(s1)
    10e8:	02c98993          	addi	s3,s3,44
    10ec:	233e                	lhu	a5,2(a4)
    10ee:	8385                	srli	a5,a5,0x1
    10f0:	0287f063          	bgeu	a5,s0,1110 <mpu_read_fifo_stream+0x74>
    10f4:	409c                	lw	a5,0(s1)
    10f6:	2308                	lbu	a0,0(a4)
    10f8:	0074                	addi	a3,sp,12
    10fa:	3bac                	lbu	a1,19(a5)
    10fc:	4605                	li	a2,1
    10fe:	7dd000ef          	jal	ra,20da <MPU6050_ReadReg_HAL>
    1102:	f55d                	bnez	a0,10b0 <mpu_read_fifo_stream+0x14>
    1104:	861c                	lbu	a5,12(sp)
    1106:	8bc1                	andi	a5,a5,16
    1108:	c781                	beqz	a5,1110 <mpu_read_fifo_stream+0x74>
    110a:	3935                	jal	d46 <mpu_reset_fifo>
    110c:	5579                	li	a0,-2
    110e:	b755                	j	10b2 <mpu_read_fifo_stream+0x16>
    1110:	0009a703          	lw	a4,0(s3)
    1114:	0049a783          	lw	a5,4(s3)
    1118:	86d6                	mv	a3,s5
    111a:	374c                	lbu	a1,13(a4)
    111c:	2388                	lbu	a0,0(a5)
    111e:	0ff97613          	andi	a2,s2,255
    1122:	7b9000ef          	jal	ra,20da <MPU6050_ReadReg_HAL>
    1126:	f549                	bnez	a0,10b0 <mpu_read_fifo_stream+0x14>
    1128:	03245433          	divu	s0,s0,s2
    112c:	147d                	addi	s0,s0,-1
    112e:	008a0023          	sb	s0,0(s4)
    1132:	b741                	j	10b2 <mpu_read_fifo_stream+0x16>

00001134 <mpu_set_bypass>:
    1134:	8bcff2ef          	jal	t0,1f0 <__riscv_save_0>
    1138:	20000437          	lui	s0,0x20000
    113c:	02c40793          	addi	a5,s0,44 # 2000002c <st>
    1140:	2bbc                	lbu	a5,18(a5)
    1142:	1141                	addi	sp,sp,-16
    1144:	0ca78263          	beq	a5,a0,1208 <mpu_set_bypass+0xd4>
    1148:	02c40413          	addi	s0,s0,44
    114c:	405c                	lw	a5,4(s0)
    114e:	84aa                	mv	s1,a0
    1150:	00f10693          	addi	a3,sp,15
    1154:	2388                	lbu	a0,0(a5)
    1156:	401c                	lw	a5,0(s0)
    1158:	4605                	li	a2,1
    115a:	23cc                	lbu	a1,4(a5)
    115c:	c8a9                	beqz	s1,11ae <mpu_set_bypass+0x7a>
    115e:	77d000ef          	jal	ra,20da <MPU6050_ReadReg_HAL>
    1162:	c509                	beqz	a0,116c <mpu_set_bypass+0x38>
    1164:	557d                	li	a0,-1
    1166:	0141                	addi	sp,sp,16
    1168:	8acff06f          	j	214 <__riscv_restore_0>
    116c:	879c                	lbu	a5,15(sp)
    116e:	4018                	lw	a4,0(s0)
    1170:	00f10693          	addi	a3,sp,15
    1174:	fdf7f793          	andi	a5,a5,-33
    1178:	87dc                	sb	a5,15(sp)
    117a:	405c                	lw	a5,4(s0)
    117c:	234c                	lbu	a1,4(a4)
    117e:	4605                	li	a2,1
    1180:	2388                	lbu	a0,0(a5)
    1182:	6ef000ef          	jal	ra,2070 <MPU6050_WriteReg_HAL>
    1186:	fd79                	bnez	a0,1164 <mpu_set_bypass+0x30>
    1188:	450d                	li	a0,3
    118a:	54a010ef          	jal	ra,26d4 <Delay_Ms>
    118e:	4789                	li	a5,2
    1190:	87dc                	sb	a5,15(sp)
    1192:	02244783          	lbu	a5,34(s0)
    1196:	c781                	beqz	a5,119e <mpu_set_bypass+0x6a>
    1198:	f8200793          	li	a5,-126
    119c:	87dc                	sb	a5,15(sp)
    119e:	02344783          	lbu	a5,35(s0)
    11a2:	cba1                	beqz	a5,11f2 <mpu_set_bypass+0xbe>
    11a4:	879c                	lbu	a5,15(sp)
    11a6:	0307e793          	ori	a5,a5,48
    11aa:	87dc                	sb	a5,15(sp)
    11ac:	a099                	j	11f2 <mpu_set_bypass+0xbe>
    11ae:	72d000ef          	jal	ra,20da <MPU6050_ReadReg_HAL>
    11b2:	f94d                	bnez	a0,1164 <mpu_set_bypass+0x30>
    11b4:	243c                	lbu	a5,10(s0)
    11b6:	8794                	lbu	a3,15(sp)
    11b8:	8b85                	andi	a5,a5,1
    11ba:	0df6f713          	andi	a4,a3,223
    11be:	c399                	beqz	a5,11c4 <mpu_set_bypass+0x90>
    11c0:	0206e713          	ori	a4,a3,32
    11c4:	87d8                	sb	a4,15(sp)
    11c6:	405c                	lw	a5,4(s0)
    11c8:	4018                	lw	a4,0(s0)
    11ca:	00f10693          	addi	a3,sp,15
    11ce:	2388                	lbu	a0,0(a5)
    11d0:	234c                	lbu	a1,4(a4)
    11d2:	4605                	li	a2,1
    11d4:	69d000ef          	jal	ra,2070 <MPU6050_WriteReg_HAL>
    11d8:	f551                	bnez	a0,1164 <mpu_set_bypass+0x30>
    11da:	450d                	li	a0,3
    11dc:	4f8010ef          	jal	ra,26d4 <Delay_Ms>
    11e0:	02244783          	lbu	a5,34(s0)
    11e4:	c399                	beqz	a5,11ea <mpu_set_bypass+0xb6>
    11e6:	08000793          	li	a5,128
    11ea:	02344703          	lbu	a4,35(s0)
    11ee:	87dc                	sb	a5,15(sp)
    11f0:	fb5d                	bnez	a4,11a6 <mpu_set_bypass+0x72>
    11f2:	4018                	lw	a4,0(s0)
    11f4:	405c                	lw	a5,4(s0)
    11f6:	00f10693          	addi	a3,sp,15
    11fa:	3b6c                	lbu	a1,23(a4)
    11fc:	2388                	lbu	a0,0(a5)
    11fe:	4605                	li	a2,1
    1200:	671000ef          	jal	ra,2070 <MPU6050_WriteReg_HAL>
    1204:	f125                	bnez	a0,1164 <mpu_set_bypass+0x30>
    1206:	a824                	sb	s1,18(s0)
    1208:	4501                	li	a0,0
    120a:	bfb1                	j	1166 <mpu_set_bypass+0x32>

0000120c <mpu_set_int_latched>:
    120c:	fe5fe2ef          	jal	t0,1f0 <__riscv_save_0>
    1210:	20000437          	lui	s0,0x20000
    1214:	02c40793          	addi	a5,s0,44 # 2000002c <st>
    1218:	0237c783          	lbu	a5,35(a5)
    121c:	1141                	addi	sp,sp,-16
    121e:	04a78363          	beq	a5,a0,1264 <mpu_set_int_latched+0x58>
    1222:	02c40413          	addi	s0,s0,44
    1226:	4781                	li	a5,0
    1228:	c119                	beqz	a0,122e <mpu_set_int_latched+0x22>
    122a:	03000793          	li	a5,48
    122e:	2838                	lbu	a4,18(s0)
    1230:	87dc                	sb	a5,15(sp)
    1232:	c701                	beqz	a4,123a <mpu_set_int_latched+0x2e>
    1234:	0027e793          	ori	a5,a5,2
    1238:	87dc                	sb	a5,15(sp)
    123a:	02244783          	lbu	a5,34(s0)
    123e:	c789                	beqz	a5,1248 <mpu_set_int_latched+0x3c>
    1240:	879c                	lbu	a5,15(sp)
    1242:	f807e793          	ori	a5,a5,-128
    1246:	87dc                	sb	a5,15(sp)
    1248:	405c                	lw	a5,4(s0)
    124a:	4018                	lw	a4,0(s0)
    124c:	84aa                	mv	s1,a0
    124e:	2388                	lbu	a0,0(a5)
    1250:	3b6c                	lbu	a1,23(a4)
    1252:	00f10693          	addi	a3,sp,15
    1256:	4605                	li	a2,1
    1258:	619000ef          	jal	ra,2070 <MPU6050_WriteReg_HAL>
    125c:	57fd                	li	a5,-1
    125e:	e501                	bnez	a0,1266 <mpu_set_int_latched+0x5a>
    1260:	029401a3          	sb	s1,35(s0)
    1264:	4781                	li	a5,0
    1266:	853e                	mv	a0,a5
    1268:	0141                	addi	sp,sp,16
    126a:	fabfe06f          	j	214 <__riscv_restore_0>

0000126e <mpu_lp_accel_mode>:
    126e:	02800793          	li	a5,40
    1272:	00a7f563          	bgeu	a5,a0,127c <mpu_lp_accel_mode+0xe>
    1276:	57fd                	li	a5,-1
    1278:	853e                	mv	a0,a5
    127a:	8082                	ret
    127c:	f75fe2ef          	jal	t0,1f0 <__riscv_save_0>
    1280:	20000437          	lui	s0,0x20000
    1284:	1141                	addi	sp,sp,-16
    1286:	84aa                	mv	s1,a0
    1288:	02c40413          	addi	s0,s0,44 # 2000002c <st>
    128c:	e515                	bnez	a0,12b8 <mpu_lp_accel_mode+0x4a>
    128e:	3fbd                	jal	120c <mpu_set_int_latched>
    1290:	70000793          	li	a5,1792
    1294:	867c                	sh	a5,12(sp)
    1296:	4018                	lw	a4,0(s0)
    1298:	405c                	lw	a5,4(s0)
    129a:	0074                	addi	a3,sp,12
    129c:	3b4c                	lbu	a1,21(a4)
    129e:	2388                	lbu	a0,0(a5)
    12a0:	4609                	li	a2,2
    12a2:	5cf000ef          	jal	ra,2070 <MPU6050_WriteReg_HAL>
    12a6:	57fd                	li	a5,-1
    12a8:	e501                	bnez	a0,12b0 <mpu_lp_accel_mode+0x42>
    12aa:	00040a23          	sb	zero,20(s0)
    12ae:	4781                	li	a5,0
    12b0:	853e                	mv	a0,a5
    12b2:	0141                	addi	sp,sp,16
    12b4:	f61fe06f          	j	214 <__riscv_restore_0>
    12b8:	4505                	li	a0,1
    12ba:	3f89                	jal	120c <mpu_set_int_latched>
    12bc:	02000793          	li	a5,32
    12c0:	865c                	sb	a5,12(sp)
    12c2:	4785                	li	a5,1
    12c4:	02f49d63          	bne	s1,a5,12fe <mpu_lp_accel_mode+0x90>
    12c8:	000106a3          	sb	zero,13(sp)
    12cc:	4515                	li	a0,5
    12ce:	39fd                	jal	fcc <mpu_set_lpf>
    12d0:	869c                	lbu	a5,13(sp)
    12d2:	4018                	lw	a4,0(s0)
    12d4:	0074                	addi	a3,sp,12
    12d6:	079a                	slli	a5,a5,0x6
    12d8:	0077e793          	ori	a5,a5,7
    12dc:	86dc                	sb	a5,13(sp)
    12de:	405c                	lw	a5,4(s0)
    12e0:	3b4c                	lbu	a1,21(a4)
    12e2:	4609                	li	a2,2
    12e4:	2388                	lbu	a0,0(a5)
    12e6:	58b000ef          	jal	ra,2070 <MPU6050_WriteReg_HAL>
    12ea:	57fd                	li	a5,-1
    12ec:	f171                	bnez	a0,12b0 <mpu_lp_accel_mode+0x42>
    12ee:	47a1                	li	a5,8
    12f0:	a43c                	sb	a5,10(s0)
    12f2:	4785                	li	a5,1
    12f4:	00040623          	sb	zero,12(s0)
    12f8:	a85c                	sb	a5,20(s0)
    12fa:	3b81                	jal	104a <mpu_configure_fifo>
    12fc:	bf4d                	j	12ae <mpu_lp_accel_mode+0x40>
    12fe:	4715                	li	a4,5
    1300:	00976463          	bltu	a4,s1,1308 <mpu_lp_accel_mode+0x9a>
    1304:	86dc                	sb	a5,13(sp)
    1306:	b7d9                	j	12cc <mpu_lp_accel_mode+0x5e>
    1308:	47d1                	li	a5,20
    130a:	0097e663          	bltu	a5,s1,1316 <mpu_lp_accel_mode+0xa8>
    130e:	4789                	li	a5,2
    1310:	86dc                	sb	a5,13(sp)
    1312:	4529                	li	a0,10
    1314:	bf6d                	j	12ce <mpu_lp_accel_mode+0x60>
    1316:	478d                	li	a5,3
    1318:	86dc                	sb	a5,13(sp)
    131a:	4551                	li	a0,20
    131c:	bf4d                	j	12ce <mpu_lp_accel_mode+0x60>

0000131e <mpu_set_sample_rate>:
    131e:	ed3fe2ef          	jal	t0,1f0 <__riscv_save_0>
    1322:	20000437          	lui	s0,0x20000
    1326:	02c40793          	addi	a5,s0,44 # 2000002c <st>
    132a:	27b8                	lbu	a4,10(a5)
    132c:	1141                	addi	sp,sp,-16
    132e:	e709                	bnez	a4,1338 <mpu_set_sample_rate+0x1a>
    1330:	557d                	li	a0,-1
    1332:	0141                	addi	sp,sp,16
    1334:	ee1fe06f          	j	214 <__riscv_restore_0>
    1338:	0247c703          	lbu	a4,36(a5)
    133c:	fb75                	bnez	a4,1330 <mpu_set_sample_rate+0x12>
    133e:	2bdc                	lbu	a5,20(a5)
    1340:	02c40413          	addi	s0,s0,44
    1344:	84aa                	mv	s1,a0
    1346:	c385                	beqz	a5,1366 <mpu_set_sample_rate+0x48>
    1348:	fff50793          	addi	a5,a0,-1
    134c:	07c2                	slli	a5,a5,0x10
    134e:	83c1                	srli	a5,a5,0x10
    1350:	02700713          	li	a4,39
    1354:	00f76763          	bltu	a4,a5,1362 <mpu_set_sample_rate+0x44>
    1358:	0ff57513          	andi	a0,a0,255
    135c:	3f09                	jal	126e <mpu_lp_accel_mode>
    135e:	4501                	li	a0,0
    1360:	bfc9                	j	1332 <mpu_set_sample_rate+0x14>
    1362:	4501                	li	a0,0
    1364:	3729                	jal	126e <mpu_lp_accel_mode>
    1366:	3e800713          	li	a4,1000
    136a:	87a6                	mv	a5,s1
    136c:	00977463          	bgeu	a4,s1,1374 <mpu_set_sample_rate+0x56>
    1370:	3e800793          	li	a5,1000
    1374:	01079693          	slli	a3,a5,0x10
    1378:	82c1                	srli	a3,a3,0x10
    137a:	4711                	li	a4,4
    137c:	00e6f363          	bgeu	a3,a4,1382 <mpu_set_sample_rate+0x64>
    1380:	4791                	li	a5,4
    1382:	07c2                	slli	a5,a5,0x10
    1384:	83c1                	srli	a5,a5,0x10
    1386:	3e800493          	li	s1,1000
    138a:	02f4c7b3          	div	a5,s1,a5
    138e:	4018                	lw	a4,0(s0)
    1390:	00f10693          	addi	a3,sp,15
    1394:	4605                	li	a2,1
    1396:	330c                	lbu	a1,1(a4)
    1398:	17fd                	addi	a5,a5,-1
    139a:	87dc                	sb	a5,15(sp)
    139c:	405c                	lw	a5,4(s0)
    139e:	2388                	lbu	a0,0(a5)
    13a0:	4d1000ef          	jal	ra,2070 <MPU6050_WriteReg_HAL>
    13a4:	f551                	bnez	a0,1330 <mpu_set_sample_rate+0x12>
    13a6:	8788                	lbu	a0,15(sp)
    13a8:	0505                	addi	a0,a0,1
    13aa:	02a4c533          	div	a0,s1,a0
    13ae:	a46a                	sh	a0,14(s0)
    13b0:	8105                	srli	a0,a0,0x1
    13b2:	3929                	jal	fcc <mpu_set_lpf>
    13b4:	b76d                	j	135e <mpu_set_sample_rate+0x40>

000013b6 <mpu_set_sensors>:
    13b6:	e3bfe2ef          	jal	t0,1f0 <__riscv_save_0>
    13ba:	07057793          	andi	a5,a0,112
    13be:	1141                	addi	sp,sp,-16
    13c0:	84aa                	mv	s1,a0
    13c2:	c781                	beqz	a5,13ca <mpu_set_sensors+0x14>
    13c4:	4785                	li	a5,1
    13c6:	87dc                	sb	a5,15(sp)
    13c8:	a021                	j	13d0 <mpu_set_sensors+0x1a>
    13ca:	c90d                	beqz	a0,13fc <mpu_set_sensors+0x46>
    13cc:	000107a3          	sb	zero,15(sp)
    13d0:	20000437          	lui	s0,0x20000
    13d4:	02c40793          	addi	a5,s0,44 # 2000002c <st>
    13d8:	4398                	lw	a4,0(a5)
    13da:	43dc                	lw	a5,4(a5)
    13dc:	00f10693          	addi	a3,sp,15
    13e0:	3b4c                	lbu	a1,21(a4)
    13e2:	2388                	lbu	a0,0(a5)
    13e4:	4605                	li	a2,1
    13e6:	02c40413          	addi	s0,s0,44
    13ea:	487000ef          	jal	ra,2070 <MPU6050_WriteReg_HAL>
    13ee:	c911                	beqz	a0,1402 <mpu_set_sensors+0x4c>
    13f0:	00040523          	sb	zero,10(s0)
    13f4:	557d                	li	a0,-1
    13f6:	0141                	addi	sp,sp,16
    13f8:	e1dfe06f          	j	214 <__riscv_restore_0>
    13fc:	04000793          	li	a5,64
    1400:	b7d9                	j	13c6 <mpu_set_sensors+0x10>
    1402:	879c                	lbu	a5,15(sp)
    1404:	fbf7f793          	andi	a5,a5,-65
    1408:	a45c                	sb	a5,12(s0)
    140a:	0404f793          	andi	a5,s1,64
    140e:	cfb9                	beqz	a5,146c <mpu_set_sensors+0xb6>
    1410:	000107a3          	sb	zero,15(sp)
    1414:	0204f793          	andi	a5,s1,32
    1418:	e789                	bnez	a5,1422 <mpu_set_sensors+0x6c>
    141a:	879c                	lbu	a5,15(sp)
    141c:	0027e793          	ori	a5,a5,2
    1420:	87dc                	sb	a5,15(sp)
    1422:	0104f793          	andi	a5,s1,16
    1426:	e789                	bnez	a5,1430 <mpu_set_sensors+0x7a>
    1428:	879c                	lbu	a5,15(sp)
    142a:	0017e793          	ori	a5,a5,1
    142e:	87dc                	sb	a5,15(sp)
    1430:	0084f793          	andi	a5,s1,8
    1434:	e789                	bnez	a5,143e <mpu_set_sensors+0x88>
    1436:	879c                	lbu	a5,15(sp)
    1438:	0387e793          	ori	a5,a5,56
    143c:	87dc                	sb	a5,15(sp)
    143e:	4018                	lw	a4,0(s0)
    1440:	405c                	lw	a5,4(s0)
    1442:	00f10693          	addi	a3,sp,15
    1446:	2b6c                	lbu	a1,22(a4)
    1448:	2388                	lbu	a0,0(a5)
    144a:	4605                	li	a2,1
    144c:	425000ef          	jal	ra,2070 <MPU6050_WriteReg_HAL>
    1450:	f145                	bnez	a0,13f0 <mpu_set_sensors+0x3a>
    1452:	0f74f793          	andi	a5,s1,247
    1456:	c391                	beqz	a5,145a <mpu_set_sensors+0xa4>
    1458:	3b55                	jal	120c <mpu_set_int_latched>
    145a:	03200513          	li	a0,50
    145e:	a424                	sb	s1,10(s0)
    1460:	00040a23          	sb	zero,20(s0)
    1464:	270010ef          	jal	ra,26d4 <Delay_Ms>
    1468:	4501                	li	a0,0
    146a:	b771                	j	13f6 <mpu_set_sensors+0x40>
    146c:	4791                	li	a5,4
    146e:	87dc                	sb	a5,15(sp)
    1470:	b755                	j	1414 <mpu_set_sensors+0x5e>

00001472 <mpu_init>:
    1472:	d7ffe2ef          	jal	t0,1f0 <__riscv_save_0>
    1476:	20000437          	lui	s0,0x20000
    147a:	1141                	addi	sp,sp,-16
    147c:	f8000793          	li	a5,-128
    1480:	02c40913          	addi	s2,s0,44 # 2000002c <st>
    1484:	845c                	sb	a5,8(sp)
    1486:	00092703          	lw	a4,0(s2)
    148a:	00492783          	lw	a5,4(s2)
    148e:	84aa                	mv	s1,a0
    1490:	3b4c                	lbu	a1,21(a4)
    1492:	2388                	lbu	a0,0(a5)
    1494:	0034                	addi	a3,sp,8
    1496:	4605                	li	a2,1
    1498:	3d9000ef          	jal	ra,2070 <MPU6050_WriteReg_HAL>
    149c:	c511                	beqz	a0,14a8 <mpu_init+0x36>
    149e:	547d                	li	s0,-1
    14a0:	8522                	mv	a0,s0
    14a2:	0141                	addi	sp,sp,16
    14a4:	d71fe06f          	j	214 <__riscv_restore_0>
    14a8:	06400513          	li	a0,100
    14ac:	228010ef          	jal	ra,26d4 <Delay_Ms>
    14b0:	02c40413          	addi	s0,s0,44
    14b4:	4018                	lw	a4,0(s0)
    14b6:	405c                	lw	a5,4(s0)
    14b8:	00010423          	sb	zero,8(sp)
    14bc:	3b4c                	lbu	a1,21(a4)
    14be:	2388                	lbu	a0,0(a5)
    14c0:	0034                	addi	a3,sp,8
    14c2:	4605                	li	a2,1
    14c4:	3ad000ef          	jal	ra,2070 <MPU6050_WriteReg_HAL>
    14c8:	f979                	bnez	a0,149e <mpu_init+0x2c>
    14ca:	4018                	lw	a4,0(s0)
    14cc:	405c                	lw	a5,4(s0)
    14ce:	0034                	addi	a3,sp,8
    14d0:	3f0c                	lbu	a1,25(a4)
    14d2:	2388                	lbu	a0,0(a5)
    14d4:	4619                	li	a2,6
    14d6:	405000ef          	jal	ra,20da <MPU6050_ReadReg_HAL>
    14da:	f171                	bnez	a0,149e <mpu_init+0x2c>
    14dc:	869c                	lbu	a5,13(sp)
    14de:	8598                	lbu	a4,11(sp)
    14e0:	078a                	slli	a5,a5,0x2
    14e2:	0706                	slli	a4,a4,0x1
    14e4:	8b09                	andi	a4,a4,2
    14e6:	8b91                	andi	a5,a5,4
    14e8:	8fd9                	or	a5,a5,a4
    14ea:	8498                	lbu	a4,9(sp)
    14ec:	8b05                	andi	a4,a4,1
    14ee:	8fd9                	or	a5,a5,a4
    14f0:	c3c9                	beqz	a5,1572 <mpu_init+0x100>
    14f2:	4705                	li	a4,1
    14f4:	0ff7f593          	andi	a1,a5,255
    14f8:	00e79463          	bne	a5,a4,1500 <mpu_init+0x8e>
    14fc:	b83c                	sb	a5,19(s0)
    14fe:	a031                	j	150a <mpu_init+0x98>
    1500:	4789                	li	a5,2
    1502:	06f59163          	bne	a1,a5,1564 <mpu_init+0xf2>
    1506:	000409a3          	sb	zero,19(s0)
    150a:	57fd                	li	a5,-1
    150c:	a47e                	sh	a5,14(s0)
    150e:	a81c                	sb	a5,16(s0)
    1510:	a83c                	sb	a5,18(s0)
    1512:	57fd                	li	a5,-1
    1514:	c41c                	sw	a5,8(s0)
    1516:	00041a23          	sh	zero,20(s0)
    151a:	4785                	li	a5,1
    151c:	4631                	li	a2,12
    151e:	4581                	li	a1,0
    1520:	01640513          	addi	a0,s0,22
    1524:	a45c                	sb	a5,12(s0)
    1526:	cfbfe0ef          	jal	ra,220 <memset>
    152a:	4785                	li	a5,1
    152c:	b03e                	sh	a5,34(s0)
    152e:	02042223          	sw	zero,36(s0)
    1532:	7d000513          	li	a0,2000
    1536:	961ff0ef          	jal	ra,e96 <mpu_set_gyro_fsr>
    153a:	f135                	bnez	a0,149e <mpu_init+0x2c>
    153c:	4509                	li	a0,2
    153e:	a1bff0ef          	jal	ra,f58 <mpu_set_accel_fsr>
    1542:	fd31                	bnez	a0,149e <mpu_init+0x2c>
    1544:	02a00513          	li	a0,42
    1548:	a85ff0ef          	jal	ra,fcc <mpu_set_lpf>
    154c:	f929                	bnez	a0,149e <mpu_init+0x2c>
    154e:	03200513          	li	a0,50
    1552:	33f1                	jal	131e <mpu_set_sample_rate>
    1554:	f529                	bnez	a0,149e <mpu_init+0x2c>
    1556:	3cd5                	jal	104a <mpu_configure_fifo>
    1558:	842a                	mv	s0,a0
    155a:	f131                	bnez	a0,149e <mpu_init+0x2c>
    155c:	eca1                	bnez	s1,15b4 <mpu_init+0x142>
    155e:	4501                	li	a0,0
    1560:	3d99                	jal	13b6 <mpu_set_sensors>
    1562:	bf3d                	j	14a0 <mpu_init+0x2e>
    1564:	00007537          	lui	a0,0x7
    1568:	5f050513          	addi	a0,a0,1520 # 75f0 <hw+0xc>
    156c:	219040ef          	jal	ra,5f84 <iprintf>
    1570:	b73d                	j	149e <mpu_init+0x2c>
    1572:	00092703          	lw	a4,0(s2)
    1576:	00492783          	lw	a5,4(s2)
    157a:	0034                	addi	a3,sp,8
    157c:	332c                	lbu	a1,3(a4)
    157e:	2388                	lbu	a0,0(a5)
    1580:	4605                	li	a2,1
    1582:	359000ef          	jal	ra,20da <MPU6050_ReadReg_HAL>
    1586:	f0051ce3          	bnez	a0,149e <mpu_init+0x2c>
    158a:	841c                	lbu	a5,8(sp)
    158c:	8bbd                	andi	a5,a5,15
    158e:	eb81                	bnez	a5,159e <mpu_init+0x12c>
    1590:	00007537          	lui	a0,0x7
    1594:	61850513          	addi	a0,a0,1560 # 7618 <hw+0x34>
    1598:	301040ef          	jal	ra,6098 <puts>
    159c:	b709                	j	149e <mpu_init+0x2c>
    159e:	4711                	li	a4,4
    15a0:	f6e793e3          	bne	a5,a4,1506 <mpu_init+0x94>
    15a4:	00007537          	lui	a0,0x7
    15a8:	66450513          	addi	a0,a0,1636 # 7664 <hw+0x80>
    15ac:	2ed040ef          	jal	ra,6098 <puts>
    15b0:	4785                	li	a5,1
    15b2:	b7a9                	j	14fc <mpu_init+0x8a>
    15b4:	3641                	jal	1134 <mpu_set_bypass>
    15b6:	d545                	beqz	a0,155e <mpu_init+0xec>
    15b8:	b5dd                	j	149e <mpu_init+0x2c>

000015ba <mpu_write_mem>:
    15ba:	e619                	bnez	a2,15c8 <mpu_write_mem+0xe>
    15bc:	557d                	li	a0,-1
    15be:	8082                	ret
    15c0:	557d                	li	a0,-1
    15c2:	0141                	addi	sp,sp,16
    15c4:	c51fe06f          	j	214 <__riscv_restore_0>
    15c8:	c29fe2ef          	jal	t0,1f0 <__riscv_save_0>
    15cc:	20000437          	lui	s0,0x20000
    15d0:	02c40413          	addi	s0,s0,44 # 2000002c <st>
    15d4:	243c                	lbu	a5,10(s0)
    15d6:	1141                	addi	sp,sp,-16
    15d8:	d7e5                	beqz	a5,15c0 <mpu_write_mem+0x6>
    15da:	00855713          	srli	a4,a0,0x8
    15de:	00851793          	slli	a5,a0,0x8
    15e2:	8fd9                	or	a5,a5,a4
    15e4:	867c                	sh	a5,12(sp)
    15e6:	405c                	lw	a5,4(s0)
    15e8:	0ff57513          	andi	a0,a0,255
    15ec:	952e                	add	a0,a0,a1
    15ee:	27ba                	lhu	a4,10(a5)
    15f0:	fca748e3          	blt	a4,a0,15c0 <mpu_write_mem+0x6>
    15f4:	4018                	lw	a4,0(s0)
    15f6:	84ae                	mv	s1,a1
    15f8:	2388                	lbu	a0,0(a5)
    15fa:	3f2c                	lbu	a1,27(a4)
    15fc:	8932                	mv	s2,a2
    15fe:	0074                	addi	a3,sp,12
    1600:	4609                	li	a2,2
    1602:	26f000ef          	jal	ra,2070 <MPU6050_WriteReg_HAL>
    1606:	fd4d                	bnez	a0,15c0 <mpu_write_mem+0x6>
    1608:	4018                	lw	a4,0(s0)
    160a:	405c                	lw	a5,4(s0)
    160c:	86ca                	mv	a3,s2
    160e:	2f0c                	lbu	a1,24(a4)
    1610:	2388                	lbu	a0,0(a5)
    1612:	0ff4f613          	andi	a2,s1,255
    1616:	25b000ef          	jal	ra,2070 <MPU6050_WriteReg_HAL>
    161a:	00a03533          	snez	a0,a0
    161e:	40a00533          	neg	a0,a0
    1622:	b745                	j	15c2 <mpu_write_mem+0x8>

00001624 <mpu_read_mem>:
    1624:	e619                	bnez	a2,1632 <mpu_read_mem+0xe>
    1626:	557d                	li	a0,-1
    1628:	8082                	ret
    162a:	557d                	li	a0,-1
    162c:	0141                	addi	sp,sp,16
    162e:	be7fe06f          	j	214 <__riscv_restore_0>
    1632:	bbffe2ef          	jal	t0,1f0 <__riscv_save_0>
    1636:	20000437          	lui	s0,0x20000
    163a:	02c40413          	addi	s0,s0,44 # 2000002c <st>
    163e:	243c                	lbu	a5,10(s0)
    1640:	1141                	addi	sp,sp,-16
    1642:	d7e5                	beqz	a5,162a <mpu_read_mem+0x6>
    1644:	00855713          	srli	a4,a0,0x8
    1648:	00851793          	slli	a5,a0,0x8
    164c:	8fd9                	or	a5,a5,a4
    164e:	867c                	sh	a5,12(sp)
    1650:	405c                	lw	a5,4(s0)
    1652:	0ff57513          	andi	a0,a0,255
    1656:	952e                	add	a0,a0,a1
    1658:	27ba                	lhu	a4,10(a5)
    165a:	fca748e3          	blt	a4,a0,162a <mpu_read_mem+0x6>
    165e:	4018                	lw	a4,0(s0)
    1660:	84ae                	mv	s1,a1
    1662:	2388                	lbu	a0,0(a5)
    1664:	3f2c                	lbu	a1,27(a4)
    1666:	8932                	mv	s2,a2
    1668:	0074                	addi	a3,sp,12
    166a:	4609                	li	a2,2
    166c:	205000ef          	jal	ra,2070 <MPU6050_WriteReg_HAL>
    1670:	fd4d                	bnez	a0,162a <mpu_read_mem+0x6>
    1672:	4018                	lw	a4,0(s0)
    1674:	405c                	lw	a5,4(s0)
    1676:	86ca                	mv	a3,s2
    1678:	2f0c                	lbu	a1,24(a4)
    167a:	2388                	lbu	a0,0(a5)
    167c:	0ff4f613          	andi	a2,s1,255
    1680:	25b000ef          	jal	ra,20da <MPU6050_ReadReg_HAL>
    1684:	00a03533          	snez	a0,a0
    1688:	40a00533          	neg	a0,a0
    168c:	b745                	j	162c <mpu_read_mem+0x8>

0000168e <mpu_load_firmware>:
    168e:	b3bfe2ef          	jal	t0,1c8 <__riscv_save_10>
    1692:	200004b7          	lui	s1,0x20000
    1696:	02c48793          	addi	a5,s1,44 # 2000002c <st>
    169a:	0257c783          	lbu	a5,37(a5)
    169e:	1101                	addi	sp,sp,-32
    16a0:	c789                	beqz	a5,16aa <mpu_load_firmware+0x1c>
    16a2:	557d                	li	a0,-1
    16a4:	6105                	addi	sp,sp,32
    16a6:	b5bfe06f          	j	200 <__riscv_restore_10>
    16aa:	dde5                	beqz	a1,16a2 <mpu_load_firmware+0x14>
    16ac:	6bc1                	lui	s7,0x10
    16ae:	02c48493          	addi	s1,s1,44
    16b2:	8b36                	mv	s6,a3
    16b4:	8932                	mv	s2,a2
    16b6:	8a2e                	mv	s4,a1
    16b8:	89aa                	mv	s3,a0
    16ba:	4401                	li	s0,0
    16bc:	4cc1                	li	s9,16
    16be:	1bfd                	addi	s7,s7,-1
    16c0:	03346963          	bltu	s0,s3,16f2 <mpu_load_firmware+0x64>
    16c4:	00891613          	slli	a2,s2,0x8
    16c8:	4098                	lw	a4,0(s1)
    16ca:	00895913          	srli	s2,s2,0x8
    16ce:	40dc                	lw	a5,4(s1)
    16d0:	01266933          	or	s2,a2,s2
    16d4:	01211623          	sh	s2,12(sp)
    16d8:	3f4c                	lbu	a1,29(a4)
    16da:	2388                	lbu	a0,0(a5)
    16dc:	0074                	addi	a3,sp,12
    16de:	4609                	li	a2,2
    16e0:	191000ef          	jal	ra,2070 <MPU6050_WriteReg_HAL>
    16e4:	fd5d                	bnez	a0,16a2 <mpu_load_firmware+0x14>
    16e6:	4785                	li	a5,1
    16e8:	02f482a3          	sb	a5,37(s1)
    16ec:	03649323          	sh	s6,38(s1)
    16f0:	bf55                	j	16a4 <mpu_load_firmware+0x16>
    16f2:	40898ab3          	sub	s5,s3,s0
    16f6:	015cd363          	bge	s9,s5,16fc <mpu_load_firmware+0x6e>
    16fa:	4ac1                	li	s5,16
    16fc:	010a9c13          	slli	s8,s5,0x10
    1700:	010c5c13          	srli	s8,s8,0x10
    1704:	008a0d33          	add	s10,s4,s0
    1708:	866a                	mv	a2,s10
    170a:	85e2                	mv	a1,s8
    170c:	8522                	mv	a0,s0
    170e:	3575                	jal	15ba <mpu_write_mem>
    1710:	f949                	bnez	a0,16a2 <mpu_load_firmware+0x14>
    1712:	0810                	addi	a2,sp,16
    1714:	85e2                	mv	a1,s8
    1716:	8522                	mv	a0,s0
    1718:	3731                	jal	1624 <mpu_read_mem>
    171a:	f541                	bnez	a0,16a2 <mpu_load_firmware+0x14>
    171c:	017af633          	and	a2,s5,s7
    1720:	080c                	addi	a1,sp,16
    1722:	856a                	mv	a0,s10
    1724:	78a040ef          	jal	ra,5eae <memcmp>
    1728:	e509                	bnez	a0,1732 <mpu_load_firmware+0xa4>
    172a:	9462                	add	s0,s0,s8
    172c:	0442                	slli	s0,s0,0x10
    172e:	8041                	srli	s0,s0,0x10
    1730:	bf41                	j	16c0 <mpu_load_firmware+0x32>
    1732:	5579                	li	a0,-2
    1734:	bf85                	j	16a4 <mpu_load_firmware+0x16>

00001736 <mpu_set_dmp_state>:
    1736:	abbfe2ef          	jal	t0,1f0 <__riscv_save_0>
    173a:	20000437          	lui	s0,0x20000
    173e:	02c40413          	addi	s0,s0,44 # 2000002c <st>
    1742:	02444703          	lbu	a4,36(s0)
    1746:	1141                	addi	sp,sp,-16
    1748:	04a70263          	beq	a4,a0,178c <mpu_set_dmp_state+0x56>
    174c:	c521                	beqz	a0,1794 <mpu_set_dmp_state+0x5e>
    174e:	02544783          	lbu	a5,37(s0)
    1752:	557d                	li	a0,-1
    1754:	cf8d                	beqz	a5,178e <mpu_set_dmp_state+0x58>
    1756:	4501                	li	a0,0
    1758:	d7eff0ef          	jal	ra,cd6 <set_int_enable>
    175c:	4501                	li	a0,0
    175e:	9d7ff0ef          	jal	ra,1134 <mpu_set_bypass>
    1762:	306a                	lhu	a0,38(s0)
    1764:	3e6d                	jal	131e <mpu_set_sample_rate>
    1766:	405c                	lw	a5,4(s0)
    1768:	000107a3          	sb	zero,15(sp)
    176c:	00f10693          	addi	a3,sp,15
    1770:	2388                	lbu	a0,0(a5)
    1772:	4605                	li	a2,1
    1774:	02300593          	li	a1,35
    1778:	0f9000ef          	jal	ra,2070 <MPU6050_WriteReg_HAL>
    177c:	4785                	li	a5,1
    177e:	4505                	li	a0,1
    1780:	02f40223          	sb	a5,36(s0)
    1784:	d52ff0ef          	jal	ra,cd6 <set_int_enable>
    1788:	dbeff0ef          	jal	ra,d46 <mpu_reset_fifo>
    178c:	4501                	li	a0,0
    178e:	0141                	addi	sp,sp,16
    1790:	a85fe06f          	j	214 <__riscv_restore_0>
    1794:	d42ff0ef          	jal	ra,cd6 <set_int_enable>
    1798:	281c                	lbu	a5,16(s0)
    179a:	00f10693          	addi	a3,sp,15
    179e:	4605                	li	a2,1
    17a0:	87dc                	sb	a5,15(sp)
    17a2:	405c                	lw	a5,4(s0)
    17a4:	02300593          	li	a1,35
    17a8:	2388                	lbu	a0,0(a5)
    17aa:	0c7000ef          	jal	ra,2070 <MPU6050_WriteReg_HAL>
    17ae:	02040223          	sb	zero,36(s0)
    17b2:	bfd9                	j	1788 <mpu_set_dmp_state+0x52>

000017b4 <dmp_enable_gyro_cal.part.0>:
    17b4:	a3dfe2ef          	jal	t0,1f0 <__riscv_save_0>
    17b8:	8db3b7b7          	lui	a5,0x8db3b
    17bc:	1141                	addi	sp,sp,-16
    17be:	ab878793          	addi	a5,a5,-1352 # 8db3aab8 <_eusrstack+0x6db32ab8>
    17c2:	c23e                	sw	a5,4(sp)
    17c4:	350da7b7          	lui	a5,0x350da
    17c8:	8b478793          	addi	a5,a5,-1868 # 350d98b4 <_eusrstack+0x150d18b4>
    17cc:	c43e                	sw	a5,8(sp)
    17ce:	0050                	addi	a2,sp,4
    17d0:	05d00793          	li	a5,93
    17d4:	45a5                	li	a1,9
    17d6:	4b800513          	li	a0,1208
    17da:	865c                	sb	a5,12(sp)
    17dc:	3bf9                	jal	15ba <mpu_write_mem>
    17de:	0141                	addi	sp,sp,16
    17e0:	a35fe06f          	j	214 <__riscv_restore_0>

000017e4 <dmp_load_motion_driver_firmware>:
    17e4:	a0dfe2ef          	jal	t0,1f0 <__riscv_save_0>
    17e8:	659d                	lui	a1,0x7
    17ea:	6505                	lui	a0,0x1
    17ec:	0c800693          	li	a3,200
    17f0:	40000613          	li	a2,1024
    17f4:	6cc58593          	addi	a1,a1,1740 # 76cc <dmp_memory>
    17f8:	bf650513          	addi	a0,a0,-1034 # bf6 <SOFT_I2C_Stop+0x18>
    17fc:	3d49                	jal	168e <mpu_load_firmware>
    17fe:	a17fe06f          	j	214 <__riscv_restore_0>

00001802 <dmp_set_orientation>:
    1802:	9effe2ef          	jal	t0,1f0 <__riscv_save_0>
    1806:	77f5                	lui	a5,0xffffd
    1808:	1141                	addi	sp,sp,-16
    180a:	d4c78713          	addi	a4,a5,-692 # ffffcd4c <_eusrstack+0xdfff4d4c>
    180e:	90c78793          	addi	a5,a5,-1780
    1812:	867c                	sh	a5,12(sp)
    1814:	02c00793          	li	a5,44
    1818:	8478                	sh	a4,8(sp)
    181a:	875c                	sb	a5,14(sp)
    181c:	06c00713          	li	a4,108
    1820:	00357693          	andi	a3,a0,3
    1824:	081c                	addi	a5,sp,16
    1826:	8558                	sb	a4,10(sp)
    1828:	96be                	add	a3,a3,a5
    182a:	ff86c783          	lbu	a5,-8(a3)
    182e:	00355713          	srli	a4,a0,0x3
    1832:	8b0d                	andi	a4,a4,3
    1834:	805c                	sb	a5,0(sp)
    1836:	081c                	addi	a5,sp,16
    1838:	973e                	add	a4,a4,a5
    183a:	ff874783          	lbu	a5,-8(a4)
    183e:	0810                	addi	a2,sp,16
    1840:	ffc6c683          	lbu	a3,-4(a3)
    1844:	80dc                	sb	a5,1(sp)
    1846:	00655793          	srli	a5,a0,0x6
    184a:	8b8d                	andi	a5,a5,3
    184c:	97b2                	add	a5,a5,a2
    184e:	ff87c603          	lbu	a2,-8(a5)
    1852:	ffc74703          	lbu	a4,-4(a4)
    1856:	ffc7c783          	lbu	a5,-4(a5)
    185a:	842a                	mv	s0,a0
    185c:	8150                	sb	a2,2(sp)
    185e:	458d                	li	a1,3
    1860:	860a                	mv	a2,sp
    1862:	42600513          	li	a0,1062
    1866:	8254                	sb	a3,4(sp)
    1868:	82d8                	sb	a4,5(sp)
    186a:	835c                	sb	a5,6(sp)
    186c:	33b9                	jal	15ba <mpu_write_mem>
    186e:	c509                	beqz	a0,1878 <dmp_set_orientation+0x76>
    1870:	557d                	li	a0,-1
    1872:	0141                	addi	sp,sp,16
    1874:	9a1fe06f          	j	214 <__riscv_restore_0>
    1878:	0050                	addi	a2,sp,4
    187a:	458d                	li	a1,3
    187c:	42a00513          	li	a0,1066
    1880:	3b2d                	jal	15ba <mpu_write_mem>
    1882:	f57d                	bnez	a0,1870 <dmp_set_orientation+0x6e>
    1884:	6795                	lui	a5,0x5
    1886:	63678793          	addi	a5,a5,1590 # 5636 <__mulsf3+0x27c>
    188a:	807c                	sh	a5,0(sp)
    188c:	07600793          	li	a5,118
    1890:	815c                	sb	a5,2(sp)
    1892:	6791                	lui	a5,0x4
    1894:	62678793          	addi	a5,a5,1574 # 4626 <__subdf3+0x2>
    1898:	827c                	sh	a5,4(sp)
    189a:	06600793          	li	a5,102
    189e:	835c                	sb	a5,6(sp)
    18a0:	00447793          	andi	a5,s0,4
    18a4:	c799                	beqz	a5,18b2 <dmp_set_orientation+0xb0>
    18a6:	03700793          	li	a5,55
    18aa:	805c                	sb	a5,0(sp)
    18ac:	02700793          	li	a5,39
    18b0:	825c                	sb	a5,4(sp)
    18b2:	02047793          	andi	a5,s0,32
    18b6:	c799                	beqz	a5,18c4 <dmp_set_orientation+0xc2>
    18b8:	05700793          	li	a5,87
    18bc:	80dc                	sb	a5,1(sp)
    18be:	04700793          	li	a5,71
    18c2:	82dc                	sb	a5,5(sp)
    18c4:	10047793          	andi	a5,s0,256
    18c8:	c799                	beqz	a5,18d6 <dmp_set_orientation+0xd4>
    18ca:	07700793          	li	a5,119
    18ce:	815c                	sb	a5,2(sp)
    18d0:	06700793          	li	a5,103
    18d4:	835c                	sb	a5,6(sp)
    18d6:	860a                	mv	a2,sp
    18d8:	458d                	li	a1,3
    18da:	44000513          	li	a0,1088
    18de:	39f1                	jal	15ba <mpu_write_mem>
    18e0:	f941                	bnez	a0,1870 <dmp_set_orientation+0x6e>
    18e2:	0050                	addi	a2,sp,4
    18e4:	458d                	li	a1,3
    18e6:	43100513          	li	a0,1073
    18ea:	39c1                	jal	15ba <mpu_write_mem>
    18ec:	f151                	bnez	a0,1870 <dmp_set_orientation+0x6e>
    18ee:	84819e23          	sh	s0,-1956(gp) # 20000124 <dmp+0x8>
    18f2:	b741                	j	1872 <dmp_set_orientation+0x70>

000018f4 <dmp_set_fifo_rate>:
    18f4:	8fdfe2ef          	jal	t0,1f0 <__riscv_save_0>
    18f8:	1101                	addi	sp,sp,-32
    18fa:	659d                	lui	a1,0x7
    18fc:	842a                	mv	s0,a0
    18fe:	4631                	li	a2,12
    1900:	59c58593          	addi	a1,a1,1436 # 759c <_read+0xc>
    1904:	0848                	addi	a0,sp,20
    1906:	5cc040ef          	jal	ra,5ed2 <memcpy>
    190a:	0c800793          	li	a5,200
    190e:	0087f663          	bgeu	a5,s0,191a <dmp_set_fifo_rate+0x26>
    1912:	557d                	li	a0,-1
    1914:	6105                	addi	sp,sp,32
    1916:	8fffe06f          	j	214 <__riscv_restore_0>
    191a:	0287c7b3          	div	a5,a5,s0
    191e:	0070                	addi	a2,sp,12
    1920:	4589                	li	a1,2
    1922:	21600513          	li	a0,534
    1926:	00010623          	sb	zero,12(sp)
    192a:	17fd                	addi	a5,a5,-1
    192c:	86dc                	sb	a5,13(sp)
    192e:	3171                	jal	15ba <mpu_write_mem>
    1930:	f16d                	bnez	a0,1912 <dmp_set_fifo_rate+0x1e>
    1932:	6505                	lui	a0,0x1
    1934:	0850                	addi	a2,sp,20
    1936:	45b1                	li	a1,12
    1938:	ac150513          	addi	a0,a0,-1343 # ac1 <USART_Init+0x5d>
    193c:	39bd                	jal	15ba <mpu_write_mem>
    193e:	f971                	bnez	a0,1912 <dmp_set_fifo_rate+0x1e>
    1940:	86819023          	sh	s0,-1952(gp) # 20000128 <dmp+0xc>
    1944:	bfc1                	j	1914 <dmp_set_fifo_rate+0x20>

00001946 <dmp_set_tap_thresh>:
    1946:	00757793          	andi	a5,a0,7
    194a:	e399                	bnez	a5,1950 <dmp_set_tap_thresh+0xa>
    194c:	557d                	li	a0,-1
    194e:	8082                	ret
    1950:	64000793          	li	a5,1600
    1954:	feb7ece3          	bltu	a5,a1,194c <dmp_set_tap_thresh+0x6>
    1958:	899fe2ef          	jal	t0,1f0 <__riscv_save_0>
    195c:	1141                	addi	sp,sp,-16
    195e:	842a                	mv	s0,a0
    1960:	852e                	mv	a0,a1
    1962:	1f2040ef          	jal	ra,5b54 <__floatunsisf>
    1966:	000087b7          	lui	a5,0x8
    196a:	2c47a583          	lw	a1,708(a5) # 82c4 <dmp_memory+0xbf8>
    196e:	79a030ef          	jal	ra,5108 <__divsf3>
    1972:	84aa                	mv	s1,a0
    1974:	00b10513          	addi	a0,sp,11
    1978:	d9aff0ef          	jal	ra,f12 <mpu_get_accel_fsr>
    197c:	859c                	lbu	a5,11(sp)
    197e:	4711                	li	a4,4
    1980:	0ee78363          	beq	a5,a4,1a66 <dmp_set_tap_thresh+0x120>
    1984:	00f76963          	bltu	a4,a5,1996 <dmp_set_tap_thresh+0x50>
    1988:	4709                	li	a4,2
    198a:	02e78e63          	beq	a5,a4,19c6 <dmp_set_tap_thresh+0x80>
    198e:	557d                	li	a0,-1
    1990:	0141                	addi	sp,sp,16
    1992:	883fe06f          	j	214 <__riscv_restore_0>
    1996:	4721                	li	a4,8
    1998:	0ee78963          	beq	a5,a4,1a8a <dmp_set_tap_thresh+0x144>
    199c:	4741                	li	a4,16
    199e:	fee798e3          	bne	a5,a4,198e <dmp_set_tap_thresh+0x48>
    19a2:	000087b7          	lui	a5,0x8
    19a6:	2e07a583          	lw	a1,736(a5) # 82e0 <dmp_memory+0xc14>
    19aa:	8526                	mv	a0,s1
    19ac:	20f030ef          	jal	ra,53ba <__mulsf3>
    19b0:	088040ef          	jal	ra,5a38 <__fixunssfsi>
    19b4:	01051913          	slli	s2,a0,0x10
    19b8:	000087b7          	lui	a5,0x8
    19bc:	01095913          	srli	s2,s2,0x10
    19c0:	2e47a583          	lw	a1,740(a5) # 82e4 <dmp_memory+0xc18>
    19c4:	a015                	j	19e8 <dmp_set_tap_thresh+0xa2>
    19c6:	000087b7          	lui	a5,0x8
    19ca:	2c87a583          	lw	a1,712(a5) # 82c8 <dmp_memory+0xbfc>
    19ce:	8526                	mv	a0,s1
    19d0:	1eb030ef          	jal	ra,53ba <__mulsf3>
    19d4:	064040ef          	jal	ra,5a38 <__fixunssfsi>
    19d8:	000087b7          	lui	a5,0x8
    19dc:	2cc7a583          	lw	a1,716(a5) # 82cc <dmp_memory+0xc00>
    19e0:	01051913          	slli	s2,a0,0x10
    19e4:	01095913          	srli	s2,s2,0x10
    19e8:	8526                	mv	a0,s1
    19ea:	1d1030ef          	jal	ra,53ba <__mulsf3>
    19ee:	04a040ef          	jal	ra,5a38 <__fixunssfsi>
    19f2:	0542                	slli	a0,a0,0x10
    19f4:	00891793          	slli	a5,s2,0x8
    19f8:	8141                	srli	a0,a0,0x10
    19fa:	00895913          	srli	s2,s2,0x8
    19fe:	0127e933          	or	s2,a5,s2
    1a02:	00851793          	slli	a5,a0,0x8
    1a06:	8121                	srli	a0,a0,0x8
    1a08:	8d5d                	or	a0,a0,a5
    1a0a:	01211623          	sh	s2,12(sp)
    1a0e:	8768                	sh	a0,14(sp)
    1a10:	00147793          	andi	a5,s0,1
    1a14:	efc9                	bnez	a5,1aae <dmp_set_tap_thresh+0x168>
    1a16:	00247793          	andi	a5,s0,2
    1a1a:	c385                	beqz	a5,1a3a <dmp_set_tap_thresh+0xf4>
    1a1c:	0070                	addi	a2,sp,12
    1a1e:	4589                	li	a1,2
    1a20:	1d800513          	li	a0,472
    1a24:	b97ff0ef          	jal	ra,15ba <mpu_write_mem>
    1a28:	f13d                	bnez	a0,198e <dmp_set_tap_thresh+0x48>
    1a2a:	00e10613          	addi	a2,sp,14
    1a2e:	4589                	li	a1,2
    1a30:	12800513          	li	a0,296
    1a34:	b87ff0ef          	jal	ra,15ba <mpu_write_mem>
    1a38:	f939                	bnez	a0,198e <dmp_set_tap_thresh+0x48>
    1a3a:	8811                	andi	s0,s0,4
    1a3c:	4501                	li	a0,0
    1a3e:	d829                	beqz	s0,1990 <dmp_set_tap_thresh+0x4a>
    1a40:	0070                	addi	a2,sp,12
    1a42:	4589                	li	a1,2
    1a44:	1dc00513          	li	a0,476
    1a48:	b73ff0ef          	jal	ra,15ba <mpu_write_mem>
    1a4c:	f129                	bnez	a0,198e <dmp_set_tap_thresh+0x48>
    1a4e:	00e10613          	addi	a2,sp,14
    1a52:	4589                	li	a1,2
    1a54:	12c00513          	li	a0,300
    1a58:	b63ff0ef          	jal	ra,15ba <mpu_write_mem>
    1a5c:	00a03533          	snez	a0,a0
    1a60:	40a00533          	neg	a0,a0
    1a64:	b735                	j	1990 <dmp_set_tap_thresh+0x4a>
    1a66:	000087b7          	lui	a5,0x8
    1a6a:	2d07a583          	lw	a1,720(a5) # 82d0 <dmp_memory+0xc04>
    1a6e:	8526                	mv	a0,s1
    1a70:	14b030ef          	jal	ra,53ba <__mulsf3>
    1a74:	7c5030ef          	jal	ra,5a38 <__fixunssfsi>
    1a78:	01051913          	slli	s2,a0,0x10
    1a7c:	000087b7          	lui	a5,0x8
    1a80:	01095913          	srli	s2,s2,0x10
    1a84:	2d47a583          	lw	a1,724(a5) # 82d4 <dmp_memory+0xc08>
    1a88:	b785                	j	19e8 <dmp_set_tap_thresh+0xa2>
    1a8a:	000087b7          	lui	a5,0x8
    1a8e:	2d87a583          	lw	a1,728(a5) # 82d8 <dmp_memory+0xc0c>
    1a92:	8526                	mv	a0,s1
    1a94:	127030ef          	jal	ra,53ba <__mulsf3>
    1a98:	7a1030ef          	jal	ra,5a38 <__fixunssfsi>
    1a9c:	01051913          	slli	s2,a0,0x10
    1aa0:	000087b7          	lui	a5,0x8
    1aa4:	01095913          	srli	s2,s2,0x10
    1aa8:	2dc7a583          	lw	a1,732(a5) # 82dc <dmp_memory+0xc10>
    1aac:	bf35                	j	19e8 <dmp_set_tap_thresh+0xa2>
    1aae:	0070                	addi	a2,sp,12
    1ab0:	4589                	li	a1,2
    1ab2:	1d400513          	li	a0,468
    1ab6:	b05ff0ef          	jal	ra,15ba <mpu_write_mem>
    1aba:	ec051ae3          	bnez	a0,198e <dmp_set_tap_thresh+0x48>
    1abe:	00e10613          	addi	a2,sp,14
    1ac2:	4589                	li	a1,2
    1ac4:	12400513          	li	a0,292
    1ac8:	af3ff0ef          	jal	ra,15ba <mpu_write_mem>
    1acc:	d529                	beqz	a0,1a16 <dmp_set_tap_thresh+0xd0>
    1ace:	b5c1                	j	198e <dmp_set_tap_thresh+0x48>

00001ad0 <dmp_set_tap_axes>:
    1ad0:	f20fe2ef          	jal	t0,1f0 <__riscv_save_0>
    1ad4:	00157793          	andi	a5,a0,1
    1ad8:	1141                	addi	sp,sp,-16
    1ada:	eb95                	bnez	a5,1b0e <dmp_set_tap_axes+0x3e>
    1adc:	000107a3          	sb	zero,15(sp)
    1ae0:	00257793          	andi	a5,a0,2
    1ae4:	c789                	beqz	a5,1aee <dmp_set_tap_axes+0x1e>
    1ae6:	879c                	lbu	a5,15(sp)
    1ae8:	00c7e793          	ori	a5,a5,12
    1aec:	87dc                	sb	a5,15(sp)
    1aee:	8911                	andi	a0,a0,4
    1af0:	c509                	beqz	a0,1afa <dmp_set_tap_axes+0x2a>
    1af2:	879c                	lbu	a5,15(sp)
    1af4:	0037e793          	ori	a5,a5,3
    1af8:	87dc                	sb	a5,15(sp)
    1afa:	00f10613          	addi	a2,sp,15
    1afe:	4585                	li	a1,1
    1b00:	14800513          	li	a0,328
    1b04:	ab7ff0ef          	jal	ra,15ba <mpu_write_mem>
    1b08:	0141                	addi	sp,sp,16
    1b0a:	f0afe06f          	j	214 <__riscv_restore_0>
    1b0e:	03000793          	li	a5,48
    1b12:	87dc                	sb	a5,15(sp)
    1b14:	b7f1                	j	1ae0 <dmp_set_tap_axes+0x10>

00001b16 <dmp_set_tap_count>:
    1b16:	edafe2ef          	jal	t0,1f0 <__riscv_save_0>
    1b1a:	1141                	addi	sp,sp,-16
    1b1c:	4785                	li	a5,1
    1b1e:	c519                	beqz	a0,1b2c <dmp_set_tap_count+0x16>
    1b20:	4711                	li	a4,4
    1b22:	0ff57793          	andi	a5,a0,255
    1b26:	00a77363          	bgeu	a4,a0,1b2c <dmp_set_tap_count+0x16>
    1b2a:	4791                	li	a5,4
    1b2c:	17fd                	addi	a5,a5,-1
    1b2e:	00f10613          	addi	a2,sp,15
    1b32:	4585                	li	a1,1
    1b34:	14f00513          	li	a0,335
    1b38:	87dc                	sb	a5,15(sp)
    1b3a:	a81ff0ef          	jal	ra,15ba <mpu_write_mem>
    1b3e:	0141                	addi	sp,sp,16
    1b40:	ed4fe06f          	j	214 <__riscv_restore_0>

00001b44 <dmp_set_tap_time>:
    1b44:	eacfe2ef          	jal	t0,1f0 <__riscv_save_0>
    1b48:	4795                	li	a5,5
    1b4a:	02f55533          	divu	a0,a0,a5
    1b4e:	1141                	addi	sp,sp,-16
    1b50:	0070                	addi	a2,sp,12
    1b52:	4589                	li	a1,2
    1b54:	00851793          	slli	a5,a0,0x8
    1b58:	8121                	srli	a0,a0,0x8
    1b5a:	8d5d                	or	a0,a0,a5
    1b5c:	8668                	sh	a0,12(sp)
    1b5e:	1de00513          	li	a0,478
    1b62:	a59ff0ef          	jal	ra,15ba <mpu_write_mem>
    1b66:	0141                	addi	sp,sp,16
    1b68:	eacfe06f          	j	214 <__riscv_restore_0>

00001b6c <dmp_set_tap_time_multi>:
    1b6c:	e84fe2ef          	jal	t0,1f0 <__riscv_save_0>
    1b70:	4795                	li	a5,5
    1b72:	02f55533          	divu	a0,a0,a5
    1b76:	1141                	addi	sp,sp,-16
    1b78:	0070                	addi	a2,sp,12
    1b7a:	4589                	li	a1,2
    1b7c:	00851793          	slli	a5,a0,0x8
    1b80:	8121                	srli	a0,a0,0x8
    1b82:	8d5d                	or	a0,a0,a5
    1b84:	8668                	sh	a0,12(sp)
    1b86:	1da00513          	li	a0,474
    1b8a:	a31ff0ef          	jal	ra,15ba <mpu_write_mem>
    1b8e:	0141                	addi	sp,sp,16
    1b90:	e84fe06f          	j	214 <__riscv_restore_0>

00001b94 <dmp_set_shake_reject_thresh>:
    1b94:	e5cfe2ef          	jal	t0,1f0 <__riscv_save_0>
    1b98:	3e800793          	li	a5,1000
    1b9c:	02f54533          	div	a0,a0,a5
    1ba0:	1141                	addi	sp,sp,-16
    1ba2:	0070                	addi	a2,sp,12
    1ba4:	02b505b3          	mul	a1,a0,a1
    1ba8:	15c00513          	li	a0,348
    1bac:	4185d793          	srai	a5,a1,0x18
    1bb0:	865c                	sb	a5,12(sp)
    1bb2:	4105d793          	srai	a5,a1,0x10
    1bb6:	86dc                	sb	a5,13(sp)
    1bb8:	00859793          	slli	a5,a1,0x8
    1bbc:	05c2                	slli	a1,a1,0x10
    1bbe:	81c1                	srli	a1,a1,0x10
    1bc0:	81a1                	srli	a1,a1,0x8
    1bc2:	8ddd                	or	a1,a1,a5
    1bc4:	876c                	sh	a1,14(sp)
    1bc6:	4591                	li	a1,4
    1bc8:	9f3ff0ef          	jal	ra,15ba <mpu_write_mem>
    1bcc:	0141                	addi	sp,sp,16
    1bce:	e46fe06f          	j	214 <__riscv_restore_0>

00001bd2 <dmp_set_shake_reject_time>:
    1bd2:	e1efe2ef          	jal	t0,1f0 <__riscv_save_0>
    1bd6:	4795                	li	a5,5
    1bd8:	02f55533          	divu	a0,a0,a5
    1bdc:	1141                	addi	sp,sp,-16
    1bde:	0070                	addi	a2,sp,12
    1be0:	4589                	li	a1,2
    1be2:	00851793          	slli	a5,a0,0x8
    1be6:	8121                	srli	a0,a0,0x8
    1be8:	8d5d                	or	a0,a0,a5
    1bea:	8668                	sh	a0,12(sp)
    1bec:	15a00513          	li	a0,346
    1bf0:	9cbff0ef          	jal	ra,15ba <mpu_write_mem>
    1bf4:	0141                	addi	sp,sp,16
    1bf6:	e1efe06f          	j	214 <__riscv_restore_0>

00001bfa <dmp_set_shake_reject_timeout>:
    1bfa:	df6fe2ef          	jal	t0,1f0 <__riscv_save_0>
    1bfe:	4795                	li	a5,5
    1c00:	02f55533          	divu	a0,a0,a5
    1c04:	1141                	addi	sp,sp,-16
    1c06:	0070                	addi	a2,sp,12
    1c08:	4589                	li	a1,2
    1c0a:	00851793          	slli	a5,a0,0x8
    1c0e:	8121                	srli	a0,a0,0x8
    1c10:	8d5d                	or	a0,a0,a5
    1c12:	8668                	sh	a0,12(sp)
    1c14:	15800513          	li	a0,344
    1c18:	9a3ff0ef          	jal	ra,15ba <mpu_write_mem>
    1c1c:	0141                	addi	sp,sp,16
    1c1e:	df6fe06f          	j	214 <__riscv_restore_0>

00001c22 <dmp_get_pedometer_step_count>:
    1c22:	e519                	bnez	a0,1c30 <dmp_get_pedometer_step_count+0xe>
    1c24:	557d                	li	a0,-1
    1c26:	8082                	ret
    1c28:	557d                	li	a0,-1
    1c2a:	0141                	addi	sp,sp,16
    1c2c:	de8fe06f          	j	214 <__riscv_restore_0>
    1c30:	dc0fe2ef          	jal	t0,1f0 <__riscv_save_0>
    1c34:	1141                	addi	sp,sp,-16
    1c36:	842a                	mv	s0,a0
    1c38:	0070                	addi	a2,sp,12
    1c3a:	4591                	li	a1,4
    1c3c:	36000513          	li	a0,864
    1c40:	9e5ff0ef          	jal	ra,1624 <mpu_read_mem>
    1c44:	f175                	bnez	a0,1c28 <dmp_get_pedometer_step_count+0x6>
    1c46:	861c                	lbu	a5,12(sp)
    1c48:	8698                	lbu	a4,13(sp)
    1c4a:	07e2                	slli	a5,a5,0x18
    1c4c:	0742                	slli	a4,a4,0x10
    1c4e:	8fd9                	or	a5,a5,a4
    1c50:	8798                	lbu	a4,15(sp)
    1c52:	8fd9                	or	a5,a5,a4
    1c54:	8718                	lbu	a4,14(sp)
    1c56:	0722                	slli	a4,a4,0x8
    1c58:	8fd9                	or	a5,a5,a4
    1c5a:	c01c                	sw	a5,0(s0)
    1c5c:	b7f9                	j	1c2a <dmp_get_pedometer_step_count+0x8>

00001c5e <dmp_enable_gyro_cal>:
    1c5e:	d92fe2ef          	jal	t0,1f0 <__riscv_save_0>
    1c62:	1141                	addi	sp,sp,-16
    1c64:	c511                	beqz	a0,1c70 <dmp_enable_gyro_cal+0x12>
    1c66:	b4fff0ef          	jal	ra,17b4 <dmp_enable_gyro_cal.part.0>
    1c6a:	0141                	addi	sp,sp,16
    1c6c:	da8fe06f          	j	214 <__riscv_restore_0>
    1c70:	659d                	lui	a1,0x7
    1c72:	4625                	li	a2,9
    1c74:	5a858593          	addi	a1,a1,1448 # 75a8 <_read+0x18>
    1c78:	0048                	addi	a0,sp,4
    1c7a:	258040ef          	jal	ra,5ed2 <memcpy>
    1c7e:	0050                	addi	a2,sp,4
    1c80:	45a5                	li	a1,9
    1c82:	4b800513          	li	a0,1208
    1c86:	935ff0ef          	jal	ra,15ba <mpu_write_mem>
    1c8a:	b7c5                	j	1c6a <dmp_enable_gyro_cal+0xc>

00001c8c <dmp_enable_lp_quat>:
    1c8c:	d64fe2ef          	jal	t0,1f0 <__riscv_save_0>
    1c90:	1141                	addi	sp,sp,-16
    1c92:	c115                	beqz	a0,1cb6 <dmp_enable_lp_quat+0x2a>
    1c94:	c6c4c7b7          	lui	a5,0xc6c4c
    1c98:	2c078793          	addi	a5,a5,704 # c6c4c2c0 <_eusrstack+0xa6c442c0>
    1c9c:	6505                	lui	a0,0x1
    1c9e:	0070                	addi	a2,sp,12
    1ca0:	4591                	li	a1,4
    1ca2:	a9850513          	addi	a0,a0,-1384 # a98 <USART_Init+0x34>
    1ca6:	c63e                	sw	a5,12(sp)
    1ca8:	913ff0ef          	jal	ra,15ba <mpu_write_mem>
    1cac:	89aff0ef          	jal	ra,d46 <mpu_reset_fifo>
    1cb0:	0141                	addi	sp,sp,16
    1cb2:	d62fe06f          	j	214 <__riscv_restore_0>
    1cb6:	8b8b97b7          	lui	a5,0x8b8b9
    1cba:	b8b78793          	addi	a5,a5,-1141 # 8b8b8b8b <_eusrstack+0x6b8b0b8b>
    1cbe:	bff9                	j	1c9c <dmp_enable_lp_quat+0x10>

00001cc0 <dmp_enable_6x_lp_quat>:
    1cc0:	d30fe2ef          	jal	t0,1f0 <__riscv_save_0>
    1cc4:	1141                	addi	sp,sp,-16
    1cc6:	c115                	beqz	a0,1cea <dmp_enable_6x_lp_quat+0x2a>
    1cc8:	383037b7          	lui	a5,0x38303
    1ccc:	82078793          	addi	a5,a5,-2016 # 38302820 <_eusrstack+0x182fa820>
    1cd0:	6505                	lui	a0,0x1
    1cd2:	0070                	addi	a2,sp,12
    1cd4:	4591                	li	a1,4
    1cd6:	a9e50513          	addi	a0,a0,-1378 # a9e <USART_Init+0x3a>
    1cda:	c63e                	sw	a5,12(sp)
    1cdc:	8dfff0ef          	jal	ra,15ba <mpu_write_mem>
    1ce0:	866ff0ef          	jal	ra,d46 <mpu_reset_fifo>
    1ce4:	0141                	addi	sp,sp,16
    1ce6:	d2efe06f          	j	214 <__riscv_restore_0>
    1cea:	a3a3a7b7          	lui	a5,0xa3a3a
    1cee:	3a378793          	addi	a5,a5,931 # a3a3a3a3 <_eusrstack+0x83a323a3>
    1cf2:	bff9                	j	1cd0 <dmp_enable_6x_lp_quat+0x10>

00001cf4 <dmp_enable_feature>:
    1cf4:	ce2fe2ef          	jal	t0,1d6 <__riscv_save_4>
    1cf8:	1141                	addi	sp,sp,-16
    1cfa:	09e3d7b7          	lui	a5,0x9e3d
    1cfe:	a0278793          	addi	a5,a5,-1534 # 9e3ca02 <_data_lma+0x9e3412e>
    1d02:	842a                	mv	s0,a0
    1d04:	0050                	addi	a2,sp,4
    1d06:	4591                	li	a1,4
    1d08:	06800513          	li	a0,104
    1d0c:	c23e                	sw	a5,4(sp)
    1d0e:	8adff0ef          	jal	ra,15ba <mpu_write_mem>
    1d12:	fa300793          	li	a5,-93
    1d16:	825c                	sb	a5,4(sp)
    1d18:	04047a13          	andi	s4,s0,64
    1d1c:	140a0b63          	beqz	s4,1e72 <dmp_enable_feature+0x17e>
    1d20:	fc000793          	li	a5,-64
    1d24:	82dc                	sb	a5,5(sp)
    1d26:	77f1                	lui	a5,0xffffc
    1d28:	2c878793          	addi	a5,a5,712 # ffffc2c8 <_eusrstack+0xdfff42c8>
    1d2c:	837c                	sh	a5,6(sp)
    1d2e:	18047913          	andi	s2,s0,384
    1d32:	14090563          	beqz	s2,1e7c <dmp_enable_feature+0x188>
    1d36:	77f5                	lui	a5,0xffffd
    1d38:	cc478793          	addi	a5,a5,-828 # ffffccc4 <_eusrstack+0xdfff4cc4>
    1d3c:	847c                	sh	a5,8(sp)
    1d3e:	fc600793          	li	a5,-58
    1d42:	855c                	sb	a5,10(sp)
    1d44:	fa300793          	li	a5,-93
    1d48:	85dc                	sb	a5,11(sp)
    1d4a:	6505                	lui	a0,0x1
    1d4c:	77e9                	lui	a5,0xffffa
    1d4e:	3a378793          	addi	a5,a5,931 # ffffa3a3 <_eusrstack+0xdfff23a3>
    1d52:	0050                	addi	a2,sp,4
    1d54:	45a9                	li	a1,10
    1d56:	aa750513          	addi	a0,a0,-1369 # aa7 <USART_Init+0x43>
    1d5a:	867c                	sh	a5,12(sp)
    1d5c:	00347993          	andi	s3,s0,3
    1d60:	85bff0ef          	jal	ra,15ba <mpu_write_mem>
    1d64:	0d800793          	li	a5,216
    1d68:	00098463          	beqz	s3,1d70 <dmp_enable_feature+0x7c>
    1d6c:	02000793          	li	a5,32
    1d70:	6505                	lui	a0,0x1
    1d72:	0050                	addi	a2,sp,4
    1d74:	4585                	li	a1,1
    1d76:	ab650513          	addi	a0,a0,-1354 # ab6 <USART_Init+0x52>
    1d7a:	825c                	sb	a5,4(sp)
    1d7c:	83fff0ef          	jal	ra,15ba <mpu_write_mem>
    1d80:	02047793          	andi	a5,s0,32
    1d84:	10078363          	beqz	a5,1e8a <dmp_enable_feature+0x196>
    1d88:	a2dff0ef          	jal	ra,17b4 <dmp_enable_gyro_cal.part.0>
    1d8c:	02090263          	beqz	s2,1db0 <dmp_enable_feature+0xbc>
    1d90:	10047793          	andi	a5,s0,256
    1d94:	0e078e63          	beqz	a5,1e90 <dmp_enable_feature+0x19c>
    1d98:	9bb697b7          	lui	a5,0x9bb69
    1d9c:	bb278793          	addi	a5,a5,-1102 # 9bb68bb2 <_eusrstack+0x7bb60bb2>
    1da0:	6505                	lui	a0,0x1
    1da2:	0050                	addi	a2,sp,4
    1da4:	4591                	li	a1,4
    1da6:	aa250513          	addi	a0,a0,-1374 # aa2 <USART_Init+0x3e>
    1daa:	c23e                	sw	a5,4(sp)
    1dac:	80fff0ef          	jal	ra,15ba <mpu_write_mem>
    1db0:	00147793          	andi	a5,s0,1
    1db4:	0e078363          	beqz	a5,1e9a <dmp_enable_feature+0x1a6>
    1db8:	6505                	lui	a0,0x1
    1dba:	57e1                	li	a5,-8
    1dbc:	0050                	addi	a2,sp,4
    1dbe:	4585                	li	a1,1
    1dc0:	8b050513          	addi	a0,a0,-1872 # 8b0 <__stack_size+0xb0>
    1dc4:	825c                	sb	a5,4(sp)
    1dc6:	ff4ff0ef          	jal	ra,15ba <mpu_write_mem>
    1dca:	0fa00593          	li	a1,250
    1dce:	451d                	li	a0,7
    1dd0:	b77ff0ef          	jal	ra,1946 <dmp_set_tap_thresh>
    1dd4:	451d                	li	a0,7
    1dd6:	39ed                	jal	1ad0 <dmp_set_tap_axes>
    1dd8:	4505                	li	a0,1
    1dda:	3b35                	jal	1b16 <dmp_set_tap_count>
    1ddc:	06400513          	li	a0,100
    1de0:	3395                	jal	1b44 <dmp_set_tap_time>
    1de2:	1f400513          	li	a0,500
    1de6:	3359                	jal	1b6c <dmp_set_tap_time_multi>
    1de8:	02cae537          	lui	a0,0x2cae
    1dec:	0c800593          	li	a1,200
    1df0:	30950513          	addi	a0,a0,777 # 2cae309 <_data_lma+0x2ca5a35>
    1df4:	3345                	jal	1b94 <dmp_set_shake_reject_thresh>
    1df6:	02800513          	li	a0,40
    1dfa:	3be1                	jal	1bd2 <dmp_set_shake_reject_time>
    1dfc:	4529                	li	a0,10
    1dfe:	3bf5                	jal	1bfa <dmp_set_shake_reject_timeout>
    1e00:	00247793          	andi	a5,s0,2
    1e04:	00f037b3          	snez	a5,a5
    1e08:	0d878793          	addi	a5,a5,216
    1e0c:	0050                	addi	a2,sp,4
    1e0e:	4585                	li	a1,1
    1e10:	73d00513          	li	a0,1853
    1e14:	825c                	sb	a5,4(sp)
    1e16:	fa4ff0ef          	jal	ra,15ba <mpu_write_mem>
    1e1a:	00447793          	andi	a5,s0,4
    1e1e:	4505                	li	a0,1
    1e20:	e391                	bnez	a5,1e24 <dmp_enable_feature+0x130>
    1e22:	4501                	li	a0,0
    1e24:	35a5                	jal	1c8c <dmp_enable_lp_quat>
    1e26:	01047793          	andi	a5,s0,16
    1e2a:	4505                	li	a0,1
    1e2c:	e391                	bnez	a5,1e30 <dmp_enable_feature+0x13c>
    1e2e:	4501                	li	a0,0
    1e30:	3d41                	jal	1cc0 <dmp_enable_6x_lp_quat>
    1e32:	85418793          	addi	a5,gp,-1964 # 2000011c <dmp>
    1e36:	00846713          	ori	a4,s0,8
    1e3a:	a7ba                	sh	a4,10(a5)
    1e3c:	f0bfe0ef          	jal	ra,d46 <mpu_reset_fifo>
    1e40:	85418793          	addi	a5,gp,-1964 # 2000011c <dmp>
    1e44:	060a1663          	bnez	s4,1eb0 <dmp_enable_feature+0x1bc>
    1e48:	00078723          	sb	zero,14(a5)
    1e4c:	00090563          	beqz	s2,1e56 <dmp_enable_feature+0x162>
    1e50:	27f8                	lbu	a4,14(a5)
    1e52:	0719                	addi	a4,a4,6
    1e54:	a7f8                	sb	a4,14(a5)
    1e56:	8851                	andi	s0,s0,20
    1e58:	c401                	beqz	s0,1e60 <dmp_enable_feature+0x16c>
    1e5a:	27f8                	lbu	a4,14(a5)
    1e5c:	0741                	addi	a4,a4,16
    1e5e:	a7f8                	sb	a4,14(a5)
    1e60:	00098563          	beqz	s3,1e6a <dmp_enable_feature+0x176>
    1e64:	27f8                	lbu	a4,14(a5)
    1e66:	0711                	addi	a4,a4,4
    1e68:	a7f8                	sb	a4,14(a5)
    1e6a:	4501                	li	a0,0
    1e6c:	0141                	addi	sp,sp,16
    1e6e:	b9cfe06f          	j	20a <__riscv_restore_4>
    1e72:	82dc                	sb	a5,5(sp)
    1e74:	77e9                	lui	a5,0xffffa
    1e76:	3a378793          	addi	a5,a5,931 # ffffa3a3 <_eusrstack+0xdfff23a3>
    1e7a:	bd4d                	j	1d2c <dmp_enable_feature+0x38>
    1e7c:	77e9                	lui	a5,0xffffa
    1e7e:	3a378793          	addi	a5,a5,931 # ffffa3a3 <_eusrstack+0xdfff23a3>
    1e82:	847c                	sh	a5,8(sp)
    1e84:	fa300793          	li	a5,-93
    1e88:	bd6d                	j	1d42 <dmp_enable_feature+0x4e>
    1e8a:	4501                	li	a0,0
    1e8c:	3bc9                	jal	1c5e <dmp_enable_gyro_cal>
    1e8e:	bdfd                	j	1d8c <dmp_enable_feature+0x98>
    1e90:	90b487b7          	lui	a5,0x90b48
    1e94:	0b078793          	addi	a5,a5,176 # 90b480b0 <_eusrstack+0x70b400b0>
    1e98:	b721                	j	1da0 <dmp_enable_feature+0xac>
    1e9a:	6505                	lui	a0,0x1
    1e9c:	fd800793          	li	a5,-40
    1ea0:	0050                	addi	a2,sp,4
    1ea2:	4585                	li	a1,1
    1ea4:	8b050513          	addi	a0,a0,-1872 # 8b0 <__stack_size+0xb0>
    1ea8:	825c                	sb	a5,4(sp)
    1eaa:	f10ff0ef          	jal	ra,15ba <mpu_write_mem>
    1eae:	bf89                	j	1e00 <dmp_enable_feature+0x10c>
    1eb0:	4719                	li	a4,6
    1eb2:	a7f8                	sb	a4,14(a5)
    1eb4:	bf61                	j	1e4c <dmp_enable_feature+0x158>

00001eb6 <dmp_read_fifo>:
    1eb6:	b12fe2ef          	jal	t0,1c8 <__riscv_save_10>
    1eba:	85418b93          	addi	s7,gp,-1964 # 2000011c <dmp>
    1ebe:	84aa                	mv	s1,a0
    1ec0:	00ebc503          	lbu	a0,14(s7) # 1000e <_data_lma+0x773a>
    1ec4:	1101                	addi	sp,sp,-32
    1ec6:	892e                	mv	s2,a1
    1ec8:	8b32                	mv	s6,a2
    1eca:	00071023          	sh	zero,0(a4)
    1ece:	863e                	mv	a2,a5
    1ed0:	858a                	mv	a1,sp
    1ed2:	8436                	mv	s0,a3
    1ed4:	89ba                	mv	s3,a4
    1ed6:	9c6ff0ef          	jal	ra,109c <mpu_read_fifo_stream>
    1eda:	e545                	bnez	a0,1f82 <dmp_read_fifo+0xcc>
    1edc:	00abd703          	lhu	a4,10(s7)
    1ee0:	8aaa                	mv	s5,a0
    1ee2:	85418a13          	addi	s4,gp,-1964 # 2000011c <dmp>
    1ee6:	01477793          	andi	a5,a4,20
    1eea:	18078163          	beqz	a5,206c <dmp_read_fifo+0x1b6>
    1eee:	801c                	lbu	a5,0(sp)
    1ef0:	8094                	lbu	a3,1(sp)
    1ef2:	8290                	lbu	a2,5(sp)
    1ef4:	07e2                	slli	a5,a5,0x18
    1ef6:	06c2                	slli	a3,a3,0x10
    1ef8:	8fd5                	or	a5,a5,a3
    1efa:	8194                	lbu	a3,3(sp)
    1efc:	0642                	slli	a2,a2,0x10
    1efe:	840c                	lbu	a1,8(sp)
    1f00:	8fd5                	or	a5,a5,a3
    1f02:	8114                	lbu	a3,2(sp)
    1f04:	05e2                	slli	a1,a1,0x18
    1f06:	8688                	lbu	a0,13(sp)
    1f08:	06a2                	slli	a3,a3,0x8
    1f0a:	8fd5                	or	a5,a5,a3
    1f0c:	8214                	lbu	a3,4(sp)
    1f0e:	00fb2023          	sw	a5,0(s6)
    1f12:	87c1                	srai	a5,a5,0x10
    1f14:	06e2                	slli	a3,a3,0x18
    1f16:	8ed1                	or	a3,a3,a2
    1f18:	8390                	lbu	a2,7(sp)
    1f1a:	02f787b3          	mul	a5,a5,a5
    1f1e:	0542                	slli	a0,a0,0x10
    1f20:	8ed1                	or	a3,a3,a2
    1f22:	8310                	lbu	a2,6(sp)
    1f24:	0622                	slli	a2,a2,0x8
    1f26:	8ed1                	or	a3,a3,a2
    1f28:	8490                	lbu	a2,9(sp)
    1f2a:	00db2223          	sw	a3,4(s6)
    1f2e:	86c1                	srai	a3,a3,0x10
    1f30:	0642                	slli	a2,a2,0x10
    1f32:	8dd1                	or	a1,a1,a2
    1f34:	8590                	lbu	a2,11(sp)
    1f36:	02d686b3          	mul	a3,a3,a3
    1f3a:	8dd1                	or	a1,a1,a2
    1f3c:	8510                	lbu	a2,10(sp)
    1f3e:	0622                	slli	a2,a2,0x8
    1f40:	8dd1                	or	a1,a1,a2
    1f42:	8610                	lbu	a2,12(sp)
    1f44:	00bb2423          	sw	a1,8(s6)
    1f48:	85c1                	srai	a1,a1,0x10
    1f4a:	0662                	slli	a2,a2,0x18
    1f4c:	8e49                	or	a2,a2,a0
    1f4e:	8788                	lbu	a0,15(sp)
    1f50:	96be                	add	a3,a3,a5
    1f52:	02b587b3          	mul	a5,a1,a1
    1f56:	8e49                	or	a2,a2,a0
    1f58:	8708                	lbu	a0,14(sp)
    1f5a:	0522                	slli	a0,a0,0x8
    1f5c:	8e49                	or	a2,a2,a0
    1f5e:	00cb2623          	sw	a2,12(s6)
    1f62:	8641                	srai	a2,a2,0x10
    1f64:	02c60633          	mul	a2,a2,a2
    1f68:	97b6                	add	a5,a5,a3
    1f6a:	f10006b7          	lui	a3,0xf1000
    1f6e:	97b2                	add	a5,a5,a2
    1f70:	97b6                	add	a5,a5,a3
    1f72:	020006b7          	lui	a3,0x2000
    1f76:	00f6f863          	bgeu	a3,a5,1f86 <dmp_read_fifo+0xd0>
    1f7a:	dcdfe0ef          	jal	ra,d46 <mpu_reset_fifo>
    1f7e:	00099023          	sh	zero,0(s3)
    1f82:	5afd                	li	s5,-1
    1f84:	a0c5                	j	2064 <dmp_read_fifo+0x1ae>
    1f86:	0009d783          	lhu	a5,0(s3)
    1f8a:	1007e793          	ori	a5,a5,256
    1f8e:	00f99023          	sh	a5,0(s3)
    1f92:	47c1                	li	a5,16
    1f94:	04077693          	andi	a3,a4,64
    1f98:	c6a1                	beqz	a3,1fe0 <dmp_read_fifo+0x12a>
    1f9a:	1014                	addi	a3,sp,32
    1f9c:	96be                	add	a3,a3,a5
    1f9e:	fe06c603          	lbu	a2,-32(a3) # 1ffffe0 <_data_lma+0x1ff770c>
    1fa2:	fe16c583          	lbu	a1,-31(a3)
    1fa6:	0799                	addi	a5,a5,6
    1fa8:	0622                	slli	a2,a2,0x8
    1faa:	8e4d                	or	a2,a2,a1
    1fac:	00c91023          	sh	a2,0(s2)
    1fb0:	fe26c603          	lbu	a2,-30(a3)
    1fb4:	fe36c583          	lbu	a1,-29(a3)
    1fb8:	0ff7f793          	andi	a5,a5,255
    1fbc:	0622                	slli	a2,a2,0x8
    1fbe:	8e4d                	or	a2,a2,a1
    1fc0:	00c91123          	sh	a2,2(s2)
    1fc4:	fe46c603          	lbu	a2,-28(a3)
    1fc8:	fe56c683          	lbu	a3,-27(a3)
    1fcc:	0622                	slli	a2,a2,0x8
    1fce:	8ed1                	or	a3,a3,a2
    1fd0:	00d91223          	sh	a3,4(s2)
    1fd4:	0009d683          	lhu	a3,0(s3)
    1fd8:	0086e693          	ori	a3,a3,8
    1fdc:	00d99023          	sh	a3,0(s3)
    1fe0:	18077693          	andi	a3,a4,384
    1fe4:	c2a9                	beqz	a3,2026 <dmp_read_fifo+0x170>
    1fe6:	1014                	addi	a3,sp,32
    1fe8:	96be                	add	a3,a3,a5
    1fea:	fe06c603          	lbu	a2,-32(a3)
    1fee:	fe16c583          	lbu	a1,-31(a3)
    1ff2:	0799                	addi	a5,a5,6
    1ff4:	0622                	slli	a2,a2,0x8
    1ff6:	8e4d                	or	a2,a2,a1
    1ff8:	a092                	sh	a2,0(s1)
    1ffa:	fe26c603          	lbu	a2,-30(a3)
    1ffe:	fe36c583          	lbu	a1,-29(a3)
    2002:	0ff7f793          	andi	a5,a5,255
    2006:	0622                	slli	a2,a2,0x8
    2008:	8e4d                	or	a2,a2,a1
    200a:	a0b2                	sh	a2,2(s1)
    200c:	fe46c603          	lbu	a2,-28(a3)
    2010:	fe56c683          	lbu	a3,-27(a3)
    2014:	0622                	slli	a2,a2,0x8
    2016:	8ed1                	or	a3,a3,a2
    2018:	a0d6                	sh	a3,4(s1)
    201a:	0009d683          	lhu	a3,0(s3)
    201e:	0706e693          	ori	a3,a3,112
    2022:	00d99023          	sh	a3,0(s3)
    2026:	8b0d                	andi	a4,a4,3
    2028:	cb1d                	beqz	a4,205e <dmp_read_fifo+0x1a8>
    202a:	00f104b3          	add	s1,sp,a5
    202e:	309c                	lbu	a5,1(s1)
    2030:	0034c903          	lbu	s2,3(s1)
    2034:	8b85                	andi	a5,a5,1
    2036:	cb99                	beqz	a5,204c <dmp_read_fifo+0x196>
    2038:	000a2783          	lw	a5,0(s4)
    203c:	cb81                	beqz	a5,204c <dmp_read_fifo+0x196>
    203e:	00797593          	andi	a1,s2,7
    2042:	00395513          	srli	a0,s2,0x3
    2046:	0585                	addi	a1,a1,1
    2048:	891d                	andi	a0,a0,7
    204a:	9782                	jalr	a5
    204c:	309c                	lbu	a5,1(s1)
    204e:	8ba1                	andi	a5,a5,8
    2050:	c799                	beqz	a5,205e <dmp_read_fifo+0x1a8>
    2052:	004a2783          	lw	a5,4(s4)
    2056:	c781                	beqz	a5,205e <dmp_read_fifo+0x1a8>
    2058:	00695513          	srli	a0,s2,0x6
    205c:	9782                	jalr	a5
    205e:	82c1a783          	lw	a5,-2004(gp) # 200000f4 <uwtick>
    2062:	c01c                	sw	a5,0(s0)
    2064:	8556                	mv	a0,s5
    2066:	6105                	addi	sp,sp,32
    2068:	998fe06f          	j	200 <__riscv_restore_10>
    206c:	4781                	li	a5,0
    206e:	b71d                	j	1f94 <dmp_read_fifo+0xde>

00002070 <MPU6050_WriteReg_HAL>:
    2070:	980fe2ef          	jal	t0,1f0 <__riscv_save_0>
    2074:	1141                	addi	sp,sp,-16
    2076:	c42e                	sw	a1,8(sp)
    2078:	84b2                	mv	s1,a2
    207a:	8436                	mv	s0,a3
    207c:	c62a                	sw	a0,12(sp)
    207e:	b2ffe0ef          	jal	ra,bac <SOFT_I2C_Start>
    2082:	4532                	lw	a0,12(sp)
    2084:	0506                	slli	a0,a0,0x1
    2086:	0fe57513          	andi	a0,a0,254
    208a:	b79fe0ef          	jal	ra,c02 <SOFT_I2C_SendByte>
    208e:	c1ffe0ef          	jal	ra,cac <SOFT_I2C_ReceiveAck>
    2092:	45a2                	lw	a1,8(sp)
    2094:	c519                	beqz	a0,20a2 <MPU6050_WriteReg_HAL+0x32>
    2096:	b49fe0ef          	jal	ra,bde <SOFT_I2C_Stop>
    209a:	557d                	li	a0,-1
    209c:	0141                	addi	sp,sp,16
    209e:	976fe06f          	j	214 <__riscv_restore_0>
    20a2:	852e                	mv	a0,a1
    20a4:	b5ffe0ef          	jal	ra,c02 <SOFT_I2C_SendByte>
    20a8:	c05fe0ef          	jal	ra,cac <SOFT_I2C_ReceiveAck>
    20ac:	e901                	bnez	a0,20bc <MPU6050_WriteReg_HAL+0x4c>
    20ae:	94a2                	add	s1,s1,s0
    20b0:	00941a63          	bne	s0,s1,20c4 <MPU6050_WriteReg_HAL+0x54>
    20b4:	b2bfe0ef          	jal	ra,bde <SOFT_I2C_Stop>
    20b8:	4501                	li	a0,0
    20ba:	b7cd                	j	209c <MPU6050_WriteReg_HAL+0x2c>
    20bc:	b23fe0ef          	jal	ra,bde <SOFT_I2C_Stop>
    20c0:	5579                	li	a0,-2
    20c2:	bfe9                	j	209c <MPU6050_WriteReg_HAL+0x2c>
    20c4:	2008                	lbu	a0,0(s0)
    20c6:	0405                	addi	s0,s0,1
    20c8:	b3bfe0ef          	jal	ra,c02 <SOFT_I2C_SendByte>
    20cc:	be1fe0ef          	jal	ra,cac <SOFT_I2C_ReceiveAck>
    20d0:	d165                	beqz	a0,20b0 <MPU6050_WriteReg_HAL+0x40>
    20d2:	b0dfe0ef          	jal	ra,bde <SOFT_I2C_Stop>
    20d6:	5575                	li	a0,-3
    20d8:	b7d1                	j	209c <MPU6050_WriteReg_HAL+0x2c>

000020da <MPU6050_ReadReg_HAL>:
    20da:	8fcfe2ef          	jal	t0,1d6 <__riscv_save_4>
    20de:	1141                	addi	sp,sp,-16
    20e0:	842a                	mv	s0,a0
    20e2:	c62e                	sw	a1,12(sp)
    20e4:	84b2                	mv	s1,a2
    20e6:	8936                	mv	s2,a3
    20e8:	0406                	slli	s0,s0,0x1
    20ea:	ac3fe0ef          	jal	ra,bac <SOFT_I2C_Start>
    20ee:	0fe47513          	andi	a0,s0,254
    20f2:	b11fe0ef          	jal	ra,c02 <SOFT_I2C_SendByte>
    20f6:	bb7fe0ef          	jal	ra,cac <SOFT_I2C_ReceiveAck>
    20fa:	45b2                	lw	a1,12(sp)
    20fc:	c519                	beqz	a0,210a <MPU6050_ReadReg_HAL+0x30>
    20fe:	ae1fe0ef          	jal	ra,bde <SOFT_I2C_Stop>
    2102:	557d                	li	a0,-1
    2104:	0141                	addi	sp,sp,16
    2106:	904fe06f          	j	20a <__riscv_restore_4>
    210a:	852e                	mv	a0,a1
    210c:	af7fe0ef          	jal	ra,c02 <SOFT_I2C_SendByte>
    2110:	b9dfe0ef          	jal	ra,cac <SOFT_I2C_ReceiveAck>
    2114:	c509                	beqz	a0,211e <MPU6050_ReadReg_HAL+0x44>
    2116:	ac9fe0ef          	jal	ra,bde <SOFT_I2C_Stop>
    211a:	5579                	li	a0,-2
    211c:	b7e5                	j	2104 <MPU6050_ReadReg_HAL+0x2a>
    211e:	a8ffe0ef          	jal	ra,bac <SOFT_I2C_Start>
    2122:	00146513          	ori	a0,s0,1
    2126:	0ff57513          	andi	a0,a0,255
    212a:	ad9fe0ef          	jal	ra,c02 <SOFT_I2C_SendByte>
    212e:	b7ffe0ef          	jal	ra,cac <SOFT_I2C_ReceiveAck>
    2132:	f571                	bnez	a0,20fe <MPU6050_ReadReg_HAL+0x24>
    2134:	4401                	li	s0,0
    2136:	fff48993          	addi	s3,s1,-1
    213a:	00941663          	bne	s0,s1,2146 <MPU6050_ReadReg_HAL+0x6c>
    213e:	aa1fe0ef          	jal	ra,bde <SOFT_I2C_Stop>
    2142:	4501                	li	a0,0
    2144:	b7c1                	j	2104 <MPU6050_ReadReg_HAL+0x2a>
    2146:	af9fe0ef          	jal	ra,c3e <SOFT_I2C_ReceiveByte>
    214a:	008907b3          	add	a5,s2,s0
    214e:	a388                	sb	a0,0(a5)
    2150:	40898533          	sub	a0,s3,s0
    2154:	00153513          	seqz	a0,a0
    2158:	b31fe0ef          	jal	ra,c88 <SOFT_I2C_SendAck>
    215c:	0405                	addi	s0,s0,1
    215e:	bff1                	j	213a <MPU6050_ReadReg_HAL+0x60>

00002160 <MPU6050_ReadReg>:
    2160:	890fe2ef          	jal	t0,1f0 <__riscv_save_0>
    2164:	842a                	mv	s0,a0
    2166:	a47fe0ef          	jal	ra,bac <SOFT_I2C_Start>
    216a:	0d000513          	li	a0,208
    216e:	a95fe0ef          	jal	ra,c02 <SOFT_I2C_SendByte>
    2172:	b3bfe0ef          	jal	ra,cac <SOFT_I2C_ReceiveAck>
    2176:	8522                	mv	a0,s0
    2178:	a8bfe0ef          	jal	ra,c02 <SOFT_I2C_SendByte>
    217c:	b31fe0ef          	jal	ra,cac <SOFT_I2C_ReceiveAck>
    2180:	a2dfe0ef          	jal	ra,bac <SOFT_I2C_Start>
    2184:	0d100513          	li	a0,209
    2188:	a7bfe0ef          	jal	ra,c02 <SOFT_I2C_SendByte>
    218c:	b21fe0ef          	jal	ra,cac <SOFT_I2C_ReceiveAck>
    2190:	aaffe0ef          	jal	ra,c3e <SOFT_I2C_ReceiveByte>
    2194:	842a                	mv	s0,a0
    2196:	4505                	li	a0,1
    2198:	af1fe0ef          	jal	ra,c88 <SOFT_I2C_SendAck>
    219c:	a43fe0ef          	jal	ra,bde <SOFT_I2C_Stop>
    21a0:	8522                	mv	a0,s0
    21a2:	872fe06f          	j	214 <__riscv_restore_0>

000021a6 <MPU6050_GetID>:
    21a6:	84afe2ef          	jal	t0,1f0 <__riscv_save_0>
    21aa:	07500513          	li	a0,117
    21ae:	3f4d                	jal	2160 <MPU6050_ReadReg>
    21b0:	864fe06f          	j	214 <__riscv_restore_0>

000021b4 <dmp_getwalk>:
    21b4:	83cfe2ef          	jal	t0,1f0 <__riscv_save_0>
    21b8:	84018413          	addi	s0,gp,-1984 # 20000108 <walk>
    21bc:	84018513          	addi	a0,gp,-1984 # 20000108 <walk>
    21c0:	a63ff0ef          	jal	ra,1c22 <dmp_get_pedometer_step_count>
    21c4:	400c                	lw	a1,0(s0)
    21c6:	00008537          	lui	a0,0x8
    21ca:	2ec50513          	addi	a0,a0,748 # 82ec <dmp_memory+0xc20>
    21ce:	5b7030ef          	jal	ra,5f84 <iprintf>
    21d2:	4008                	lw	a0,0(s0)
    21d4:	181030ef          	jal	ra,5b54 <__floatunsisf>
    21d8:	8101a583          	lw	a1,-2032(gp) # 200000d8 <steplength>
    21dc:	1de030ef          	jal	ra,53ba <__mulsf3>
    21e0:	82a1aa23          	sw	a0,-1996(gp) # 200000fc <Distance>
    21e4:	000087b7          	lui	a5,0x8
    21e8:	2e87a583          	lw	a1,744(a5) # 82e8 <dmp_memory+0xc1c>
    21ec:	1ce030ef          	jal	ra,53ba <__mulsf3>
    21f0:	7e6030ef          	jal	ra,59d6 <__fixsfsi>
    21f4:	85aa                	mv	a1,a0
    21f6:	00008537          	lui	a0,0x8
    21fa:	2f850513          	addi	a0,a0,760 # 82f8 <dmp_memory+0xc2c>
    21fe:	587030ef          	jal	ra,5f84 <iprintf>
    2202:	812fe06f          	j	214 <__riscv_restore_0>

00002206 <mpu6050_task>:
    2206:	fc3fd2ef          	jal	t0,1c8 <__riscv_save_10>
    220a:	1141                	addi	sp,sp,-16
    220c:	3765                	jal	21b4 <dmp_getwalk>
    220e:	000087b7          	lui	a5,0x8
    2212:	3087a483          	lw	s1,776(a5) # 8308 <dmp_memory+0xc3c>
    2216:	4401                	li	s0,0
    2218:	00008ab7          	lui	s5,0x8
    221c:	8b26                	mv	s6,s1
    221e:	8ba6                	mv	s7,s1
    2220:	0405                	addi	s0,s0,1
    2222:	85a2                	mv	a1,s0
    2224:	30ca8513          	addi	a0,s5,780 # 830c <dmp_memory+0xc40>
    2228:	55d030ef          	jal	ra,5f84 <iprintf>
    222c:	83c18593          	addi	a1,gp,-1988 # 20000104 <roll>
    2230:	84418613          	addi	a2,gp,-1980 # 2000010c <yaw>
    2234:	83818513          	addi	a0,gp,-1992 # 20000100 <pitch>
    2238:	2c91                	jal	248c <MPU6050_DMP_Get_Data>
    223a:	84418d13          	addi	s10,gp,-1980 # 2000010c <yaw>
    223e:	83c18c93          	addi	s9,gp,-1988 # 20000104 <roll>
    2242:	83818c13          	addi	s8,gp,-1992 # 20000100 <pitch>
    2246:	85aa                	mv	a1,a0
    2248:	e539                	bnez	a0,2296 <mpu6050_task+0x90>
    224a:	000d2503          	lw	a0,0(s10)
    224e:	85a6                	mv	a1,s1
    2250:	16a030ef          	jal	ra,53ba <__mulsf3>
    2254:	782030ef          	jal	ra,59d6 <__fixsfsi>
    2258:	c62a                	sw	a0,12(sp)
    225a:	000ca503          	lw	a0,0(s9)
    225e:	85da                	mv	a1,s6
    2260:	15a030ef          	jal	ra,53ba <__mulsf3>
    2264:	772030ef          	jal	ra,59d6 <__fixsfsi>
    2268:	c42a                	sw	a0,8(sp)
    226a:	000c2503          	lw	a0,0(s8)
    226e:	85de                	mv	a1,s7
    2270:	14a030ef          	jal	ra,53ba <__mulsf3>
    2274:	762030ef          	jal	ra,59d6 <__fixsfsi>
    2278:	46b2                	lw	a3,12(sp)
    227a:	4622                	lw	a2,8(sp)
    227c:	85aa                	mv	a1,a0
    227e:	00008537          	lui	a0,0x8
    2282:	32450513          	addi	a0,a0,804 # 8324 <dmp_memory+0xc58>
    2286:	4ff030ef          	jal	ra,5f84 <iprintf>
    228a:	47a9                	li	a5,10
    228c:	f8f41ae3          	bne	s0,a5,2220 <mpu6050_task+0x1a>
    2290:	0141                	addi	sp,sp,16
    2292:	f6ffd06f          	j	200 <__riscv_restore_10>
    2296:	00008537          	lui	a0,0x8
    229a:	35450513          	addi	a0,a0,852 # 8354 <dmp_memory+0xc88>
    229e:	4e7030ef          	jal	ra,5f84 <iprintf>
    22a2:	b7e5                	j	228a <mpu6050_task+0x84>

000022a4 <inv_row_2_scale>:
    22a4:	00050703          	lb	a4,0(a0)
    22a8:	4781                	li	a5,0
    22aa:	02e04363          	bgtz	a4,22d0 <inv_row_2_scale+0x2c>
    22ae:	4791                	li	a5,4
    22b0:	e305                	bnez	a4,22d0 <inv_row_2_scale+0x2c>
    22b2:	00150703          	lb	a4,1(a0)
    22b6:	4785                	li	a5,1
    22b8:	00e04c63          	bgtz	a4,22d0 <inv_row_2_scale+0x2c>
    22bc:	4795                	li	a5,5
    22be:	eb09                	bnez	a4,22d0 <inv_row_2_scale+0x2c>
    22c0:	00250703          	lb	a4,2(a0)
    22c4:	4789                	li	a5,2
    22c6:	00e04563          	bgtz	a4,22d0 <inv_row_2_scale+0x2c>
    22ca:	00173793          	seqz	a5,a4
    22ce:	0799                	addi	a5,a5,6
    22d0:	853e                	mv	a0,a5
    22d2:	8082                	ret

000022d4 <MPU6050_DMP_init>:
    22d4:	f1dfd2ef          	jal	t0,1f0 <__riscv_save_0>
    22d8:	1101                	addi	sp,sp,-32
    22da:	0028                	addi	a0,sp,8
    22dc:	996ff0ef          	jal	ra,1472 <mpu_init>
    22e0:	c505                	beqz	a0,2308 <MPU6050_DMP_init+0x34>
    22e2:	000085b7          	lui	a1,0x8
    22e6:	862a                	mv	a2,a0
    22e8:	38058593          	addi	a1,a1,896 # 8380 <dmp_memory+0xcb4>
    22ec:	0068                	addi	a0,sp,12
    22ee:	5b7030ef          	jal	ra,60a4 <siprintf>
    22f2:	00008537          	lui	a0,0x8
    22f6:	006c                	addi	a1,sp,12
    22f8:	39050513          	addi	a0,a0,912 # 8390 <dmp_memory+0xcc4>
    22fc:	489030ef          	jal	ra,5f84 <iprintf>
    2300:	557d                	li	a0,-1
    2302:	6105                	addi	sp,sp,32
    2304:	f11fd06f          	j	214 <__riscv_restore_0>
    2308:	07800513          	li	a0,120
    230c:	8aaff0ef          	jal	ra,13b6 <mpu_set_sensors>
    2310:	862a                	mv	a2,a0
    2312:	c10d                	beqz	a0,2334 <MPU6050_DMP_init+0x60>
    2314:	000085b7          	lui	a1,0x8
    2318:	39458593          	addi	a1,a1,916 # 8394 <dmp_memory+0xcc8>
    231c:	0068                	addi	a0,sp,12
    231e:	587030ef          	jal	ra,60a4 <siprintf>
    2322:	00008537          	lui	a0,0x8
    2326:	006c                	addi	a1,sp,12
    2328:	39050513          	addi	a0,a0,912 # 8390 <dmp_memory+0xcc4>
    232c:	459030ef          	jal	ra,5f84 <iprintf>
    2330:	5579                	li	a0,-2
    2332:	bfc1                	j	2302 <MPU6050_DMP_init+0x2e>
    2334:	07800513          	li	a0,120
    2338:	d13fe0ef          	jal	ra,104a <mpu_configure_fifo>
    233c:	862a                	mv	a2,a0
    233e:	c10d                	beqz	a0,2360 <MPU6050_DMP_init+0x8c>
    2340:	000085b7          	lui	a1,0x8
    2344:	3ac58593          	addi	a1,a1,940 # 83ac <dmp_memory+0xce0>
    2348:	0068                	addi	a0,sp,12
    234a:	55b030ef          	jal	ra,60a4 <siprintf>
    234e:	00008537          	lui	a0,0x8
    2352:	006c                	addi	a1,sp,12
    2354:	39050513          	addi	a0,a0,912 # 8390 <dmp_memory+0xcc4>
    2358:	42d030ef          	jal	ra,5f84 <iprintf>
    235c:	5575                	li	a0,-3
    235e:	b755                	j	2302 <MPU6050_DMP_init+0x2e>
    2360:	06400513          	li	a0,100
    2364:	fbbfe0ef          	jal	ra,131e <mpu_set_sample_rate>
    2368:	862a                	mv	a2,a0
    236a:	c10d                	beqz	a0,238c <MPU6050_DMP_init+0xb8>
    236c:	000085b7          	lui	a1,0x8
    2370:	3c858593          	addi	a1,a1,968 # 83c8 <dmp_memory+0xcfc>
    2374:	0068                	addi	a0,sp,12
    2376:	52f030ef          	jal	ra,60a4 <siprintf>
    237a:	00008537          	lui	a0,0x8
    237e:	006c                	addi	a1,sp,12
    2380:	39050513          	addi	a0,a0,912 # 8390 <dmp_memory+0xcc4>
    2384:	401030ef          	jal	ra,5f84 <iprintf>
    2388:	5571                	li	a0,-4
    238a:	bfa5                	j	2302 <MPU6050_DMP_init+0x2e>
    238c:	c58ff0ef          	jal	ra,17e4 <dmp_load_motion_driver_firmware>
    2390:	862a                	mv	a2,a0
    2392:	c10d                	beqz	a0,23b4 <MPU6050_DMP_init+0xe0>
    2394:	000085b7          	lui	a1,0x8
    2398:	3e458593          	addi	a1,a1,996 # 83e4 <dmp_memory+0xd18>
    239c:	0068                	addi	a0,sp,12
    239e:	507030ef          	jal	ra,60a4 <siprintf>
    23a2:	00008537          	lui	a0,0x8
    23a6:	006c                	addi	a1,sp,12
    23a8:	39050513          	addi	a0,a0,912 # 8390 <dmp_memory+0xcc4>
    23ac:	3d9030ef          	jal	ra,5f84 <iprintf>
    23b0:	556d                	li	a0,-5
    23b2:	bf81                	j	2302 <MPU6050_DMP_init+0x2e>
    23b4:	20000537          	lui	a0,0x20000
    23b8:	05850493          	addi	s1,a0,88 # 20000058 <gyro_orientation>
    23bc:	05850513          	addi	a0,a0,88
    23c0:	35d5                	jal	22a4 <inv_row_2_scale>
    23c2:	892a                	mv	s2,a0
    23c4:	00348513          	addi	a0,s1,3
    23c8:	3df1                	jal	22a4 <inv_row_2_scale>
    23ca:	842a                	mv	s0,a0
    23cc:	00648513          	addi	a0,s1,6
    23d0:	3dd1                	jal	22a4 <inv_row_2_scale>
    23d2:	051a                	slli	a0,a0,0x6
    23d4:	040e                	slli	s0,s0,0x3
    23d6:	8c49                	or	s0,s0,a0
    23d8:	01246533          	or	a0,s0,s2
    23dc:	0542                	slli	a0,a0,0x10
    23de:	8141                	srli	a0,a0,0x10
    23e0:	c22ff0ef          	jal	ra,1802 <dmp_set_orientation>
    23e4:	862a                	mv	a2,a0
    23e6:	c10d                	beqz	a0,2408 <MPU6050_DMP_init+0x134>
    23e8:	000085b7          	lui	a1,0x8
    23ec:	40c58593          	addi	a1,a1,1036 # 840c <dmp_memory+0xd40>
    23f0:	0068                	addi	a0,sp,12
    23f2:	4b3030ef          	jal	ra,60a4 <siprintf>
    23f6:	00008537          	lui	a0,0x8
    23fa:	006c                	addi	a1,sp,12
    23fc:	39050513          	addi	a0,a0,912 # 8390 <dmp_memory+0xcc4>
    2400:	385030ef          	jal	ra,5f84 <iprintf>
    2404:	5569                	li	a0,-6
    2406:	bdf5                	j	2302 <MPU6050_DMP_init+0x2e>
    2408:	17b00513          	li	a0,379
    240c:	8e9ff0ef          	jal	ra,1cf4 <dmp_enable_feature>
    2410:	862a                	mv	a2,a0
    2412:	c10d                	beqz	a0,2434 <MPU6050_DMP_init+0x160>
    2414:	000085b7          	lui	a1,0x8
    2418:	42858593          	addi	a1,a1,1064 # 8428 <dmp_memory+0xd5c>
    241c:	0068                	addi	a0,sp,12
    241e:	487030ef          	jal	ra,60a4 <siprintf>
    2422:	00008537          	lui	a0,0x8
    2426:	006c                	addi	a1,sp,12
    2428:	39050513          	addi	a0,a0,912 # 8390 <dmp_memory+0xcc4>
    242c:	359030ef          	jal	ra,5f84 <iprintf>
    2430:	5565                	li	a0,-7
    2432:	bdc1                	j	2302 <MPU6050_DMP_init+0x2e>
    2434:	06400513          	li	a0,100
    2438:	cbcff0ef          	jal	ra,18f4 <dmp_set_fifo_rate>
    243c:	862a                	mv	a2,a0
    243e:	c10d                	beqz	a0,2460 <MPU6050_DMP_init+0x18c>
    2440:	000085b7          	lui	a1,0x8
    2444:	44458593          	addi	a1,a1,1092 # 8444 <dmp_memory+0xd78>
    2448:	0068                	addi	a0,sp,12
    244a:	45b030ef          	jal	ra,60a4 <siprintf>
    244e:	00008537          	lui	a0,0x8
    2452:	006c                	addi	a1,sp,12
    2454:	39050513          	addi	a0,a0,912 # 8390 <dmp_memory+0xcc4>
    2458:	32d030ef          	jal	ra,5f84 <iprintf>
    245c:	5561                	li	a0,-8
    245e:	b555                	j	2302 <MPU6050_DMP_init+0x2e>
    2460:	4505                	li	a0,1
    2462:	ad4ff0ef          	jal	ra,1736 <mpu_set_dmp_state>
    2466:	e8050ee3          	beqz	a0,2302 <MPU6050_DMP_init+0x2e>
    246a:	000085b7          	lui	a1,0x8
    246e:	862a                	mv	a2,a0
    2470:	45c58593          	addi	a1,a1,1116 # 845c <dmp_memory+0xd90>
    2474:	0068                	addi	a0,sp,12
    2476:	42f030ef          	jal	ra,60a4 <siprintf>
    247a:	00008537          	lui	a0,0x8
    247e:	006c                	addi	a1,sp,12
    2480:	39050513          	addi	a0,a0,912 # 8390 <dmp_memory+0xcc4>
    2484:	301030ef          	jal	ra,5f84 <iprintf>
    2488:	5559                	li	a0,-10
    248a:	bda5                	j	2302 <MPU6050_DMP_init+0x2e>

0000248c <MPU6050_DMP_Get_Data>:
    248c:	d3dfd2ef          	jal	t0,1c8 <__riscv_save_10>
    2490:	7139                	addi	sp,sp,-64
    2492:	8c2a                	mv	s8,a0
    2494:	8bae                	mv	s7,a1
    2496:	8b32                	mv	s6,a2
    2498:	01910793          	addi	a5,sp,25
    249c:	01a10713          	addi	a4,sp,26
    24a0:	0874                	addi	a3,sp,28
    24a2:	1810                	addi	a2,sp,48
    24a4:	102c                	addi	a1,sp,40
    24a6:	1008                	addi	a0,sp,32
    24a8:	a0fff0ef          	jal	ra,1eb6 <dmp_read_fifo>
    24ac:	5a7d                	li	s4,-1
    24ae:	18051d63          	bnez	a0,2648 <MPU6050_DMP_Get_Data+0x1bc>
    24b2:	85bc                	lhu	a5,26(sp)
    24b4:	8a2a                	mv	s4,a0
    24b6:	1007f793          	andi	a5,a5,256
    24ba:	18078763          	beqz	a5,2648 <MPU6050_DMP_Get_Data+0x1bc>
    24be:	5542                	lw	a0,48(sp)
    24c0:	000089b7          	lui	s3,0x8
    24c4:	5ca030ef          	jal	ra,5a8e <__floatsisf>
    24c8:	36c9a583          	lw	a1,876(s3) # 836c <dmp_memory+0xca0>
    24cc:	6ef020ef          	jal	ra,53ba <__mulsf3>
    24d0:	892a                	mv	s2,a0
    24d2:	5552                	lw	a0,52(sp)
    24d4:	5ba030ef          	jal	ra,5a8e <__floatsisf>
    24d8:	36c9a583          	lw	a1,876(s3)
    24dc:	6df020ef          	jal	ra,53ba <__mulsf3>
    24e0:	84aa                	mv	s1,a0
    24e2:	5562                	lw	a0,56(sp)
    24e4:	5aa030ef          	jal	ra,5a8e <__floatsisf>
    24e8:	36c9a583          	lw	a1,876(s3)
    24ec:	6cf020ef          	jal	ra,53ba <__mulsf3>
    24f0:	842a                	mv	s0,a0
    24f2:	5572                	lw	a0,60(sp)
    24f4:	59a030ef          	jal	ra,5a8e <__floatsisf>
    24f8:	36c9a583          	lw	a1,876(s3)
    24fc:	6bf020ef          	jal	ra,53ba <__mulsf3>
    2500:	000087b7          	lui	a5,0x8
    2504:	3707a583          	lw	a1,880(a5) # 8370 <dmp_memory+0xca4>
    2508:	89aa                	mv	s3,a0
    250a:	8526                	mv	a0,s1
    250c:	6af020ef          	jal	ra,53ba <__mulsf3>
    2510:	8d2a                	mv	s10,a0
    2512:	85ca                	mv	a1,s2
    2514:	854a                	mv	a0,s2
    2516:	089020ef          	jal	ra,4d9e <__addsf3>
    251a:	8caa                	mv	s9,a0
    251c:	85ce                	mv	a1,s3
    251e:	856a                	mv	a0,s10
    2520:	69b020ef          	jal	ra,53ba <__mulsf3>
    2524:	8aaa                	mv	s5,a0
    2526:	85a2                	mv	a1,s0
    2528:	8566                	mv	a0,s9
    252a:	691020ef          	jal	ra,53ba <__mulsf3>
    252e:	85aa                	mv	a1,a0
    2530:	8556                	mv	a0,s5
    2532:	06d020ef          	jal	ra,4d9e <__addsf3>
    2536:	6ec030ef          	jal	ra,5c22 <__extendsfdf2>
    253a:	2479                	jal	27c8 <asin>
    253c:	00008ab7          	lui	s5,0x8
    2540:	378aa603          	lw	a2,888(s5) # 8378 <dmp_memory+0xcac>
    2544:	37caa683          	lw	a3,892(s5)
    2548:	425010ef          	jal	ra,416c <__muldf3>
    254c:	782030ef          	jal	ra,5cce <__truncdfsf2>
    2550:	00ac2023          	sw	a0,0(s8)
    2554:	85a2                	mv	a1,s0
    2556:	8522                	mv	a0,s0
    2558:	047020ef          	jal	ra,4d9e <__addsf3>
    255c:	8c2a                	mv	s8,a0
    255e:	85a6                	mv	a1,s1
    2560:	856a                	mv	a0,s10
    2562:	659020ef          	jal	ra,53ba <__mulsf3>
    2566:	8d2a                	mv	s10,a0
    2568:	85a2                	mv	a1,s0
    256a:	8562                	mv	a0,s8
    256c:	64f020ef          	jal	ra,53ba <__mulsf3>
    2570:	85aa                	mv	a1,a0
    2572:	856a                	mv	a0,s10
    2574:	0da030ef          	jal	ra,564e <__subsf3>
    2578:	000087b7          	lui	a5,0x8
    257c:	3747a583          	lw	a1,884(a5) # 8374 <dmp_memory+0xca8>
    2580:	01f020ef          	jal	ra,4d9e <__addsf3>
    2584:	69e030ef          	jal	ra,5c22 <__extendsfdf2>
    2588:	c42a                	sw	a0,8(sp)
    258a:	c62e                	sw	a1,12(sp)
    258c:	8562                	mv	a0,s8
    258e:	85ce                	mv	a1,s3
    2590:	62b020ef          	jal	ra,53ba <__mulsf3>
    2594:	8c2a                	mv	s8,a0
    2596:	85a6                	mv	a1,s1
    2598:	8566                	mv	a0,s9
    259a:	621020ef          	jal	ra,53ba <__mulsf3>
    259e:	85aa                	mv	a1,a0
    25a0:	8562                	mv	a0,s8
    25a2:	7fc020ef          	jal	ra,4d9e <__addsf3>
    25a6:	67c030ef          	jal	ra,5c22 <__extendsfdf2>
    25aa:	4622                	lw	a2,8(sp)
    25ac:	46b2                	lw	a3,12(sp)
    25ae:	2ce1                	jal	2886 <atan2>
    25b0:	378aa603          	lw	a2,888(s5)
    25b4:	37caa683          	lw	a3,892(s5)
    25b8:	3b5010ef          	jal	ra,416c <__muldf3>
    25bc:	712030ef          	jal	ra,5cce <__truncdfsf2>
    25c0:	00aba023          	sw	a0,0(s7)
    25c4:	85ca                	mv	a1,s2
    25c6:	854a                	mv	a0,s2
    25c8:	5f3020ef          	jal	ra,53ba <__mulsf3>
    25cc:	8baa                	mv	s7,a0
    25ce:	85a6                	mv	a1,s1
    25d0:	8526                	mv	a0,s1
    25d2:	5e9020ef          	jal	ra,53ba <__mulsf3>
    25d6:	85aa                	mv	a1,a0
    25d8:	855e                	mv	a0,s7
    25da:	7c4020ef          	jal	ra,4d9e <__addsf3>
    25de:	8baa                	mv	s7,a0
    25e0:	85a2                	mv	a1,s0
    25e2:	8522                	mv	a0,s0
    25e4:	5d7020ef          	jal	ra,53ba <__mulsf3>
    25e8:	85aa                	mv	a1,a0
    25ea:	855e                	mv	a0,s7
    25ec:	062030ef          	jal	ra,564e <__subsf3>
    25f0:	8baa                	mv	s7,a0
    25f2:	85ce                	mv	a1,s3
    25f4:	854e                	mv	a0,s3
    25f6:	5c5020ef          	jal	ra,53ba <__mulsf3>
    25fa:	85aa                	mv	a1,a0
    25fc:	855e                	mv	a0,s7
    25fe:	050030ef          	jal	ra,564e <__subsf3>
    2602:	620030ef          	jal	ra,5c22 <__extendsfdf2>
    2606:	c42a                	sw	a0,8(sp)
    2608:	c62e                	sw	a1,12(sp)
    260a:	854a                	mv	a0,s2
    260c:	85ce                	mv	a1,s3
    260e:	5ad020ef          	jal	ra,53ba <__mulsf3>
    2612:	892a                	mv	s2,a0
    2614:	85a2                	mv	a1,s0
    2616:	8526                	mv	a0,s1
    2618:	5a3020ef          	jal	ra,53ba <__mulsf3>
    261c:	85aa                	mv	a1,a0
    261e:	854a                	mv	a0,s2
    2620:	77e020ef          	jal	ra,4d9e <__addsf3>
    2624:	85aa                	mv	a1,a0
    2626:	778020ef          	jal	ra,4d9e <__addsf3>
    262a:	5f8030ef          	jal	ra,5c22 <__extendsfdf2>
    262e:	4622                	lw	a2,8(sp)
    2630:	46b2                	lw	a3,12(sp)
    2632:	2c91                	jal	2886 <atan2>
    2634:	378aa603          	lw	a2,888(s5)
    2638:	37caa683          	lw	a3,892(s5)
    263c:	331010ef          	jal	ra,416c <__muldf3>
    2640:	68e030ef          	jal	ra,5cce <__truncdfsf2>
    2644:	00ab2023          	sw	a0,0(s6)
    2648:	8552                	mv	a0,s4
    264a:	6121                	addi	sp,sp,64
    264c:	bb5fd06f          	j	200 <__riscv_restore_10>

00002650 <Tim3_Init>:
    2650:	ba1fd2ef          	jal	t0,1f0 <__riscv_save_0>
    2654:	1101                	addi	sp,sp,-32
    2656:	84aa                	mv	s1,a0
    2658:	842e                	mv	s0,a1
    265a:	4509                	li	a0,2
    265c:	4585                	li	a1,1
    265e:	af0fe0ef          	jal	ra,94e <RCC_APB1PeriphClockCmd>
    2662:	82e0                	sh	s0,20(sp)
    2664:	40000437          	lui	s0,0x40000
    2668:	084c                	addi	a1,sp,20
    266a:	40040513          	addi	a0,s0,1024 # 40000400 <_eusrstack+0x1fff8400>
    266e:	84e4                	sh	s1,24(sp)
    2670:	00011d23          	sh	zero,26(sp)
    2674:	00011b23          	sh	zero,22(sp)
    2678:	af4fe0ef          	jal	ra,96c <TIM_TimeBaseInit>
    267c:	4605                	li	a2,1
    267e:	04100593          	li	a1,65
    2682:	40040513          	addi	a0,s0,1024
    2686:	ba8fe0ef          	jal	ra,a2e <TIM_ITConfig>
    268a:	02d00793          	li	a5,45
    268e:	865c                	sb	a5,12(sp)
    2690:	0068                	addi	a0,sp,12
    2692:	4785                	li	a5,1
    2694:	c83e                	sw	a5,16(sp)
    2696:	8c8fe0ef          	jal	ra,75e <NVIC_Init>
    269a:	4585                	li	a1,1
    269c:	40040513          	addi	a0,s0,1024
    26a0:	b76fe0ef          	jal	ra,a16 <TIM_Cmd>
    26a4:	6105                	addi	sp,sp,32
    26a6:	b6ffd06f          	j	214 <__riscv_restore_0>

000026aa <Delay_Init>:
    26aa:	200007b7          	lui	a5,0x20000
    26ae:	0c87a783          	lw	a5,200(a5) # 200000c8 <SystemCoreClock>
    26b2:	007a1737          	lui	a4,0x7a1
    26b6:	20070713          	addi	a4,a4,512 # 7a1200 <_data_lma+0x79892c>
    26ba:	02e7d7b3          	divu	a5,a5,a4
    26be:	0ff7f793          	andi	a5,a5,255
    26c2:	84f18523          	sb	a5,-1974(gp) # 20000112 <p_us>
    26c6:	3e800713          	li	a4,1000
    26ca:	02e787b3          	mul	a5,a5,a4
    26ce:	84f19423          	sh	a5,-1976(gp) # 20000110 <p_ms>
    26d2:	8082                	ret

000026d4 <Delay_Ms>:
    26d4:	e000f7b7          	lui	a5,0xe000f
    26d8:	43d8                	lw	a4,4(a5)
    26da:	4681                	li	a3,0
    26dc:	9b79                	andi	a4,a4,-2
    26de:	c3d8                	sw	a4,4(a5)
    26e0:	8481d703          	lhu	a4,-1976(gp) # 20000110 <p_ms>
    26e4:	02a70633          	mul	a2,a4,a0
    26e8:	cb90                	sw	a2,16(a5)
    26ea:	cbd4                	sw	a3,20(a5)
    26ec:	4398                	lw	a4,0(a5)
    26ee:	01076713          	ori	a4,a4,16
    26f2:	c398                	sw	a4,0(a5)
    26f4:	4398                	lw	a4,0(a5)
    26f6:	02176713          	ori	a4,a4,33
    26fa:	c398                	sw	a4,0(a5)
    26fc:	43d8                	lw	a4,4(a5)
    26fe:	8b05                	andi	a4,a4,1
    2700:	df75                	beqz	a4,26fc <Delay_Ms+0x28>
    2702:	4398                	lw	a4,0(a5)
    2704:	9b79                	andi	a4,a4,-2
    2706:	c398                	sw	a4,0(a5)
    2708:	8082                	ret

0000270a <USART_Printf_Init>:
    270a:	ae7fd2ef          	jal	t0,1f0 <__riscv_save_0>
    270e:	842a                	mv	s0,a0
    2710:	6511                	lui	a0,0x4
    2712:	1101                	addi	sp,sp,-32
    2714:	4585                	li	a1,1
    2716:	0511                	addi	a0,a0,4
    2718:	a18fe0ef          	jal	ra,930 <RCC_APB2PeriphClockCmd>
    271c:	20000793          	li	a5,512
    2720:	827c                	sh	a5,4(sp)
    2722:	40011537          	lui	a0,0x40011
    2726:	478d                	li	a5,3
    2728:	c43e                	sw	a5,8(sp)
    272a:	004c                	addi	a1,sp,4
    272c:	47e1                	li	a5,24
    272e:	80050513          	addi	a0,a0,-2048 # 40010800 <_eusrstack+0x20008800>
    2732:	c63e                	sw	a5,12(sp)
    2734:	f53fd0ef          	jal	ra,686 <GPIO_Init>
    2738:	c822                	sw	s0,16(sp)
    273a:	40014437          	lui	s0,0x40014
    273e:	000807b7          	lui	a5,0x80
    2742:	080c                	addi	a1,sp,16
    2744:	80040513          	addi	a0,s0,-2048 # 40013800 <_eusrstack+0x2000b800>
    2748:	cc3e                	sw	a5,24(sp)
    274a:	ca02                	sw	zero,20(sp)
    274c:	00011e23          	sh	zero,28(sp)
    2750:	b14fe0ef          	jal	ra,a64 <USART_Init>
    2754:	4585                	li	a1,1
    2756:	80040513          	addi	a0,s0,-2048
    275a:	b98fe0ef          	jal	ra,af2 <USART_Cmd>
    275e:	6105                	addi	sp,sp,32
    2760:	ab5fd06f          	j	214 <__riscv_restore_0>

00002764 <_write>:
    2764:	a73fd2ef          	jal	t0,1d6 <__riscv_save_4>
    2768:	400144b7          	lui	s1,0x40014
    276c:	89ae                	mv	s3,a1
    276e:	8932                	mv	s2,a2
    2770:	4401                	li	s0,0
    2772:	80048493          	addi	s1,s1,-2048 # 40013800 <_eusrstack+0x2000b800>
    2776:	01244563          	blt	s0,s2,2780 <_write+0x1c>
    277a:	854a                	mv	a0,s2
    277c:	a8ffd06f          	j	20a <__riscv_restore_4>
    2780:	04000593          	li	a1,64
    2784:	8526                	mv	a0,s1
    2786:	b8afe0ef          	jal	ra,b10 <USART_GetFlagStatus>
    278a:	d97d                	beqz	a0,2780 <_write+0x1c>
    278c:	008987b3          	add	a5,s3,s0
    2790:	00078583          	lb	a1,0(a5) # 80000 <_data_lma+0x7772c>
    2794:	8526                	mv	a0,s1
    2796:	0405                	addi	s0,s0,1
    2798:	05c2                	slli	a1,a1,0x10
    279a:	81c1                	srli	a1,a1,0x10
    279c:	b6cfe0ef          	jal	ra,b08 <USART_SendData>
    27a0:	bfd9                	j	2776 <_write+0x12>

000027a2 <_sbrk>:
    27a2:	81418713          	addi	a4,gp,-2028 # 200000dc <curbrk.5273>
    27a6:	431c                	lw	a5,0(a4)
    27a8:	86818693          	addi	a3,gp,-1944 # 20000130 <_ebss>
    27ac:	953e                	add	a0,a0,a5
    27ae:	00d56b63          	bltu	a0,a3,27c4 <_sbrk+0x22>
    27b2:	200086b7          	lui	a3,0x20008
    27b6:	80068693          	addi	a3,a3,-2048 # 20007800 <_heap_end>
    27ba:	00a6e563          	bltu	a3,a0,27c4 <_sbrk+0x22>
    27be:	c308                	sw	a0,0(a4)
    27c0:	853e                	mv	a0,a5
    27c2:	8082                	ret
    27c4:	57fd                	li	a5,-1
    27c6:	bfed                	j	27c0 <_sbrk+0x1e>

000027c8 <asin>:
    27c8:	715d                	addi	sp,sp,-80
    27ca:	c4a2                	sw	s0,72(sp)
    27cc:	c2a6                	sw	s1,68(sp)
    27ce:	c0ca                	sw	s2,64(sp)
    27d0:	de4e                	sw	s3,60(sp)
    27d2:	dc52                	sw	s4,56(sp)
    27d4:	c686                	sw	ra,76(sp)
    27d6:	81818a13          	addi	s4,gp,-2024 # 200000e0 <__fdlib_version>
    27da:	842a                	mv	s0,a0
    27dc:	84ae                	mv	s1,a1
    27de:	206d                	jal	2888 <__ieee754_asin>
    27e0:	000a2703          	lw	a4,0(s4)
    27e4:	57fd                	li	a5,-1
    27e6:	892a                	mv	s2,a0
    27e8:	89ae                	mv	s3,a1
    27ea:	02f70763          	beq	a4,a5,2818 <asin+0x50>
    27ee:	8622                	mv	a2,s0
    27f0:	86a6                	mv	a3,s1
    27f2:	8522                	mv	a0,s0
    27f4:	85a6                	mv	a1,s1
    27f6:	56c020ef          	jal	ra,4d62 <__unorddf2>
    27fa:	ed19                	bnez	a0,2818 <asin+0x50>
    27fc:	8522                	mv	a0,s0
    27fe:	85a6                	mv	a1,s1
    2800:	3c3000ef          	jal	ra,33c2 <fabs>
    2804:	00006797          	auipc	a5,0x6
    2808:	c7478793          	addi	a5,a5,-908 # 8478 <dmp_memory+0xdac>
    280c:	4390                	lw	a2,0(a5)
    280e:	43d4                	lw	a3,4(a5)
    2810:	0af010ef          	jal	ra,40be <__gedf2>
    2814:	00a04c63          	bgtz	a0,282c <asin+0x64>
    2818:	40b6                	lw	ra,76(sp)
    281a:	4426                	lw	s0,72(sp)
    281c:	854a                	mv	a0,s2
    281e:	85ce                	mv	a1,s3
    2820:	4496                	lw	s1,68(sp)
    2822:	4906                	lw	s2,64(sp)
    2824:	59f2                	lw	s3,60(sp)
    2826:	5a62                	lw	s4,56(sp)
    2828:	6161                	addi	sp,sp,80
    282a:	8082                	ret
    282c:	4785                	li	a5,1
    282e:	c43e                	sw	a5,8(sp)
    2830:	00006517          	auipc	a0,0x6
    2834:	c1050513          	addi	a0,a0,-1008 # 8440 <dmp_memory+0xd74>
    2838:	00006797          	auipc	a5,0x6
    283c:	c4878793          	addi	a5,a5,-952 # 8480 <dmp_memory+0xdb4>
    2840:	c63e                	sw	a5,12(sp)
    2842:	d402                	sw	zero,40(sp)
    2844:	cc22                	sw	s0,24(sp)
    2846:	ce26                	sw	s1,28(sp)
    2848:	c822                	sw	s0,16(sp)
    284a:	ca26                	sw	s1,20(sp)
    284c:	381000ef          	jal	ra,33cc <nan>
    2850:	000a2703          	lw	a4,0(s4)
    2854:	d02a                	sw	a0,32(sp)
    2856:	d22e                	sw	a1,36(sp)
    2858:	4789                	li	a5,2
    285a:	00f70b63          	beq	a4,a5,2870 <asin+0xa8>
    285e:	0028                	addi	a0,sp,8
    2860:	369000ef          	jal	ra,33c8 <matherr>
    2864:	c511                	beqz	a0,2870 <asin+0xa8>
    2866:	57a2                	lw	a5,40(sp)
    2868:	eb91                	bnez	a5,287c <asin+0xb4>
    286a:	5902                	lw	s2,32(sp)
    286c:	5992                	lw	s3,36(sp)
    286e:	b76d                	j	2818 <asin+0x50>
    2870:	636030ef          	jal	ra,5ea6 <__errno>
    2874:	02100793          	li	a5,33
    2878:	c11c                	sw	a5,0(a0)
    287a:	b7f5                	j	2866 <asin+0x9e>
    287c:	62a030ef          	jal	ra,5ea6 <__errno>
    2880:	57a2                	lw	a5,40(sp)
    2882:	c11c                	sw	a5,0(a0)
    2884:	b7dd                	j	286a <asin+0xa2>

00002886 <atan2>:
    2886:	a1a5                	j	2cee <__ieee754_atan2>

00002888 <__ieee754_asin>:
    2888:	7139                	addi	sp,sp,-64
    288a:	d84a                	sw	s2,48(sp)
    288c:	00159913          	slli	s2,a1,0x1
    2890:	dc22                	sw	s0,56(sp)
    2892:	da26                	sw	s1,52(sp)
    2894:	de06                	sw	ra,60(sp)
    2896:	d64e                	sw	s3,44(sp)
    2898:	d452                	sw	s4,40(sp)
    289a:	d256                	sw	s5,36(sp)
    289c:	d05a                	sw	s6,32(sp)
    289e:	ce5e                	sw	s7,28(sp)
    28a0:	cc62                	sw	s8,24(sp)
    28a2:	ca66                	sw	s9,20(sp)
    28a4:	c86a                	sw	s10,16(sp)
    28a6:	c66e                	sw	s11,12(sp)
    28a8:	00195913          	srli	s2,s2,0x1
    28ac:	3ff007b7          	lui	a5,0x3ff00
    28b0:	842e                	mv	s0,a1
    28b2:	84aa                	mv	s1,a0
    28b4:	06f94d63          	blt	s2,a5,292e <__ieee754_asin+0xa6>
    28b8:	40f90933          	sub	s2,s2,a5
    28bc:	00a96933          	or	s2,s2,a0
    28c0:	02090b63          	beqz	s2,28f6 <__ieee754_asin+0x6e>
    28c4:	862a                	mv	a2,a0
    28c6:	86ae                	mv	a3,a1
    28c8:	55d010ef          	jal	ra,4624 <__subdf3>
    28cc:	862a                	mv	a2,a0
    28ce:	86ae                	mv	a3,a1
    28d0:	23a010ef          	jal	ra,3b0a <__divdf3>
    28d4:	84aa                	mv	s1,a0
    28d6:	50f2                	lw	ra,60(sp)
    28d8:	5462                	lw	s0,56(sp)
    28da:	8526                	mv	a0,s1
    28dc:	5942                	lw	s2,48(sp)
    28de:	54d2                	lw	s1,52(sp)
    28e0:	59b2                	lw	s3,44(sp)
    28e2:	5a22                	lw	s4,40(sp)
    28e4:	5a92                	lw	s5,36(sp)
    28e6:	5b02                	lw	s6,32(sp)
    28e8:	4bf2                	lw	s7,28(sp)
    28ea:	4c62                	lw	s8,24(sp)
    28ec:	4cd2                	lw	s9,20(sp)
    28ee:	4d42                	lw	s10,16(sp)
    28f0:	4db2                	lw	s11,12(sp)
    28f2:	6121                	addi	sp,sp,64
    28f4:	8082                	ret
    28f6:	00006797          	auipc	a5,0x6
    28fa:	b9278793          	addi	a5,a5,-1134 # 8488 <dmp_memory+0xdbc>
    28fe:	4390                	lw	a2,0(a5)
    2900:	43d4                	lw	a3,4(a5)
    2902:	06b010ef          	jal	ra,416c <__muldf3>
    2906:	00006797          	auipc	a5,0x6
    290a:	b8a78793          	addi	a5,a5,-1142 # 8490 <dmp_memory+0xdc4>
    290e:	4390                	lw	a2,0(a5)
    2910:	43d4                	lw	a3,4(a5)
    2912:	892a                	mv	s2,a0
    2914:	89ae                	mv	s3,a1
    2916:	8526                	mv	a0,s1
    2918:	85a2                	mv	a1,s0
    291a:	053010ef          	jal	ra,416c <__muldf3>
    291e:	862a                	mv	a2,a0
    2920:	86ae                	mv	a3,a1
    2922:	854a                	mv	a0,s2
    2924:	85ce                	mv	a1,s3
    2926:	2b5000ef          	jal	ra,33da <__adddf3>
    292a:	84aa                	mv	s1,a0
    292c:	b76d                	j	28d6 <__ieee754_asin+0x4e>
    292e:	3fe007b7          	lui	a5,0x3fe00
    2932:	89ae                	mv	s3,a1
    2934:	00006b17          	auipc	s6,0x6
    2938:	b44b0b13          	addi	s6,s6,-1212 # 8478 <dmp_memory+0xdac>
    293c:	02f95a63          	bge	s2,a5,2970 <__ieee754_asin+0xe8>
    2940:	3e4007b7          	lui	a5,0x3e400
    2944:	28f95363          	bge	s2,a5,2bca <__ieee754_asin+0x342>
    2948:	00006797          	auipc	a5,0x6
    294c:	b5078793          	addi	a5,a5,-1200 # 8498 <dmp_memory+0xdcc>
    2950:	4390                	lw	a2,0(a5)
    2952:	43d4                	lw	a3,4(a5)
    2954:	00006b17          	auipc	s6,0x6
    2958:	b24b0b13          	addi	s6,s6,-1244 # 8478 <dmp_memory+0xdac>
    295c:	27f000ef          	jal	ra,33da <__adddf3>
    2960:	000b2603          	lw	a2,0(s6)
    2964:	004b2683          	lw	a3,4(s6)
    2968:	756010ef          	jal	ra,40be <__gedf2>
    296c:	24a04d63          	bgtz	a0,2bc6 <__ieee754_asin+0x33e>
    2970:	8526                	mv	a0,s1
    2972:	85a2                	mv	a1,s0
    2974:	24f000ef          	jal	ra,33c2 <fabs>
    2978:	862a                	mv	a2,a0
    297a:	86ae                	mv	a3,a1
    297c:	000b2503          	lw	a0,0(s6)
    2980:	004b2583          	lw	a1,4(s6)
    2984:	4a1010ef          	jal	ra,4624 <__subdf3>
    2988:	00006797          	auipc	a5,0x6
    298c:	b6878793          	addi	a5,a5,-1176 # 84f0 <dmp_memory+0xe24>
    2990:	4390                	lw	a2,0(a5)
    2992:	43d4                	lw	a3,4(a5)
    2994:	7d8010ef          	jal	ra,416c <__muldf3>
    2998:	00006797          	auipc	a5,0x6
    299c:	b0878793          	addi	a5,a5,-1272 # 84a0 <dmp_memory+0xdd4>
    29a0:	4390                	lw	a2,0(a5)
    29a2:	43d4                	lw	a3,4(a5)
    29a4:	842a                	mv	s0,a0
    29a6:	84ae                	mv	s1,a1
    29a8:	7c4010ef          	jal	ra,416c <__muldf3>
    29ac:	00006797          	auipc	a5,0x6
    29b0:	afc78793          	addi	a5,a5,-1284 # 84a8 <dmp_memory+0xddc>
    29b4:	4390                	lw	a2,0(a5)
    29b6:	43d4                	lw	a3,4(a5)
    29b8:	223000ef          	jal	ra,33da <__adddf3>
    29bc:	8622                	mv	a2,s0
    29be:	86a6                	mv	a3,s1
    29c0:	7ac010ef          	jal	ra,416c <__muldf3>
    29c4:	00006797          	auipc	a5,0x6
    29c8:	aec78793          	addi	a5,a5,-1300 # 84b0 <dmp_memory+0xde4>
    29cc:	4390                	lw	a2,0(a5)
    29ce:	43d4                	lw	a3,4(a5)
    29d0:	455010ef          	jal	ra,4624 <__subdf3>
    29d4:	8622                	mv	a2,s0
    29d6:	86a6                	mv	a3,s1
    29d8:	794010ef          	jal	ra,416c <__muldf3>
    29dc:	00006797          	auipc	a5,0x6
    29e0:	adc78793          	addi	a5,a5,-1316 # 84b8 <dmp_memory+0xdec>
    29e4:	4390                	lw	a2,0(a5)
    29e6:	43d4                	lw	a3,4(a5)
    29e8:	1f3000ef          	jal	ra,33da <__adddf3>
    29ec:	8622                	mv	a2,s0
    29ee:	86a6                	mv	a3,s1
    29f0:	77c010ef          	jal	ra,416c <__muldf3>
    29f4:	00006797          	auipc	a5,0x6
    29f8:	acc78793          	addi	a5,a5,-1332 # 84c0 <dmp_memory+0xdf4>
    29fc:	4390                	lw	a2,0(a5)
    29fe:	43d4                	lw	a3,4(a5)
    2a00:	425010ef          	jal	ra,4624 <__subdf3>
    2a04:	8622                	mv	a2,s0
    2a06:	86a6                	mv	a3,s1
    2a08:	764010ef          	jal	ra,416c <__muldf3>
    2a0c:	00006797          	auipc	a5,0x6
    2a10:	abc78793          	addi	a5,a5,-1348 # 84c8 <dmp_memory+0xdfc>
    2a14:	4390                	lw	a2,0(a5)
    2a16:	43d4                	lw	a3,4(a5)
    2a18:	1c3000ef          	jal	ra,33da <__adddf3>
    2a1c:	8622                	mv	a2,s0
    2a1e:	86a6                	mv	a3,s1
    2a20:	74c010ef          	jal	ra,416c <__muldf3>
    2a24:	00006797          	auipc	a5,0x6
    2a28:	aac78793          	addi	a5,a5,-1364 # 84d0 <dmp_memory+0xe04>
    2a2c:	43d4                	lw	a3,4(a5)
    2a2e:	4390                	lw	a2,0(a5)
    2a30:	8a2a                	mv	s4,a0
    2a32:	8aae                	mv	s5,a1
    2a34:	8522                	mv	a0,s0
    2a36:	85a6                	mv	a1,s1
    2a38:	734010ef          	jal	ra,416c <__muldf3>
    2a3c:	00006797          	auipc	a5,0x6
    2a40:	a9c78793          	addi	a5,a5,-1380 # 84d8 <dmp_memory+0xe0c>
    2a44:	4390                	lw	a2,0(a5)
    2a46:	43d4                	lw	a3,4(a5)
    2a48:	3dd010ef          	jal	ra,4624 <__subdf3>
    2a4c:	8622                	mv	a2,s0
    2a4e:	86a6                	mv	a3,s1
    2a50:	71c010ef          	jal	ra,416c <__muldf3>
    2a54:	00006797          	auipc	a5,0x6
    2a58:	a8c78793          	addi	a5,a5,-1396 # 84e0 <dmp_memory+0xe14>
    2a5c:	4390                	lw	a2,0(a5)
    2a5e:	43d4                	lw	a3,4(a5)
    2a60:	17b000ef          	jal	ra,33da <__adddf3>
    2a64:	8622                	mv	a2,s0
    2a66:	86a6                	mv	a3,s1
    2a68:	704010ef          	jal	ra,416c <__muldf3>
    2a6c:	00006797          	auipc	a5,0x6
    2a70:	a7c78793          	addi	a5,a5,-1412 # 84e8 <dmp_memory+0xe1c>
    2a74:	4390                	lw	a2,0(a5)
    2a76:	43d4                	lw	a3,4(a5)
    2a78:	3ad010ef          	jal	ra,4624 <__subdf3>
    2a7c:	8622                	mv	a2,s0
    2a7e:	86a6                	mv	a3,s1
    2a80:	6ec010ef          	jal	ra,416c <__muldf3>
    2a84:	000b2603          	lw	a2,0(s6)
    2a88:	004b2683          	lw	a3,4(s6)
    2a8c:	14f000ef          	jal	ra,33da <__adddf3>
    2a90:	8b2a                	mv	s6,a0
    2a92:	8bae                	mv	s7,a1
    2a94:	8522                	mv	a0,s0
    2a96:	85a6                	mv	a1,s1
    2a98:	290d                	jal	2eca <__ieee754_sqrt>
    2a9a:	3fef37b7          	lui	a5,0x3fef3
    2a9e:	33278793          	addi	a5,a5,818 # 3fef3332 <_eusrstack+0x1feeb332>
    2aa2:	8caa                	mv	s9,a0
    2aa4:	8c2e                	mv	s8,a1
    2aa6:	0527dd63          	bge	a5,s2,2b00 <__ieee754_asin+0x278>
    2aaa:	865a                	mv	a2,s6
    2aac:	86de                	mv	a3,s7
    2aae:	8552                	mv	a0,s4
    2ab0:	85d6                	mv	a1,s5
    2ab2:	058010ef          	jal	ra,3b0a <__divdf3>
    2ab6:	8666                	mv	a2,s9
    2ab8:	86e2                	mv	a3,s8
    2aba:	6b2010ef          	jal	ra,416c <__muldf3>
    2abe:	8666                	mv	a2,s9
    2ac0:	86e2                	mv	a3,s8
    2ac2:	119000ef          	jal	ra,33da <__adddf3>
    2ac6:	862a                	mv	a2,a0
    2ac8:	86ae                	mv	a3,a1
    2aca:	111000ef          	jal	ra,33da <__adddf3>
    2ace:	00006797          	auipc	a5,0x6
    2ad2:	9c278793          	addi	a5,a5,-1598 # 8490 <dmp_memory+0xdc4>
    2ad6:	4390                	lw	a2,0(a5)
    2ad8:	43d4                	lw	a3,4(a5)
    2ada:	34b010ef          	jal	ra,4624 <__subdf3>
    2ade:	00006797          	auipc	a5,0x6
    2ae2:	9aa78793          	addi	a5,a5,-1622 # 8488 <dmp_memory+0xdbc>
    2ae6:	862a                	mv	a2,a0
    2ae8:	86ae                	mv	a3,a1
    2aea:	4388                	lw	a0,0(a5)
    2aec:	43cc                	lw	a1,4(a5)
    2aee:	337010ef          	jal	ra,4624 <__subdf3>
    2af2:	84aa                	mv	s1,a0
    2af4:	df3041e3          	bgtz	s3,28d6 <__ieee754_asin+0x4e>
    2af8:	800007b7          	lui	a5,0x80000
    2afc:	8dbd                	xor	a1,a1,a5
    2afe:	bbe1                	j	28d6 <__ieee754_asin+0x4e>
    2b00:	862a                	mv	a2,a0
    2b02:	86ae                	mv	a3,a1
    2b04:	0d7000ef          	jal	ra,33da <__adddf3>
    2b08:	865a                	mv	a2,s6
    2b0a:	86de                	mv	a3,s7
    2b0c:	8d2a                	mv	s10,a0
    2b0e:	8dae                	mv	s11,a1
    2b10:	8552                	mv	a0,s4
    2b12:	85d6                	mv	a1,s5
    2b14:	7f7000ef          	jal	ra,3b0a <__divdf3>
    2b18:	862a                	mv	a2,a0
    2b1a:	86ae                	mv	a3,a1
    2b1c:	856a                	mv	a0,s10
    2b1e:	85ee                	mv	a1,s11
    2b20:	64c010ef          	jal	ra,416c <__muldf3>
    2b24:	4a01                	li	s4,0
    2b26:	8b2a                	mv	s6,a0
    2b28:	8bae                	mv	s7,a1
    2b2a:	8652                	mv	a2,s4
    2b2c:	86e2                	mv	a3,s8
    2b2e:	8552                	mv	a0,s4
    2b30:	85e2                	mv	a1,s8
    2b32:	63a010ef          	jal	ra,416c <__muldf3>
    2b36:	862a                	mv	a2,a0
    2b38:	86ae                	mv	a3,a1
    2b3a:	8522                	mv	a0,s0
    2b3c:	85a6                	mv	a1,s1
    2b3e:	2e7010ef          	jal	ra,4624 <__subdf3>
    2b42:	842a                	mv	s0,a0
    2b44:	84ae                	mv	s1,a1
    2b46:	8652                	mv	a2,s4
    2b48:	86e2                	mv	a3,s8
    2b4a:	8566                	mv	a0,s9
    2b4c:	85e2                	mv	a1,s8
    2b4e:	08d000ef          	jal	ra,33da <__adddf3>
    2b52:	862a                	mv	a2,a0
    2b54:	86ae                	mv	a3,a1
    2b56:	8522                	mv	a0,s0
    2b58:	85a6                	mv	a1,s1
    2b5a:	7b1000ef          	jal	ra,3b0a <__divdf3>
    2b5e:	862a                	mv	a2,a0
    2b60:	86ae                	mv	a3,a1
    2b62:	079000ef          	jal	ra,33da <__adddf3>
    2b66:	00006797          	auipc	a5,0x6
    2b6a:	92a78793          	addi	a5,a5,-1750 # 8490 <dmp_memory+0xdc4>
    2b6e:	862a                	mv	a2,a0
    2b70:	86ae                	mv	a3,a1
    2b72:	4388                	lw	a0,0(a5)
    2b74:	43cc                	lw	a1,4(a5)
    2b76:	00006417          	auipc	s0,0x6
    2b7a:	98240413          	addi	s0,s0,-1662 # 84f8 <dmp_memory+0xe2c>
    2b7e:	2a7010ef          	jal	ra,4624 <__subdf3>
    2b82:	862a                	mv	a2,a0
    2b84:	86ae                	mv	a3,a1
    2b86:	855a                	mv	a0,s6
    2b88:	85de                	mv	a1,s7
    2b8a:	29b010ef          	jal	ra,4624 <__subdf3>
    2b8e:	8b2a                	mv	s6,a0
    2b90:	8bae                	mv	s7,a1
    2b92:	8652                	mv	a2,s4
    2b94:	86e2                	mv	a3,s8
    2b96:	8552                	mv	a0,s4
    2b98:	85e2                	mv	a1,s8
    2b9a:	041000ef          	jal	ra,33da <__adddf3>
    2b9e:	862a                	mv	a2,a0
    2ba0:	86ae                	mv	a3,a1
    2ba2:	4008                	lw	a0,0(s0)
    2ba4:	404c                	lw	a1,4(s0)
    2ba6:	27f010ef          	jal	ra,4624 <__subdf3>
    2baa:	862a                	mv	a2,a0
    2bac:	86ae                	mv	a3,a1
    2bae:	855a                	mv	a0,s6
    2bb0:	85de                	mv	a1,s7
    2bb2:	273010ef          	jal	ra,4624 <__subdf3>
    2bb6:	862a                	mv	a2,a0
    2bb8:	86ae                	mv	a3,a1
    2bba:	4008                	lw	a0,0(s0)
    2bbc:	404c                	lw	a1,4(s0)
    2bbe:	267010ef          	jal	ra,4624 <__subdf3>
    2bc2:	84aa                	mv	s1,a0
    2bc4:	bf05                	j	2af4 <__ieee754_asin+0x26c>
    2bc6:	85a2                	mv	a1,s0
    2bc8:	b339                	j	28d6 <__ieee754_asin+0x4e>
    2bca:	862a                	mv	a2,a0
    2bcc:	86ae                	mv	a3,a1
    2bce:	59e010ef          	jal	ra,416c <__muldf3>
    2bd2:	00006797          	auipc	a5,0x6
    2bd6:	8ce78793          	addi	a5,a5,-1842 # 84a0 <dmp_memory+0xdd4>
    2bda:	4390                	lw	a2,0(a5)
    2bdc:	43d4                	lw	a3,4(a5)
    2bde:	892a                	mv	s2,a0
    2be0:	89ae                	mv	s3,a1
    2be2:	58a010ef          	jal	ra,416c <__muldf3>
    2be6:	00006797          	auipc	a5,0x6
    2bea:	8c278793          	addi	a5,a5,-1854 # 84a8 <dmp_memory+0xddc>
    2bee:	4390                	lw	a2,0(a5)
    2bf0:	43d4                	lw	a3,4(a5)
    2bf2:	7e8000ef          	jal	ra,33da <__adddf3>
    2bf6:	864a                	mv	a2,s2
    2bf8:	86ce                	mv	a3,s3
    2bfa:	572010ef          	jal	ra,416c <__muldf3>
    2bfe:	00006797          	auipc	a5,0x6
    2c02:	8b278793          	addi	a5,a5,-1870 # 84b0 <dmp_memory+0xde4>
    2c06:	4390                	lw	a2,0(a5)
    2c08:	43d4                	lw	a3,4(a5)
    2c0a:	21b010ef          	jal	ra,4624 <__subdf3>
    2c0e:	864a                	mv	a2,s2
    2c10:	86ce                	mv	a3,s3
    2c12:	55a010ef          	jal	ra,416c <__muldf3>
    2c16:	00006797          	auipc	a5,0x6
    2c1a:	8a278793          	addi	a5,a5,-1886 # 84b8 <dmp_memory+0xdec>
    2c1e:	4390                	lw	a2,0(a5)
    2c20:	43d4                	lw	a3,4(a5)
    2c22:	7b8000ef          	jal	ra,33da <__adddf3>
    2c26:	864a                	mv	a2,s2
    2c28:	86ce                	mv	a3,s3
    2c2a:	542010ef          	jal	ra,416c <__muldf3>
    2c2e:	00006797          	auipc	a5,0x6
    2c32:	89278793          	addi	a5,a5,-1902 # 84c0 <dmp_memory+0xdf4>
    2c36:	4390                	lw	a2,0(a5)
    2c38:	43d4                	lw	a3,4(a5)
    2c3a:	1eb010ef          	jal	ra,4624 <__subdf3>
    2c3e:	864a                	mv	a2,s2
    2c40:	86ce                	mv	a3,s3
    2c42:	52a010ef          	jal	ra,416c <__muldf3>
    2c46:	00006797          	auipc	a5,0x6
    2c4a:	88278793          	addi	a5,a5,-1918 # 84c8 <dmp_memory+0xdfc>
    2c4e:	4390                	lw	a2,0(a5)
    2c50:	43d4                	lw	a3,4(a5)
    2c52:	788000ef          	jal	ra,33da <__adddf3>
    2c56:	864a                	mv	a2,s2
    2c58:	86ce                	mv	a3,s3
    2c5a:	512010ef          	jal	ra,416c <__muldf3>
    2c5e:	00006797          	auipc	a5,0x6
    2c62:	87278793          	addi	a5,a5,-1934 # 84d0 <dmp_memory+0xe04>
    2c66:	4390                	lw	a2,0(a5)
    2c68:	43d4                	lw	a3,4(a5)
    2c6a:	8a2a                	mv	s4,a0
    2c6c:	8aae                	mv	s5,a1
    2c6e:	854a                	mv	a0,s2
    2c70:	85ce                	mv	a1,s3
    2c72:	4fa010ef          	jal	ra,416c <__muldf3>
    2c76:	00006797          	auipc	a5,0x6
    2c7a:	86278793          	addi	a5,a5,-1950 # 84d8 <dmp_memory+0xe0c>
    2c7e:	4390                	lw	a2,0(a5)
    2c80:	43d4                	lw	a3,4(a5)
    2c82:	1a3010ef          	jal	ra,4624 <__subdf3>
    2c86:	864a                	mv	a2,s2
    2c88:	86ce                	mv	a3,s3
    2c8a:	4e2010ef          	jal	ra,416c <__muldf3>
    2c8e:	00006797          	auipc	a5,0x6
    2c92:	85278793          	addi	a5,a5,-1966 # 84e0 <dmp_memory+0xe14>
    2c96:	4390                	lw	a2,0(a5)
    2c98:	43d4                	lw	a3,4(a5)
    2c9a:	740000ef          	jal	ra,33da <__adddf3>
    2c9e:	864a                	mv	a2,s2
    2ca0:	86ce                	mv	a3,s3
    2ca2:	4ca010ef          	jal	ra,416c <__muldf3>
    2ca6:	00006797          	auipc	a5,0x6
    2caa:	84278793          	addi	a5,a5,-1982 # 84e8 <dmp_memory+0xe1c>
    2cae:	4390                	lw	a2,0(a5)
    2cb0:	43d4                	lw	a3,4(a5)
    2cb2:	173010ef          	jal	ra,4624 <__subdf3>
    2cb6:	864a                	mv	a2,s2
    2cb8:	86ce                	mv	a3,s3
    2cba:	4b2010ef          	jal	ra,416c <__muldf3>
    2cbe:	00005797          	auipc	a5,0x5
    2cc2:	7ba78793          	addi	a5,a5,1978 # 8478 <dmp_memory+0xdac>
    2cc6:	4390                	lw	a2,0(a5)
    2cc8:	43d4                	lw	a3,4(a5)
    2cca:	710000ef          	jal	ra,33da <__adddf3>
    2cce:	862a                	mv	a2,a0
    2cd0:	86ae                	mv	a3,a1
    2cd2:	8552                	mv	a0,s4
    2cd4:	85d6                	mv	a1,s5
    2cd6:	635000ef          	jal	ra,3b0a <__divdf3>
    2cda:	8626                	mv	a2,s1
    2cdc:	86a2                	mv	a3,s0
    2cde:	48e010ef          	jal	ra,416c <__muldf3>
    2ce2:	8626                	mv	a2,s1
    2ce4:	86a2                	mv	a3,s0
    2ce6:	6f4000ef          	jal	ra,33da <__adddf3>
    2cea:	84aa                	mv	s1,a0
    2cec:	b6ed                	j	28d6 <__ieee754_asin+0x4e>

00002cee <__ieee754_atan2>:
    2cee:	40c007b3          	neg	a5,a2
    2cf2:	80000737          	lui	a4,0x80000
    2cf6:	fff74713          	not	a4,a4
    2cfa:	8fd1                	or	a5,a5,a2
    2cfc:	1141                	addi	sp,sp,-16
    2cfe:	00d77e33          	and	t3,a4,a3
    2d02:	83fd                	srli	a5,a5,0x1f
    2d04:	c606                	sw	ra,12(sp)
    2d06:	c422                	sw	s0,8(sp)
    2d08:	01c7e7b3          	or	a5,a5,t3
    2d0c:	7ff00337          	lui	t1,0x7ff00
    2d10:	88aa                	mv	a7,a0
    2d12:	882e                	mv	a6,a1
    2d14:	04f36763          	bltu	t1,a5,2d62 <__ieee754_atan2+0x74>
    2d18:	40a007b3          	neg	a5,a0
    2d1c:	8fc9                	or	a5,a5,a0
    2d1e:	8f6d                	and	a4,a4,a1
    2d20:	83fd                	srli	a5,a5,0x1f
    2d22:	8fd9                	or	a5,a5,a4
    2d24:	8f2e                	mv	t5,a1
    2d26:	02f36e63          	bltu	t1,a5,2d62 <__ieee754_atan2+0x74>
    2d2a:	c01007b7          	lui	a5,0xc0100
    2d2e:	97b6                	add	a5,a5,a3
    2d30:	8fd1                	or	a5,a5,a2
    2d32:	c3f9                	beqz	a5,2df8 <__ieee754_atan2+0x10a>
    2d34:	41e6d413          	srai	s0,a3,0x1e
    2d38:	00247593          	andi	a1,s0,2
    2d3c:	00a767b3          	or	a5,a4,a0
    2d40:	01f85413          	srli	s0,a6,0x1f
    2d44:	8c4d                	or	s0,s0,a1
    2d46:	e79d                	bnez	a5,2d74 <__ieee754_atan2+0x86>
    2d48:	4789                	li	a5,2
    2d4a:	0af40b63          	beq	s0,a5,2e00 <__ieee754_atan2+0x112>
    2d4e:	478d                	li	a5,3
    2d50:	08f41f63          	bne	s0,a5,2dee <__ieee754_atan2+0x100>
    2d54:	00005797          	auipc	a5,0x5
    2d58:	7b478793          	addi	a5,a5,1972 # 8508 <dmp_memory+0xe3c>
    2d5c:	4388                	lw	a0,0(a5)
    2d5e:	43cc                	lw	a1,4(a5)
    2d60:	a031                	j	2d6c <__ieee754_atan2+0x7e>
    2d62:	8532                	mv	a0,a2
    2d64:	85b6                	mv	a1,a3
    2d66:	8646                	mv	a2,a7
    2d68:	86c2                	mv	a3,a6
    2d6a:	2d85                	jal	33da <__adddf3>
    2d6c:	40b2                	lw	ra,12(sp)
    2d6e:	4422                	lw	s0,8(sp)
    2d70:	0141                	addi	sp,sp,16
    2d72:	8082                	ret
    2d74:	00ce67b3          	or	a5,t3,a2
    2d78:	c3b5                	beqz	a5,2ddc <__ieee754_atan2+0xee>
    2d7a:	0a6e0163          	beq	t3,t1,2e1c <__ieee754_atan2+0x12e>
    2d7e:	04670f63          	beq	a4,t1,2ddc <__ieee754_atan2+0xee>
    2d82:	41c70733          	sub	a4,a4,t3
    2d86:	8751                	srai	a4,a4,0x14
    2d88:	03c00793          	li	a5,60
    2d8c:	08e7c163          	blt	a5,a4,2e0e <__ieee754_atan2+0x120>
    2d90:	0006d863          	bgez	a3,2da0 <__ieee754_atan2+0xb2>
    2d94:	fc400793          	li	a5,-60
    2d98:	4501                	li	a0,0
    2d9a:	4581                	li	a1,0
    2d9c:	00f74863          	blt	a4,a5,2dac <__ieee754_atan2+0xbe>
    2da0:	8546                	mv	a0,a7
    2da2:	85c2                	mv	a1,a6
    2da4:	567000ef          	jal	ra,3b0a <__divdf3>
    2da8:	2d29                	jal	33c2 <fabs>
    2daa:	2cd5                	jal	309e <atan>
    2dac:	4785                	li	a5,1
    2dae:	0af40f63          	beq	s0,a5,2e6c <__ieee754_atan2+0x17e>
    2db2:	4789                	li	a5,2
    2db4:	08f40963          	beq	s0,a5,2e46 <__ieee754_atan2+0x158>
    2db8:	d855                	beqz	s0,2d6c <__ieee754_atan2+0x7e>
    2dba:	00005797          	auipc	a5,0x5
    2dbe:	77e78793          	addi	a5,a5,1918 # 8538 <dmp_memory+0xe6c>
    2dc2:	4390                	lw	a2,0(a5)
    2dc4:	43d4                	lw	a3,4(a5)
    2dc6:	05f010ef          	jal	ra,4624 <__subdf3>
    2dca:	00005797          	auipc	a5,0x5
    2dce:	73678793          	addi	a5,a5,1846 # 8500 <dmp_memory+0xe34>
    2dd2:	4390                	lw	a2,0(a5)
    2dd4:	43d4                	lw	a3,4(a5)
    2dd6:	04f010ef          	jal	ra,4624 <__subdf3>
    2dda:	bf49                	j	2d6c <__ieee754_atan2+0x7e>
    2ddc:	040f4e63          	bltz	t5,2e38 <__ieee754_atan2+0x14a>
    2de0:	00005797          	auipc	a5,0x5
    2de4:	6a878793          	addi	a5,a5,1704 # 8488 <dmp_memory+0xdbc>
    2de8:	4388                	lw	a0,0(a5)
    2dea:	43cc                	lw	a1,4(a5)
    2dec:	b741                	j	2d6c <__ieee754_atan2+0x7e>
    2dee:	40b2                	lw	ra,12(sp)
    2df0:	4422                	lw	s0,8(sp)
    2df2:	85c2                	mv	a1,a6
    2df4:	0141                	addi	sp,sp,16
    2df6:	8082                	ret
    2df8:	4422                	lw	s0,8(sp)
    2dfa:	40b2                	lw	ra,12(sp)
    2dfc:	0141                	addi	sp,sp,16
    2dfe:	a445                	j	309e <atan>
    2e00:	00005797          	auipc	a5,0x5
    2e04:	70078793          	addi	a5,a5,1792 # 8500 <dmp_memory+0xe34>
    2e08:	4388                	lw	a0,0(a5)
    2e0a:	43cc                	lw	a1,4(a5)
    2e0c:	b785                	j	2d6c <__ieee754_atan2+0x7e>
    2e0e:	00005797          	auipc	a5,0x5
    2e12:	67a78793          	addi	a5,a5,1658 # 8488 <dmp_memory+0xdbc>
    2e16:	4388                	lw	a0,0(a5)
    2e18:	43cc                	lw	a1,4(a5)
    2e1a:	bf49                	j	2dac <__ieee754_atan2+0xbe>
    2e1c:	4789                	li	a5,2
    2e1e:	05c70b63          	beq	a4,t3,2e74 <__ieee754_atan2+0x186>
    2e22:	fcf40fe3          	beq	s0,a5,2e00 <__ieee754_atan2+0x112>
    2e26:	478d                	li	a5,3
    2e28:	f2f406e3          	beq	s0,a5,2d54 <__ieee754_atan2+0x66>
    2e2c:	4785                	li	a5,1
    2e2e:	06f40263          	beq	s0,a5,2e92 <__ieee754_atan2+0x1a4>
    2e32:	4501                	li	a0,0
    2e34:	4581                	li	a1,0
    2e36:	bf1d                	j	2d6c <__ieee754_atan2+0x7e>
    2e38:	00005797          	auipc	a5,0x5
    2e3c:	6e078793          	addi	a5,a5,1760 # 8518 <dmp_memory+0xe4c>
    2e40:	4388                	lw	a0,0(a5)
    2e42:	43cc                	lw	a1,4(a5)
    2e44:	b725                	j	2d6c <__ieee754_atan2+0x7e>
    2e46:	00005797          	auipc	a5,0x5
    2e4a:	6f278793          	addi	a5,a5,1778 # 8538 <dmp_memory+0xe6c>
    2e4e:	4390                	lw	a2,0(a5)
    2e50:	43d4                	lw	a3,4(a5)
    2e52:	7d2010ef          	jal	ra,4624 <__subdf3>
    2e56:	00005797          	auipc	a5,0x5
    2e5a:	6aa78793          	addi	a5,a5,1706 # 8500 <dmp_memory+0xe34>
    2e5e:	862a                	mv	a2,a0
    2e60:	86ae                	mv	a3,a1
    2e62:	4388                	lw	a0,0(a5)
    2e64:	43cc                	lw	a1,4(a5)
    2e66:	7be010ef          	jal	ra,4624 <__subdf3>
    2e6a:	b709                	j	2d6c <__ieee754_atan2+0x7e>
    2e6c:	800007b7          	lui	a5,0x80000
    2e70:	8dbd                	xor	a1,a1,a5
    2e72:	bded                	j	2d6c <__ieee754_atan2+0x7e>
    2e74:	04f40463          	beq	s0,a5,2ebc <__ieee754_atan2+0x1ce>
    2e78:	478d                	li	a5,3
    2e7a:	02f40a63          	beq	s0,a5,2eae <__ieee754_atan2+0x1c0>
    2e7e:	4785                	li	a5,1
    2e80:	02f40063          	beq	s0,a5,2ea0 <__ieee754_atan2+0x1b2>
    2e84:	00005797          	auipc	a5,0x5
    2e88:	67478793          	addi	a5,a5,1652 # 84f8 <dmp_memory+0xe2c>
    2e8c:	4388                	lw	a0,0(a5)
    2e8e:	43cc                	lw	a1,4(a5)
    2e90:	bdf1                	j	2d6c <__ieee754_atan2+0x7e>
    2e92:	00005797          	auipc	a5,0x5
    2e96:	67e78793          	addi	a5,a5,1662 # 8510 <dmp_memory+0xe44>
    2e9a:	4388                	lw	a0,0(a5)
    2e9c:	43cc                	lw	a1,4(a5)
    2e9e:	b5f9                	j	2d6c <__ieee754_atan2+0x7e>
    2ea0:	00005797          	auipc	a5,0x5
    2ea4:	69078793          	addi	a5,a5,1680 # 8530 <dmp_memory+0xe64>
    2ea8:	4388                	lw	a0,0(a5)
    2eaa:	43cc                	lw	a1,4(a5)
    2eac:	b5c1                	j	2d6c <__ieee754_atan2+0x7e>
    2eae:	00005797          	auipc	a5,0x5
    2eb2:	67a78793          	addi	a5,a5,1658 # 8528 <dmp_memory+0xe5c>
    2eb6:	4388                	lw	a0,0(a5)
    2eb8:	43cc                	lw	a1,4(a5)
    2eba:	bd4d                	j	2d6c <__ieee754_atan2+0x7e>
    2ebc:	00005797          	auipc	a5,0x5
    2ec0:	66478793          	addi	a5,a5,1636 # 8520 <dmp_memory+0xe54>
    2ec4:	4388                	lw	a0,0(a5)
    2ec6:	43cc                	lw	a1,4(a5)
    2ec8:	b555                	j	2d6c <__ieee754_atan2+0x7e>

00002eca <__ieee754_sqrt>:
    2eca:	1141                	addi	sp,sp,-16
    2ecc:	7ff00737          	lui	a4,0x7ff00
    2ed0:	c422                	sw	s0,8(sp)
    2ed2:	c226                	sw	s1,4(sp)
    2ed4:	c606                	sw	ra,12(sp)
    2ed6:	00b77833          	and	a6,a4,a1
    2eda:	842e                	mv	s0,a1
    2edc:	84aa                	mv	s1,a0
    2ede:	16e80d63          	beq	a6,a4,3058 <__ieee754_sqrt+0x18e>
    2ee2:	87ae                	mv	a5,a1
    2ee4:	86aa                	mv	a3,a0
    2ee6:	0eb05f63          	blez	a1,2fe4 <__ieee754_sqrt+0x11a>
    2eea:	4145de13          	srai	t3,a1,0x14
    2eee:	1a0e0063          	beqz	t3,308e <__ieee754_sqrt+0x1c4>
    2ef2:	00100737          	lui	a4,0x100
    2ef6:	fff70613          	addi	a2,a4,-1 # fffff <_data_lma+0xf772b>
    2efa:	8ff1                	and	a5,a5,a2
    2efc:	8fd9                	or	a5,a5,a4
    2efe:	c01e0e13          	addi	t3,t3,-1023
    2f02:	00179713          	slli	a4,a5,0x1
    2f06:	001e7613          	andi	a2,t3,1
    2f0a:	01f6d793          	srli	a5,a3,0x1f
    2f0e:	97ba                	add	a5,a5,a4
    2f10:	00169713          	slli	a4,a3,0x1
    2f14:	c611                	beqz	a2,2f20 <__ieee754_sqrt+0x56>
    2f16:	837d                	srli	a4,a4,0x1f
    2f18:	0786                	slli	a5,a5,0x1
    2f1a:	97ba                	add	a5,a5,a4
    2f1c:	00269713          	slli	a4,a3,0x2
    2f20:	401e5e13          	srai	t3,t3,0x1
    2f24:	45d9                	li	a1,22
    2f26:	4e81                	li	t4,0
    2f28:	4681                	li	a3,0
    2f2a:	00200637          	lui	a2,0x200
    2f2e:	00c68533          	add	a0,a3,a2
    2f32:	01f75813          	srli	a6,a4,0x1f
    2f36:	15fd                	addi	a1,a1,-1
    2f38:	00a7c663          	blt	a5,a0,2f44 <__ieee754_sqrt+0x7a>
    2f3c:	8f89                	sub	a5,a5,a0
    2f3e:	00c506b3          	add	a3,a0,a2
    2f42:	9eb2                	add	t4,t4,a2
    2f44:	0786                	slli	a5,a5,0x1
    2f46:	97c2                	add	a5,a5,a6
    2f48:	0706                	slli	a4,a4,0x1
    2f4a:	8205                	srli	a2,a2,0x1
    2f4c:	f1ed                	bnez	a1,2f2e <__ieee754_sqrt+0x64>
    2f4e:	02000513          	li	a0,32
    2f52:	4301                	li	t1,0
    2f54:	4881                	li	a7,0
    2f56:	80000637          	lui	a2,0x80000
    2f5a:	a819                	j	2f70 <__ieee754_sqrt+0xa6>
    2f5c:	0ed78563          	beq	a5,a3,3046 <__ieee754_sqrt+0x17c>
    2f60:	01f75593          	srli	a1,a4,0x1f
    2f64:	0786                	slli	a5,a5,0x1
    2f66:	157d                	addi	a0,a0,-1
    2f68:	97ae                	add	a5,a5,a1
    2f6a:	0706                	slli	a4,a4,0x1
    2f6c:	8205                	srli	a2,a2,0x1
    2f6e:	c90d                	beqz	a0,2fa0 <__ieee754_sqrt+0xd6>
    2f70:	011605b3          	add	a1,a2,a7
    2f74:	fef6d4e3          	bge	a3,a5,2f5c <__ieee754_sqrt+0x92>
    2f78:	00c588b3          	add	a7,a1,a2
    2f7c:	8836                	mv	a6,a3
    2f7e:	0a05ce63          	bltz	a1,303a <__ieee754_sqrt+0x170>
    2f82:	8f95                	sub	a5,a5,a3
    2f84:	00b736b3          	sltu	a3,a4,a1
    2f88:	8f95                	sub	a5,a5,a3
    2f8a:	8f0d                	sub	a4,a4,a1
    2f8c:	01f75593          	srli	a1,a4,0x1f
    2f90:	0786                	slli	a5,a5,0x1
    2f92:	157d                	addi	a0,a0,-1
    2f94:	9332                	add	t1,t1,a2
    2f96:	86c2                	mv	a3,a6
    2f98:	97ae                	add	a5,a5,a1
    2f9a:	0706                	slli	a4,a4,0x1
    2f9c:	8205                	srli	a2,a2,0x1
    2f9e:	f969                	bnez	a0,2f70 <__ieee754_sqrt+0xa6>
    2fa0:	8fd9                	or	a5,a5,a4
    2fa2:	00135493          	srli	s1,t1,0x1
    2fa6:	cb89                	beqz	a5,2fb8 <__ieee754_sqrt+0xee>
    2fa8:	00130493          	addi	s1,t1,1 # 7ff00001 <_eusrstack+0x5fef8001>
    2fac:	57fd                	li	a5,-1
    2fae:	8085                	srli	s1,s1,0x1
    2fb0:	00f31463          	bne	t1,a5,2fb8 <__ieee754_sqrt+0xee>
    2fb4:	0e85                	addi	t4,t4,1
    2fb6:	4481                	li	s1,0
    2fb8:	401ed713          	srai	a4,t4,0x1
    2fbc:	3fe00437          	lui	s0,0x3fe00
    2fc0:	001efe93          	andi	t4,t4,1
    2fc4:	943a                	add	s0,s0,a4
    2fc6:	000e8563          	beqz	t4,2fd0 <__ieee754_sqrt+0x106>
    2fca:	800007b7          	lui	a5,0x80000
    2fce:	8cdd                	or	s1,s1,a5
    2fd0:	014e1713          	slli	a4,t3,0x14
    2fd4:	9722                	add	a4,a4,s0
    2fd6:	40b2                	lw	ra,12(sp)
    2fd8:	4422                	lw	s0,8(sp)
    2fda:	8526                	mv	a0,s1
    2fdc:	85ba                	mv	a1,a4
    2fde:	4492                	lw	s1,4(sp)
    2fe0:	0141                	addi	sp,sp,16
    2fe2:	8082                	ret
    2fe4:	00159713          	slli	a4,a1,0x1
    2fe8:	8305                	srli	a4,a4,0x1
    2fea:	00a76833          	or	a6,a4,a0
    2fee:	872e                	mv	a4,a1
    2ff0:	fe0803e3          	beqz	a6,2fd6 <__ieee754_sqrt+0x10c>
    2ff4:	e1d1                	bnez	a1,3078 <__ieee754_sqrt+0x1ae>
    2ff6:	00b6d593          	srli	a1,a3,0xb
    2ffa:	17ad                	addi	a5,a5,-21
    2ffc:	872e                	mv	a4,a1
    2ffe:	06d6                	slli	a3,a3,0x15
    3000:	d9fd                	beqz	a1,2ff6 <__ieee754_sqrt+0x12c>
    3002:	0145d613          	srli	a2,a1,0x14
    3006:	e659                	bnez	a2,3094 <__ieee754_sqrt+0x1ca>
    3008:	4601                	li	a2,0
    300a:	a011                	j	300e <__ieee754_sqrt+0x144>
    300c:	862a                	mv	a2,a0
    300e:	0706                	slli	a4,a4,0x1
    3010:	00b71593          	slli	a1,a4,0xb
    3014:	00160513          	addi	a0,a2,1 # 80000001 <_eusrstack+0x5fff8001>
    3018:	fe05dae3          	bgez	a1,300c <__ieee754_sqrt+0x142>
    301c:	02000893          	li	a7,32
    3020:	8836                	mv	a6,a3
    3022:	40a888b3          	sub	a7,a7,a0
    3026:	85ba                	mv	a1,a4
    3028:	00a696b3          	sll	a3,a3,a0
    302c:	01185733          	srl	a4,a6,a7
    3030:	40c78e33          	sub	t3,a5,a2
    3034:	00b767b3          	or	a5,a4,a1
    3038:	bd6d                	j	2ef2 <__ieee754_sqrt+0x28>
    303a:	fff8c813          	not	a6,a7
    303e:	01f85813          	srli	a6,a6,0x1f
    3042:	9836                	add	a6,a6,a3
    3044:	bf3d                	j	2f82 <__ieee754_sqrt+0xb8>
    3046:	f0b76de3          	bltu	a4,a1,2f60 <__ieee754_sqrt+0x96>
    304a:	00c588b3          	add	a7,a1,a2
    304e:	fe05c6e3          	bltz	a1,303a <__ieee754_sqrt+0x170>
    3052:	883e                	mv	a6,a5
    3054:	4781                	li	a5,0
    3056:	bf15                	j	2f8a <__ieee754_sqrt+0xc0>
    3058:	862a                	mv	a2,a0
    305a:	86ae                	mv	a3,a1
    305c:	110010ef          	jal	ra,416c <__muldf3>
    3060:	8626                	mv	a2,s1
    3062:	86a2                	mv	a3,s0
    3064:	2e9d                	jal	33da <__adddf3>
    3066:	40b2                	lw	ra,12(sp)
    3068:	4422                	lw	s0,8(sp)
    306a:	84aa                	mv	s1,a0
    306c:	872e                	mv	a4,a1
    306e:	8526                	mv	a0,s1
    3070:	85ba                	mv	a1,a4
    3072:	4492                	lw	s1,4(sp)
    3074:	0141                	addi	sp,sp,16
    3076:	8082                	ret
    3078:	862a                	mv	a2,a0
    307a:	86ae                	mv	a3,a1
    307c:	5a8010ef          	jal	ra,4624 <__subdf3>
    3080:	862a                	mv	a2,a0
    3082:	86ae                	mv	a3,a1
    3084:	287000ef          	jal	ra,3b0a <__divdf3>
    3088:	84aa                	mv	s1,a0
    308a:	872e                	mv	a4,a1
    308c:	b7a9                	j	2fd6 <__ieee754_sqrt+0x10c>
    308e:	872e                	mv	a4,a1
    3090:	4781                	li	a5,0
    3092:	bf9d                	j	3008 <__ieee754_sqrt+0x13e>
    3094:	8836                	mv	a6,a3
    3096:	02000893          	li	a7,32
    309a:	567d                	li	a2,-1
    309c:	bf41                	j	302c <__ieee754_sqrt+0x162>

0000309e <atan>:
    309e:	7179                	addi	sp,sp,-48
    30a0:	d04a                	sw	s2,32(sp)
    30a2:	00159913          	slli	s2,a1,0x1
    30a6:	d422                	sw	s0,40(sp)
    30a8:	d226                	sw	s1,36(sp)
    30aa:	ca56                	sw	s5,20(sp)
    30ac:	d606                	sw	ra,44(sp)
    30ae:	ce4e                	sw	s3,28(sp)
    30b0:	cc52                	sw	s4,24(sp)
    30b2:	c85a                	sw	s6,16(sp)
    30b4:	c65e                	sw	s7,12(sp)
    30b6:	00195913          	srli	s2,s2,0x1
    30ba:	441007b7          	lui	a5,0x44100
    30be:	842e                	mv	s0,a1
    30c0:	84aa                	mv	s1,a0
    30c2:	8aae                	mv	s5,a1
    30c4:	04f94663          	blt	s2,a5,3110 <atan+0x72>
    30c8:	7ff007b7          	lui	a5,0x7ff00
    30cc:	0127ce63          	blt	a5,s2,30e8 <atan+0x4a>
    30d0:	00f90b63          	beq	s2,a5,30e6 <atan+0x48>
    30d4:	1f505363          	blez	s5,32ba <atan+0x21c>
    30d8:	00005797          	auipc	a5,0x5
    30dc:	3b078793          	addi	a5,a5,944 # 8488 <dmp_memory+0xdbc>
    30e0:	4384                	lw	s1,0(a5)
    30e2:	43c0                	lw	s0,4(a5)
    30e4:	a809                	j	30f6 <atan+0x58>
    30e6:	d57d                	beqz	a0,30d4 <atan+0x36>
    30e8:	8626                	mv	a2,s1
    30ea:	8526                	mv	a0,s1
    30ec:	86a2                	mv	a3,s0
    30ee:	85a2                	mv	a1,s0
    30f0:	24ed                	jal	33da <__adddf3>
    30f2:	84aa                	mv	s1,a0
    30f4:	842e                	mv	s0,a1
    30f6:	85a2                	mv	a1,s0
    30f8:	50b2                	lw	ra,44(sp)
    30fa:	5422                	lw	s0,40(sp)
    30fc:	8526                	mv	a0,s1
    30fe:	5902                	lw	s2,32(sp)
    3100:	5492                	lw	s1,36(sp)
    3102:	49f2                	lw	s3,28(sp)
    3104:	4a62                	lw	s4,24(sp)
    3106:	4ad2                	lw	s5,20(sp)
    3108:	4b42                	lw	s6,16(sp)
    310a:	4bb2                	lw	s7,12(sp)
    310c:	6145                	addi	sp,sp,48
    310e:	8082                	ret
    3110:	3fdc07b7          	lui	a5,0x3fdc0
    3114:	1cf95163          	bge	s2,a5,32d6 <atan+0x238>
    3118:	3e2007b7          	lui	a5,0x3e200
    311c:	16f94d63          	blt	s2,a5,3296 <atan+0x1f8>
    3120:	5a7d                	li	s4,-1
    3122:	8626                	mv	a2,s1
    3124:	86a2                	mv	a3,s0
    3126:	8526                	mv	a0,s1
    3128:	85a2                	mv	a1,s0
    312a:	042010ef          	jal	ra,416c <__muldf3>
    312e:	862a                	mv	a2,a0
    3130:	86ae                	mv	a3,a1
    3132:	8b2a                	mv	s6,a0
    3134:	8bae                	mv	s7,a1
    3136:	036010ef          	jal	ra,416c <__muldf3>
    313a:	00005797          	auipc	a5,0x5
    313e:	41e78793          	addi	a5,a5,1054 # 8558 <dmp_memory+0xe8c>
    3142:	4390                	lw	a2,0(a5)
    3144:	43d4                	lw	a3,4(a5)
    3146:	892a                	mv	s2,a0
    3148:	89ae                	mv	s3,a1
    314a:	022010ef          	jal	ra,416c <__muldf3>
    314e:	00005797          	auipc	a5,0x5
    3152:	41278793          	addi	a5,a5,1042 # 8560 <dmp_memory+0xe94>
    3156:	4390                	lw	a2,0(a5)
    3158:	43d4                	lw	a3,4(a5)
    315a:	2441                	jal	33da <__adddf3>
    315c:	864a                	mv	a2,s2
    315e:	86ce                	mv	a3,s3
    3160:	00c010ef          	jal	ra,416c <__muldf3>
    3164:	00005797          	auipc	a5,0x5
    3168:	40478793          	addi	a5,a5,1028 # 8568 <dmp_memory+0xe9c>
    316c:	4390                	lw	a2,0(a5)
    316e:	43d4                	lw	a3,4(a5)
    3170:	24ad                	jal	33da <__adddf3>
    3172:	864a                	mv	a2,s2
    3174:	86ce                	mv	a3,s3
    3176:	7f7000ef          	jal	ra,416c <__muldf3>
    317a:	00005797          	auipc	a5,0x5
    317e:	3f678793          	addi	a5,a5,1014 # 8570 <dmp_memory+0xea4>
    3182:	4390                	lw	a2,0(a5)
    3184:	43d4                	lw	a3,4(a5)
    3186:	2c91                	jal	33da <__adddf3>
    3188:	864a                	mv	a2,s2
    318a:	86ce                	mv	a3,s3
    318c:	7e1000ef          	jal	ra,416c <__muldf3>
    3190:	00005797          	auipc	a5,0x5
    3194:	3e878793          	addi	a5,a5,1000 # 8578 <dmp_memory+0xeac>
    3198:	4390                	lw	a2,0(a5)
    319a:	43d4                	lw	a3,4(a5)
    319c:	2c3d                	jal	33da <__adddf3>
    319e:	864a                	mv	a2,s2
    31a0:	86ce                	mv	a3,s3
    31a2:	7cb000ef          	jal	ra,416c <__muldf3>
    31a6:	00005797          	auipc	a5,0x5
    31aa:	3da78793          	addi	a5,a5,986 # 8580 <dmp_memory+0xeb4>
    31ae:	4390                	lw	a2,0(a5)
    31b0:	43d4                	lw	a3,4(a5)
    31b2:	2425                	jal	33da <__adddf3>
    31b4:	865a                	mv	a2,s6
    31b6:	86de                	mv	a3,s7
    31b8:	7b5000ef          	jal	ra,416c <__muldf3>
    31bc:	00005797          	auipc	a5,0x5
    31c0:	3cc78793          	addi	a5,a5,972 # 8588 <dmp_memory+0xebc>
    31c4:	4390                	lw	a2,0(a5)
    31c6:	43d4                	lw	a3,4(a5)
    31c8:	8b2a                	mv	s6,a0
    31ca:	8bae                	mv	s7,a1
    31cc:	854a                	mv	a0,s2
    31ce:	85ce                	mv	a1,s3
    31d0:	79d000ef          	jal	ra,416c <__muldf3>
    31d4:	00005797          	auipc	a5,0x5
    31d8:	3bc78793          	addi	a5,a5,956 # 8590 <dmp_memory+0xec4>
    31dc:	4390                	lw	a2,0(a5)
    31de:	43d4                	lw	a3,4(a5)
    31e0:	444010ef          	jal	ra,4624 <__subdf3>
    31e4:	864a                	mv	a2,s2
    31e6:	86ce                	mv	a3,s3
    31e8:	785000ef          	jal	ra,416c <__muldf3>
    31ec:	00005797          	auipc	a5,0x5
    31f0:	3ac78793          	addi	a5,a5,940 # 8598 <dmp_memory+0xecc>
    31f4:	4390                	lw	a2,0(a5)
    31f6:	43d4                	lw	a3,4(a5)
    31f8:	42c010ef          	jal	ra,4624 <__subdf3>
    31fc:	864a                	mv	a2,s2
    31fe:	86ce                	mv	a3,s3
    3200:	76d000ef          	jal	ra,416c <__muldf3>
    3204:	00005797          	auipc	a5,0x5
    3208:	39c78793          	addi	a5,a5,924 # 85a0 <dmp_memory+0xed4>
    320c:	4390                	lw	a2,0(a5)
    320e:	43d4                	lw	a3,4(a5)
    3210:	414010ef          	jal	ra,4624 <__subdf3>
    3214:	864a                	mv	a2,s2
    3216:	86ce                	mv	a3,s3
    3218:	755000ef          	jal	ra,416c <__muldf3>
    321c:	00005797          	auipc	a5,0x5
    3220:	38c78793          	addi	a5,a5,908 # 85a8 <dmp_memory+0xedc>
    3224:	4390                	lw	a2,0(a5)
    3226:	43d4                	lw	a3,4(a5)
    3228:	3fc010ef          	jal	ra,4624 <__subdf3>
    322c:	864a                	mv	a2,s2
    322e:	86ce                	mv	a3,s3
    3230:	73d000ef          	jal	ra,416c <__muldf3>
    3234:	862a                	mv	a2,a0
    3236:	86ae                	mv	a3,a1
    3238:	855a                	mv	a0,s6
    323a:	85de                	mv	a1,s7
    323c:	2a79                	jal	33da <__adddf3>
    323e:	8626                	mv	a2,s1
    3240:	86a2                	mv	a3,s0
    3242:	72b000ef          	jal	ra,416c <__muldf3>
    3246:	57fd                	li	a5,-1
    3248:	862a                	mv	a2,a0
    324a:	86ae                	mv	a3,a1
    324c:	06fa0e63          	beq	s4,a5,32c8 <atan+0x22a>
    3250:	0a0e                	slli	s4,s4,0x3
    3252:	00005797          	auipc	a5,0x5
    3256:	37e78793          	addi	a5,a5,894 # 85d0 <atanlo>
    325a:	97d2                	add	a5,a5,s4
    325c:	4390                	lw	a2,0(a5)
    325e:	43d4                	lw	a3,4(a5)
    3260:	00005797          	auipc	a5,0x5
    3264:	35078793          	addi	a5,a5,848 # 85b0 <atanhi>
    3268:	9a3e                	add	s4,s4,a5
    326a:	3ba010ef          	jal	ra,4624 <__subdf3>
    326e:	8626                	mv	a2,s1
    3270:	86a2                	mv	a3,s0
    3272:	3b2010ef          	jal	ra,4624 <__subdf3>
    3276:	862a                	mv	a2,a0
    3278:	86ae                	mv	a3,a1
    327a:	000a2503          	lw	a0,0(s4)
    327e:	004a2583          	lw	a1,4(s4)
    3282:	3a2010ef          	jal	ra,4624 <__subdf3>
    3286:	84aa                	mv	s1,a0
    3288:	842e                	mv	s0,a1
    328a:	e60ad6e3          	bgez	s5,30f6 <atan+0x58>
    328e:	80000437          	lui	s0,0x80000
    3292:	8c2d                	xor	s0,s0,a1
    3294:	b58d                	j	30f6 <atan+0x58>
    3296:	00005797          	auipc	a5,0x5
    329a:	20278793          	addi	a5,a5,514 # 8498 <dmp_memory+0xdcc>
    329e:	4390                	lw	a2,0(a5)
    32a0:	43d4                	lw	a3,4(a5)
    32a2:	2a25                	jal	33da <__adddf3>
    32a4:	00005797          	auipc	a5,0x5
    32a8:	1d478793          	addi	a5,a5,468 # 8478 <dmp_memory+0xdac>
    32ac:	4390                	lw	a2,0(a5)
    32ae:	43d4                	lw	a3,4(a5)
    32b0:	60f000ef          	jal	ra,40be <__gedf2>
    32b4:	e6a056e3          	blez	a0,3120 <atan+0x82>
    32b8:	bd3d                	j	30f6 <atan+0x58>
    32ba:	00005797          	auipc	a5,0x5
    32be:	25e78793          	addi	a5,a5,606 # 8518 <dmp_memory+0xe4c>
    32c2:	4384                	lw	s1,0(a5)
    32c4:	43c0                	lw	s0,4(a5)
    32c6:	bd05                	j	30f6 <atan+0x58>
    32c8:	8526                	mv	a0,s1
    32ca:	85a2                	mv	a1,s0
    32cc:	358010ef          	jal	ra,4624 <__subdf3>
    32d0:	84aa                	mv	s1,a0
    32d2:	842e                	mv	s0,a1
    32d4:	b50d                	j	30f6 <atan+0x58>
    32d6:	20f5                	jal	33c2 <fabs>
    32d8:	3ff307b7          	lui	a5,0x3ff30
    32dc:	842a                	mv	s0,a0
    32de:	84ae                	mv	s1,a1
    32e0:	04f95663          	bge	s2,a5,332c <atan+0x28e>
    32e4:	3fe607b7          	lui	a5,0x3fe60
    32e8:	0af95963          	bge	s2,a5,339a <atan+0x2fc>
    32ec:	862a                	mv	a2,a0
    32ee:	86ae                	mv	a3,a1
    32f0:	20ed                	jal	33da <__adddf3>
    32f2:	00005797          	auipc	a5,0x5
    32f6:	18678793          	addi	a5,a5,390 # 8478 <dmp_memory+0xdac>
    32fa:	4390                	lw	a2,0(a5)
    32fc:	43d4                	lw	a3,4(a5)
    32fe:	4a01                	li	s4,0
    3300:	324010ef          	jal	ra,4624 <__subdf3>
    3304:	00005797          	auipc	a5,0x5
    3308:	23c78793          	addi	a5,a5,572 # 8540 <dmp_memory+0xe74>
    330c:	4390                	lw	a2,0(a5)
    330e:	43d4                	lw	a3,4(a5)
    3310:	892a                	mv	s2,a0
    3312:	89ae                	mv	s3,a1
    3314:	8522                	mv	a0,s0
    3316:	85a6                	mv	a1,s1
    3318:	20c9                	jal	33da <__adddf3>
    331a:	862a                	mv	a2,a0
    331c:	86ae                	mv	a3,a1
    331e:	854a                	mv	a0,s2
    3320:	85ce                	mv	a1,s3
    3322:	7e8000ef          	jal	ra,3b0a <__divdf3>
    3326:	84aa                	mv	s1,a0
    3328:	842e                	mv	s0,a1
    332a:	bbe5                	j	3122 <atan+0x84>
    332c:	400387b7          	lui	a5,0x40038
    3330:	04f95763          	bge	s2,a5,337e <atan+0x2e0>
    3334:	00005917          	auipc	s2,0x5
    3338:	21490913          	addi	s2,s2,532 # 8548 <dmp_memory+0xe7c>
    333c:	00092603          	lw	a2,0(s2)
    3340:	00492683          	lw	a3,4(s2)
    3344:	4a09                	li	s4,2
    3346:	2de010ef          	jal	ra,4624 <__subdf3>
    334a:	00092603          	lw	a2,0(s2)
    334e:	00492683          	lw	a3,4(s2)
    3352:	8b2a                	mv	s6,a0
    3354:	8bae                	mv	s7,a1
    3356:	8522                	mv	a0,s0
    3358:	85a6                	mv	a1,s1
    335a:	613000ef          	jal	ra,416c <__muldf3>
    335e:	00005797          	auipc	a5,0x5
    3362:	11a78793          	addi	a5,a5,282 # 8478 <dmp_memory+0xdac>
    3366:	4390                	lw	a2,0(a5)
    3368:	43d4                	lw	a3,4(a5)
    336a:	2885                	jal	33da <__adddf3>
    336c:	862a                	mv	a2,a0
    336e:	86ae                	mv	a3,a1
    3370:	855a                	mv	a0,s6
    3372:	85de                	mv	a1,s7
    3374:	796000ef          	jal	ra,3b0a <__divdf3>
    3378:	84aa                	mv	s1,a0
    337a:	842e                	mv	s0,a1
    337c:	b35d                	j	3122 <atan+0x84>
    337e:	00005797          	auipc	a5,0x5
    3382:	1d278793          	addi	a5,a5,466 # 8550 <dmp_memory+0xe84>
    3386:	4388                	lw	a0,0(a5)
    3388:	43cc                	lw	a1,4(a5)
    338a:	8622                	mv	a2,s0
    338c:	86a6                	mv	a3,s1
    338e:	77c000ef          	jal	ra,3b0a <__divdf3>
    3392:	4a0d                	li	s4,3
    3394:	84aa                	mv	s1,a0
    3396:	842e                	mv	s0,a1
    3398:	b369                	j	3122 <atan+0x84>
    339a:	00005917          	auipc	s2,0x5
    339e:	0de90913          	addi	s2,s2,222 # 8478 <dmp_memory+0xdac>
    33a2:	00092603          	lw	a2,0(s2)
    33a6:	00492683          	lw	a3,4(s2)
    33aa:	4a05                	li	s4,1
    33ac:	278010ef          	jal	ra,4624 <__subdf3>
    33b0:	8b2a                	mv	s6,a0
    33b2:	8bae                	mv	s7,a1
    33b4:	00092603          	lw	a2,0(s2)
    33b8:	00492683          	lw	a3,4(s2)
    33bc:	8522                	mv	a0,s0
    33be:	85a6                	mv	a1,s1
    33c0:	b76d                	j	336a <atan+0x2cc>

000033c2 <fabs>:
    33c2:	0586                	slli	a1,a1,0x1
    33c4:	8185                	srli	a1,a1,0x1
    33c6:	8082                	ret

000033c8 <matherr>:
    33c8:	4501                	li	a0,0
    33ca:	8082                	ret

000033cc <nan>:
    33cc:	00005797          	auipc	a5,0x5
    33d0:	22478793          	addi	a5,a5,548 # 85f0 <atanlo+0x20>
    33d4:	4388                	lw	a0,0(a5)
    33d6:	43cc                	lw	a1,4(a5)
    33d8:	8082                	ret

000033da <__adddf3>:
    33da:	00100837          	lui	a6,0x100
    33de:	1101                	addi	sp,sp,-32
    33e0:	187d                	addi	a6,a6,-1
    33e2:	00b87733          	and	a4,a6,a1
    33e6:	ca26                	sw	s1,20(sp)
    33e8:	00d87833          	and	a6,a6,a3
    33ec:	0145d493          	srli	s1,a1,0x14
    33f0:	0146d313          	srli	t1,a3,0x14
    33f4:	00371e13          	slli	t3,a4,0x3
    33f8:	c64e                	sw	s3,12(sp)
    33fa:	01d55713          	srli	a4,a0,0x1d
    33fe:	080e                	slli	a6,a6,0x3
    3400:	01d65793          	srli	a5,a2,0x1d
    3404:	7ff4f493          	andi	s1,s1,2047
    3408:	7ff37313          	andi	t1,t1,2047
    340c:	ce06                	sw	ra,28(sp)
    340e:	cc22                	sw	s0,24(sp)
    3410:	c84a                	sw	s2,16(sp)
    3412:	01f5d993          	srli	s3,a1,0x1f
    3416:	01f6de93          	srli	t4,a3,0x1f
    341a:	01c76733          	or	a4,a4,t3
    341e:	00351f13          	slli	t5,a0,0x3
    3422:	0107e833          	or	a6,a5,a6
    3426:	00361f93          	slli	t6,a2,0x3
    342a:	40648e33          	sub	t3,s1,t1
    342e:	19d98063          	beq	s3,t4,35ae <__adddf3+0x1d4>
    3432:	13c05663          	blez	t3,355e <__adddf3+0x184>
    3436:	1c030463          	beqz	t1,35fe <__adddf3+0x224>
    343a:	008006b7          	lui	a3,0x800
    343e:	7ff00793          	li	a5,2047
    3442:	00d86833          	or	a6,a6,a3
    3446:	36f48f63          	beq	s1,a5,37c4 <__adddf3+0x3ea>
    344a:	03800793          	li	a5,56
    344e:	35c7c063          	blt	a5,t3,378e <__adddf3+0x3b4>
    3452:	47fd                	li	a5,31
    3454:	47c7cd63          	blt	a5,t3,38ce <__adddf3+0x4f4>
    3458:	02000513          	li	a0,32
    345c:	41c50533          	sub	a0,a0,t3
    3460:	01cfd7b3          	srl	a5,t6,t3
    3464:	00a816b3          	sll	a3,a6,a0
    3468:	00af9933          	sll	s2,t6,a0
    346c:	8edd                	or	a3,a3,a5
    346e:	01203933          	snez	s2,s2
    3472:	01c857b3          	srl	a5,a6,t3
    3476:	0126e933          	or	s2,a3,s2
    347a:	8f1d                	sub	a4,a4,a5
    347c:	412f0933          	sub	s2,t5,s2
    3480:	012f37b3          	sltu	a5,t5,s2
    3484:	40f70633          	sub	a2,a4,a5
    3488:	00861793          	slli	a5,a2,0x8
    348c:	2407d463          	bgez	a5,36d4 <__adddf3+0x2fa>
    3490:	00800737          	lui	a4,0x800
    3494:	177d                	addi	a4,a4,-1
    3496:	00e67433          	and	s0,a2,a4
    349a:	2c040c63          	beqz	s0,3772 <__adddf3+0x398>
    349e:	8522                	mv	a0,s0
    34a0:	199020ef          	jal	ra,5e38 <__clzsi2>
    34a4:	ff850713          	addi	a4,a0,-8
    34a8:	02000793          	li	a5,32
    34ac:	8f99                	sub	a5,a5,a4
    34ae:	00f957b3          	srl	a5,s2,a5
    34b2:	00e41633          	sll	a2,s0,a4
    34b6:	8fd1                	or	a5,a5,a2
    34b8:	00e91933          	sll	s2,s2,a4
    34bc:	2a974163          	blt	a4,s1,375e <__adddf3+0x384>
    34c0:	40970533          	sub	a0,a4,s1
    34c4:	00150613          	addi	a2,a0,1
    34c8:	477d                	li	a4,31
    34ca:	38c74d63          	blt	a4,a2,3864 <__adddf3+0x48a>
    34ce:	02000713          	li	a4,32
    34d2:	8f11                	sub	a4,a4,a2
    34d4:	00c956b3          	srl	a3,s2,a2
    34d8:	00e91933          	sll	s2,s2,a4
    34dc:	00e79733          	sll	a4,a5,a4
    34e0:	8f55                	or	a4,a4,a3
    34e2:	01203933          	snez	s2,s2
    34e6:	01276933          	or	s2,a4,s2
    34ea:	00c7d633          	srl	a2,a5,a2
    34ee:	4481                	li	s1,0
    34f0:	00797793          	andi	a5,s2,7
    34f4:	cf81                	beqz	a5,350c <__adddf3+0x132>
    34f6:	00f97713          	andi	a4,s2,15
    34fa:	4791                	li	a5,4
    34fc:	00f70863          	beq	a4,a5,350c <__adddf3+0x132>
    3500:	00490713          	addi	a4,s2,4
    3504:	01273933          	sltu	s2,a4,s2
    3508:	964a                	add	a2,a2,s2
    350a:	893a                	mv	s2,a4
    350c:	00861793          	slli	a5,a2,0x8
    3510:	1c07d663          	bgez	a5,36dc <__adddf3+0x302>
    3514:	00148513          	addi	a0,s1,1
    3518:	7ff00793          	li	a5,2047
    351c:	85ce                	mv	a1,s3
    351e:	20f50463          	beq	a0,a5,3726 <__adddf3+0x34c>
    3522:	ff8007b7          	lui	a5,0xff800
    3526:	17fd                	addi	a5,a5,-1
    3528:	8ff1                	and	a5,a5,a2
    352a:	01d79893          	slli	a7,a5,0x1d
    352e:	00395913          	srli	s2,s2,0x3
    3532:	07a6                	slli	a5,a5,0x9
    3534:	0128e8b3          	or	a7,a7,s2
    3538:	83b1                	srli	a5,a5,0xc
    353a:	7ff57513          	andi	a0,a0,2047
    353e:	00c79693          	slli	a3,a5,0xc
    3542:	0552                	slli	a0,a0,0x14
    3544:	40f2                	lw	ra,28(sp)
    3546:	4462                	lw	s0,24(sp)
    3548:	82b1                	srli	a3,a3,0xc
    354a:	05fe                	slli	a1,a1,0x1f
    354c:	8ec9                	or	a3,a3,a0
    354e:	8ecd                	or	a3,a3,a1
    3550:	44d2                	lw	s1,20(sp)
    3552:	4942                	lw	s2,16(sp)
    3554:	49b2                	lw	s3,12(sp)
    3556:	8546                	mv	a0,a7
    3558:	85b6                	mv	a1,a3
    355a:	6105                	addi	sp,sp,32
    355c:	8082                	ret
    355e:	0a0e1e63          	bnez	t3,361a <__adddf3+0x240>
    3562:	00148313          	addi	t1,s1,1
    3566:	7fe37313          	andi	t1,t1,2046
    356a:	22031763          	bnez	t1,3798 <__adddf3+0x3be>
    356e:	01e767b3          	or	a5,a4,t5
    3572:	01f868b3          	or	a7,a6,t6
    3576:	1a049d63          	bnez	s1,3730 <__adddf3+0x356>
    357a:	40078763          	beqz	a5,3988 <__adddf3+0x5ae>
    357e:	44088663          	beqz	a7,39ca <__adddf3+0x5f0>
    3582:	41ff0933          	sub	s2,t5,t6
    3586:	410707b3          	sub	a5,a4,a6
    358a:	012f3633          	sltu	a2,t5,s2
    358e:	40c78633          	sub	a2,a5,a2
    3592:	00861793          	slli	a5,a2,0x8
    3596:	4c07d663          	bgez	a5,3a62 <__adddf3+0x688>
    359a:	41ef8933          	sub	s2,t6,t5
    359e:	40e807b3          	sub	a5,a6,a4
    35a2:	012fb633          	sltu	a2,t6,s2
    35a6:	40c78633          	sub	a2,a5,a2
    35aa:	89f6                	mv	s3,t4
    35ac:	b791                	j	34f0 <__adddf3+0x116>
    35ae:	0fc05063          	blez	t3,368e <__adddf3+0x2b4>
    35b2:	0c030063          	beqz	t1,3672 <__adddf3+0x298>
    35b6:	008006b7          	lui	a3,0x800
    35ba:	7ff00793          	li	a5,2047
    35be:	00d86833          	or	a6,a6,a3
    35c2:	3af48a63          	beq	s1,a5,3976 <__adddf3+0x59c>
    35c6:	03800793          	li	a5,56
    35ca:	13c7cb63          	blt	a5,t3,3700 <__adddf3+0x326>
    35ce:	47fd                	li	a5,31
    35d0:	35c7df63          	bge	a5,t3,392e <__adddf3+0x554>
    35d4:	fe0e0913          	addi	s2,t3,-32
    35d8:	02000793          	li	a5,32
    35dc:	012856b3          	srl	a3,a6,s2
    35e0:	00fe0a63          	beq	t3,a5,35f4 <__adddf3+0x21a>
    35e4:	04000913          	li	s2,64
    35e8:	41c90933          	sub	s2,s2,t3
    35ec:	01281933          	sll	s2,a6,s2
    35f0:	012fefb3          	or	t6,t6,s2
    35f4:	01f03933          	snez	s2,t6
    35f8:	00d96933          	or	s2,s2,a3
    35fc:	a231                	j	3708 <__adddf3+0x32e>
    35fe:	01f867b3          	or	a5,a6,t6
    3602:	1c078a63          	beqz	a5,37d6 <__adddf3+0x3fc>
    3606:	fffe0793          	addi	a5,t3,-1
    360a:	38078c63          	beqz	a5,39a2 <__adddf3+0x5c8>
    360e:	7ff00693          	li	a3,2047
    3612:	1ade0963          	beq	t3,a3,37c4 <__adddf3+0x3ea>
    3616:	8e3e                	mv	t3,a5
    3618:	bd0d                	j	344a <__adddf3+0x70>
    361a:	409305b3          	sub	a1,t1,s1
    361e:	22049163          	bnez	s1,3840 <__adddf3+0x466>
    3622:	01e767b3          	or	a5,a4,t5
    3626:	32078763          	beqz	a5,3954 <__adddf3+0x57a>
    362a:	fff58793          	addi	a5,a1,-1
    362e:	44078163          	beqz	a5,3a70 <__adddf3+0x696>
    3632:	7ff00693          	li	a3,2047
    3636:	20d58c63          	beq	a1,a3,384e <__adddf3+0x474>
    363a:	85be                	mv	a1,a5
    363c:	03800793          	li	a5,56
    3640:	2ab7cc63          	blt	a5,a1,38f8 <__adddf3+0x51e>
    3644:	47fd                	li	a5,31
    3646:	3cb7cf63          	blt	a5,a1,3a24 <__adddf3+0x64a>
    364a:	02000793          	li	a5,32
    364e:	8f8d                	sub	a5,a5,a1
    3650:	00f71933          	sll	s2,a4,a5
    3654:	00bf56b3          	srl	a3,t5,a1
    3658:	00ff17b3          	sll	a5,t5,a5
    365c:	00d96933          	or	s2,s2,a3
    3660:	00f037b3          	snez	a5,a5
    3664:	00b75733          	srl	a4,a4,a1
    3668:	00f96933          	or	s2,s2,a5
    366c:	40e80833          	sub	a6,a6,a4
    3670:	ac41                	j	3900 <__adddf3+0x526>
    3672:	01f867b3          	or	a5,a6,t6
    3676:	34078063          	beqz	a5,39b6 <__adddf3+0x5dc>
    367a:	fffe0793          	addi	a5,t3,-1
    367e:	20078a63          	beqz	a5,3892 <__adddf3+0x4b8>
    3682:	7ff00693          	li	a3,2047
    3686:	2ede0863          	beq	t3,a3,3976 <__adddf3+0x59c>
    368a:	8e3e                	mv	t3,a5
    368c:	bf2d                	j	35c6 <__adddf3+0x1ec>
    368e:	140e1e63          	bnez	t3,37ea <__adddf3+0x410>
    3692:	00148693          	addi	a3,s1,1
    3696:	7fe6f793          	andi	a5,a3,2046
    369a:	34079163          	bnez	a5,39dc <__adddf3+0x602>
    369e:	01e767b3          	or	a5,a4,t5
    36a2:	2c049563          	bnez	s1,396c <__adddf3+0x592>
    36a6:	3e078063          	beqz	a5,3a86 <__adddf3+0x6ac>
    36aa:	01f867b3          	or	a5,a6,t6
    36ae:	30078e63          	beqz	a5,39ca <__adddf3+0x5f0>
    36b2:	01ff0933          	add	s2,t5,t6
    36b6:	010707b3          	add	a5,a4,a6
    36ba:	01e93f33          	sltu	t5,s2,t5
    36be:	01e78633          	add	a2,a5,t5
    36c2:	00861793          	slli	a5,a2,0x8
    36c6:	0007d763          	bgez	a5,36d4 <__adddf3+0x2fa>
    36ca:	ff8007b7          	lui	a5,0xff800
    36ce:	17fd                	addi	a5,a5,-1
    36d0:	8e7d                	and	a2,a2,a5
    36d2:	4485                	li	s1,1
    36d4:	00797793          	andi	a5,s2,7
    36d8:	e0079fe3          	bnez	a5,34f6 <__adddf3+0x11c>
    36dc:	01d61793          	slli	a5,a2,0x1d
    36e0:	00395893          	srli	a7,s2,0x3
    36e4:	00f8e8b3          	or	a7,a7,a5
    36e8:	00365793          	srli	a5,a2,0x3
    36ec:	7ff00713          	li	a4,2047
    36f0:	04e48d63          	beq	s1,a4,374a <__adddf3+0x370>
    36f4:	07b2                	slli	a5,a5,0xc
    36f6:	83b1                	srli	a5,a5,0xc
    36f8:	7ff4f513          	andi	a0,s1,2047
    36fc:	85ce                	mv	a1,s3
    36fe:	b581                	j	353e <__adddf3+0x164>
    3700:	01f86933          	or	s2,a6,t6
    3704:	01203933          	snez	s2,s2
    3708:	997a                	add	s2,s2,t5
    370a:	01e937b3          	sltu	a5,s2,t5
    370e:	00e78633          	add	a2,a5,a4
    3712:	00861793          	slli	a5,a2,0x8
    3716:	fa07dfe3          	bgez	a5,36d4 <__adddf3+0x2fa>
    371a:	0485                	addi	s1,s1,1
    371c:	7ff00793          	li	a5,2047
    3720:	18f49663          	bne	s1,a5,38ac <__adddf3+0x4d2>
    3724:	85ce                	mv	a1,s3
    3726:	7ff00513          	li	a0,2047
    372a:	4781                	li	a5,0
    372c:	4881                	li	a7,0
    372e:	bd01                	j	353e <__adddf3+0x164>
    3730:	ebc1                	bnez	a5,37c0 <__adddf3+0x3e6>
    3732:	3a088463          	beqz	a7,3ada <__adddf3+0x700>
    3736:	00361693          	slli	a3,a2,0x3
    373a:	01d81793          	slli	a5,a6,0x1d
    373e:	828d                	srli	a3,a3,0x3
    3740:	00d7e8b3          	or	a7,a5,a3
    3744:	89f6                	mv	s3,t4
    3746:	00385793          	srli	a5,a6,0x3
    374a:	00f8e7b3          	or	a5,a7,a5
    374e:	dbf9                	beqz	a5,3724 <__adddf3+0x34a>
    3750:	4581                	li	a1,0
    3752:	7ff00513          	li	a0,2047
    3756:	000807b7          	lui	a5,0x80
    375a:	4881                	li	a7,0
    375c:	b3cd                	j	353e <__adddf3+0x164>
    375e:	ff800637          	lui	a2,0xff800
    3762:	167d                	addi	a2,a2,-1
    3764:	8e7d                	and	a2,a2,a5
    3766:	00797793          	andi	a5,s2,7
    376a:	8c99                	sub	s1,s1,a4
    376c:	d80795e3          	bnez	a5,34f6 <__adddf3+0x11c>
    3770:	b7b5                	j	36dc <__adddf3+0x302>
    3772:	854a                	mv	a0,s2
    3774:	6c4020ef          	jal	ra,5e38 <__clzsi2>
    3778:	01850713          	addi	a4,a0,24
    377c:	47fd                	li	a5,31
    377e:	d2e7d5e3          	bge	a5,a4,34a8 <__adddf3+0xce>
    3782:	ff850613          	addi	a2,a0,-8
    3786:	00c917b3          	sll	a5,s2,a2
    378a:	4901                	li	s2,0
    378c:	bb05                	j	34bc <__adddf3+0xe2>
    378e:	01f86933          	or	s2,a6,t6
    3792:	01203933          	snez	s2,s2
    3796:	b1dd                	j	347c <__adddf3+0xa2>
    3798:	41ff0933          	sub	s2,t5,t6
    379c:	41070633          	sub	a2,a4,a6
    37a0:	012f3433          	sltu	s0,t5,s2
    37a4:	40860433          	sub	s0,a2,s0
    37a8:	00841793          	slli	a5,s0,0x8
    37ac:	2407cd63          	bltz	a5,3a06 <__adddf3+0x62c>
    37b0:	008968b3          	or	a7,s2,s0
    37b4:	ce0893e3          	bnez	a7,349a <__adddf3+0xc0>
    37b8:	4781                	li	a5,0
    37ba:	4981                	li	s3,0
    37bc:	4481                	li	s1,0
    37be:	bf1d                	j	36f4 <__adddf3+0x31a>
    37c0:	f80898e3          	bnez	a7,3750 <__adddf3+0x376>
    37c4:	050e                	slli	a0,a0,0x3
    37c6:	01d71793          	slli	a5,a4,0x1d
    37ca:	810d                	srli	a0,a0,0x3
    37cc:	00a7e8b3          	or	a7,a5,a0
    37d0:	00375793          	srli	a5,a4,0x3
    37d4:	bf9d                	j	374a <__adddf3+0x370>
    37d6:	050e                	slli	a0,a0,0x3
    37d8:	01d71793          	slli	a5,a4,0x1d
    37dc:	810d                	srli	a0,a0,0x3
    37de:	00a7e8b3          	or	a7,a5,a0
    37e2:	84f2                	mv	s1,t3
    37e4:	00375793          	srli	a5,a4,0x3
    37e8:	b711                	j	36ec <__adddf3+0x312>
    37ea:	40930533          	sub	a0,t1,s1
    37ee:	12048263          	beqz	s1,3912 <__adddf3+0x538>
    37f2:	008006b7          	lui	a3,0x800
    37f6:	7ff00793          	li	a5,2047
    37fa:	8f55                	or	a4,a4,a3
    37fc:	2ef30d63          	beq	t1,a5,3af6 <__adddf3+0x71c>
    3800:	03800793          	li	a5,56
    3804:	20a7cb63          	blt	a5,a0,3a1a <__adddf3+0x640>
    3808:	47fd                	li	a5,31
    380a:	2aa7c363          	blt	a5,a0,3ab0 <__adddf3+0x6d6>
    380e:	02000793          	li	a5,32
    3812:	8f89                	sub	a5,a5,a0
    3814:	00f71933          	sll	s2,a4,a5
    3818:	00af56b3          	srl	a3,t5,a0
    381c:	00ff17b3          	sll	a5,t5,a5
    3820:	00d96933          	or	s2,s2,a3
    3824:	00f037b3          	snez	a5,a5
    3828:	00a75733          	srl	a4,a4,a0
    382c:	00f96933          	or	s2,s2,a5
    3830:	983a                	add	a6,a6,a4
    3832:	997e                	add	s2,s2,t6
    3834:	01f937b3          	sltu	a5,s2,t6
    3838:	01078633          	add	a2,a5,a6
    383c:	849a                	mv	s1,t1
    383e:	bdd1                	j	3712 <__adddf3+0x338>
    3840:	008006b7          	lui	a3,0x800
    3844:	7ff00793          	li	a5,2047
    3848:	8f55                	or	a4,a4,a3
    384a:	def319e3          	bne	t1,a5,363c <__adddf3+0x262>
    384e:	00361793          	slli	a5,a2,0x3
    3852:	838d                	srli	a5,a5,0x3
    3854:	01d81893          	slli	a7,a6,0x1d
    3858:	0117e8b3          	or	a7,a5,a7
    385c:	89f6                	mv	s3,t4
    385e:	00385793          	srli	a5,a6,0x3
    3862:	b5e5                	j	374a <__adddf3+0x370>
    3864:	fe150713          	addi	a4,a0,-31
    3868:	02000693          	li	a3,32
    386c:	00e7d733          	srl	a4,a5,a4
    3870:	00d60a63          	beq	a2,a3,3884 <__adddf3+0x4aa>
    3874:	04000693          	li	a3,64
    3878:	40c68633          	sub	a2,a3,a2
    387c:	00c79633          	sll	a2,a5,a2
    3880:	00c96933          	or	s2,s2,a2
    3884:	01203933          	snez	s2,s2
    3888:	00e96933          	or	s2,s2,a4
    388c:	4601                	li	a2,0
    388e:	4481                	li	s1,0
    3890:	b591                	j	36d4 <__adddf3+0x2fa>
    3892:	01ff0933          	add	s2,t5,t6
    3896:	010707b3          	add	a5,a4,a6
    389a:	01e93633          	sltu	a2,s2,t5
    389e:	963e                	add	a2,a2,a5
    38a0:	00861793          	slli	a5,a2,0x8
    38a4:	4485                	li	s1,1
    38a6:	e207d7e3          	bgez	a5,36d4 <__adddf3+0x2fa>
    38aa:	4489                	li	s1,2
    38ac:	ff8007b7          	lui	a5,0xff800
    38b0:	17fd                	addi	a5,a5,-1
    38b2:	8ff1                	and	a5,a5,a2
    38b4:	00195713          	srli	a4,s2,0x1
    38b8:	00197913          	andi	s2,s2,1
    38bc:	01276933          	or	s2,a4,s2
    38c0:	01f79893          	slli	a7,a5,0x1f
    38c4:	0128e933          	or	s2,a7,s2
    38c8:	0017d613          	srli	a2,a5,0x1
    38cc:	b115                	j	34f0 <__adddf3+0x116>
    38ce:	fe0e0913          	addi	s2,t3,-32
    38d2:	02000793          	li	a5,32
    38d6:	012856b3          	srl	a3,a6,s2
    38da:	00fe0a63          	beq	t3,a5,38ee <__adddf3+0x514>
    38de:	04000913          	li	s2,64
    38e2:	41c90933          	sub	s2,s2,t3
    38e6:	01281933          	sll	s2,a6,s2
    38ea:	012fefb3          	or	t6,t6,s2
    38ee:	01f03933          	snez	s2,t6
    38f2:	00d96933          	or	s2,s2,a3
    38f6:	b659                	j	347c <__adddf3+0xa2>
    38f8:	01e76933          	or	s2,a4,t5
    38fc:	01203933          	snez	s2,s2
    3900:	412f8933          	sub	s2,t6,s2
    3904:	012fb7b3          	sltu	a5,t6,s2
    3908:	40f80633          	sub	a2,a6,a5
    390c:	849a                	mv	s1,t1
    390e:	89f6                	mv	s3,t4
    3910:	bea5                	j	3488 <__adddf3+0xae>
    3912:	01e767b3          	or	a5,a4,t5
    3916:	18078263          	beqz	a5,3a9a <__adddf3+0x6c0>
    391a:	fff50793          	addi	a5,a0,-1
    391e:	1c078463          	beqz	a5,3ae6 <__adddf3+0x70c>
    3922:	7ff00693          	li	a3,2047
    3926:	12d50463          	beq	a0,a3,3a4e <__adddf3+0x674>
    392a:	853e                	mv	a0,a5
    392c:	bdd1                	j	3800 <__adddf3+0x426>
    392e:	02000793          	li	a5,32
    3932:	41c787b3          	sub	a5,a5,t3
    3936:	00f816b3          	sll	a3,a6,a5
    393a:	00ff9933          	sll	s2,t6,a5
    393e:	01cfd633          	srl	a2,t6,t3
    3942:	8ed1                	or	a3,a3,a2
    3944:	01203933          	snez	s2,s2
    3948:	01c857b3          	srl	a5,a6,t3
    394c:	0126e933          	or	s2,a3,s2
    3950:	973e                	add	a4,a4,a5
    3952:	bb5d                	j	3708 <__adddf3+0x32e>
    3954:	00361793          	slli	a5,a2,0x3
    3958:	838d                	srli	a5,a5,0x3
    395a:	01d81893          	slli	a7,a6,0x1d
    395e:	0117e8b3          	or	a7,a5,a7
    3962:	84ae                	mv	s1,a1
    3964:	00385793          	srli	a5,a6,0x3
    3968:	89f6                	mv	s3,t4
    396a:	b349                	j	36ec <__adddf3+0x312>
    396c:	c3ed                	beqz	a5,3a4e <__adddf3+0x674>
    396e:	01f86933          	or	s2,a6,t6
    3972:	dc091fe3          	bnez	s2,3750 <__adddf3+0x376>
    3976:	050e                	slli	a0,a0,0x3
    3978:	01d71793          	slli	a5,a4,0x1d
    397c:	810d                	srli	a0,a0,0x3
    397e:	00f568b3          	or	a7,a0,a5
    3982:	00375793          	srli	a5,a4,0x3
    3986:	b3d1                	j	374a <__adddf3+0x370>
    3988:	0e088163          	beqz	a7,3a6a <__adddf3+0x690>
    398c:	00361693          	slli	a3,a2,0x3
    3990:	01d81793          	slli	a5,a6,0x1d
    3994:	828d                	srli	a3,a3,0x3
    3996:	00d7e8b3          	or	a7,a5,a3
    399a:	89f6                	mv	s3,t4
    399c:	00385793          	srli	a5,a6,0x3
    39a0:	bb91                	j	36f4 <__adddf3+0x31a>
    39a2:	41ff0933          	sub	s2,t5,t6
    39a6:	410707b3          	sub	a5,a4,a6
    39aa:	012f3f33          	sltu	t5,t5,s2
    39ae:	41e78633          	sub	a2,a5,t5
    39b2:	4485                	li	s1,1
    39b4:	bcd1                	j	3488 <__adddf3+0xae>
    39b6:	050e                	slli	a0,a0,0x3
    39b8:	01d71793          	slli	a5,a4,0x1d
    39bc:	810d                	srli	a0,a0,0x3
    39be:	00f568b3          	or	a7,a0,a5
    39c2:	84f2                	mv	s1,t3
    39c4:	00375793          	srli	a5,a4,0x3
    39c8:	b315                	j	36ec <__adddf3+0x312>
    39ca:	050e                	slli	a0,a0,0x3
    39cc:	01d71793          	slli	a5,a4,0x1d
    39d0:	810d                	srli	a0,a0,0x3
    39d2:	00a7e8b3          	or	a7,a5,a0
    39d6:	00375793          	srli	a5,a4,0x3
    39da:	bb29                	j	36f4 <__adddf3+0x31a>
    39dc:	7ff00793          	li	a5,2047
    39e0:	d4f682e3          	beq	a3,a5,3724 <__adddf3+0x34a>
    39e4:	01ff0933          	add	s2,t5,t6
    39e8:	01e93633          	sltu	a2,s2,t5
    39ec:	010707b3          	add	a5,a4,a6
    39f0:	97b2                	add	a5,a5,a2
    39f2:	01f79893          	slli	a7,a5,0x1f
    39f6:	00195913          	srli	s2,s2,0x1
    39fa:	0128e933          	or	s2,a7,s2
    39fe:	0017d613          	srli	a2,a5,0x1
    3a02:	84b6                	mv	s1,a3
    3a04:	b9c1                	j	36d4 <__adddf3+0x2fa>
    3a06:	41ef8933          	sub	s2,t6,t5
    3a0a:	40e80733          	sub	a4,a6,a4
    3a0e:	012fb633          	sltu	a2,t6,s2
    3a12:	40c70433          	sub	s0,a4,a2
    3a16:	89f6                	mv	s3,t4
    3a18:	b449                	j	349a <__adddf3+0xc0>
    3a1a:	01e76933          	or	s2,a4,t5
    3a1e:	01203933          	snez	s2,s2
    3a22:	bd01                	j	3832 <__adddf3+0x458>
    3a24:	fe058793          	addi	a5,a1,-32
    3a28:	02000693          	li	a3,32
    3a2c:	00f757b3          	srl	a5,a4,a5
    3a30:	00d58a63          	beq	a1,a3,3a44 <__adddf3+0x66a>
    3a34:	04000693          	li	a3,64
    3a38:	40b685b3          	sub	a1,a3,a1
    3a3c:	00b71733          	sll	a4,a4,a1
    3a40:	00ef6f33          	or	t5,t5,a4
    3a44:	01e03933          	snez	s2,t5
    3a48:	00f96933          	or	s2,s2,a5
    3a4c:	bd55                	j	3900 <__adddf3+0x526>
    3a4e:	00361793          	slli	a5,a2,0x3
    3a52:	838d                	srli	a5,a5,0x3
    3a54:	01d81893          	slli	a7,a6,0x1d
    3a58:	0117e8b3          	or	a7,a5,a7
    3a5c:	00385793          	srli	a5,a6,0x3
    3a60:	b1ed                	j	374a <__adddf3+0x370>
    3a62:	00c968b3          	or	a7,s2,a2
    3a66:	c60897e3          	bnez	a7,36d4 <__adddf3+0x2fa>
    3a6a:	4781                	li	a5,0
    3a6c:	4981                	li	s3,0
    3a6e:	b159                	j	36f4 <__adddf3+0x31a>
    3a70:	41ef8933          	sub	s2,t6,t5
    3a74:	40e807b3          	sub	a5,a6,a4
    3a78:	012fb633          	sltu	a2,t6,s2
    3a7c:	40c78633          	sub	a2,a5,a2
    3a80:	89f6                	mv	s3,t4
    3a82:	4485                	li	s1,1
    3a84:	b411                	j	3488 <__adddf3+0xae>
    3a86:	00361693          	slli	a3,a2,0x3
    3a8a:	01d81793          	slli	a5,a6,0x1d
    3a8e:	828d                	srli	a3,a3,0x3
    3a90:	00d7e8b3          	or	a7,a5,a3
    3a94:	00385793          	srli	a5,a6,0x3
    3a98:	b9b1                	j	36f4 <__adddf3+0x31a>
    3a9a:	00361693          	slli	a3,a2,0x3
    3a9e:	01d81793          	slli	a5,a6,0x1d
    3aa2:	828d                	srli	a3,a3,0x3
    3aa4:	00d7e8b3          	or	a7,a5,a3
    3aa8:	84aa                	mv	s1,a0
    3aaa:	00385793          	srli	a5,a6,0x3
    3aae:	b93d                	j	36ec <__adddf3+0x312>
    3ab0:	fe050793          	addi	a5,a0,-32
    3ab4:	02000693          	li	a3,32
    3ab8:	00f757b3          	srl	a5,a4,a5
    3abc:	00d50a63          	beq	a0,a3,3ad0 <__adddf3+0x6f6>
    3ac0:	04000693          	li	a3,64
    3ac4:	40a68533          	sub	a0,a3,a0
    3ac8:	00a71733          	sll	a4,a4,a0
    3acc:	00ef6f33          	or	t5,t5,a4
    3ad0:	01e03933          	snez	s2,t5
    3ad4:	00f96933          	or	s2,s2,a5
    3ad8:	bba9                	j	3832 <__adddf3+0x458>
    3ada:	4581                	li	a1,0
    3adc:	7ff00513          	li	a0,2047
    3ae0:	000807b7          	lui	a5,0x80
    3ae4:	bca9                	j	353e <__adddf3+0x164>
    3ae6:	01ff0933          	add	s2,t5,t6
    3aea:	010707b3          	add	a5,a4,a6
    3aee:	01f93633          	sltu	a2,s2,t6
    3af2:	963e                	add	a2,a2,a5
    3af4:	b375                	j	38a0 <__adddf3+0x4c6>
    3af6:	00361693          	slli	a3,a2,0x3
    3afa:	01d81793          	slli	a5,a6,0x1d
    3afe:	828d                	srli	a3,a3,0x3
    3b00:	00d7e8b3          	or	a7,a5,a3
    3b04:	00385793          	srli	a5,a6,0x3
    3b08:	b189                	j	374a <__adddf3+0x370>

00003b0a <__divdf3>:
    3b0a:	7139                	addi	sp,sp,-64
    3b0c:	0145d793          	srli	a5,a1,0x14
    3b10:	dc22                	sw	s0,56(sp)
    3b12:	d84a                	sw	s2,48(sp)
    3b14:	d256                	sw	s5,36(sp)
    3b16:	892a                	mv	s2,a0
    3b18:	00c59413          	slli	s0,a1,0xc
    3b1c:	de06                	sw	ra,60(sp)
    3b1e:	da26                	sw	s1,52(sp)
    3b20:	d64e                	sw	s3,44(sp)
    3b22:	d452                	sw	s4,40(sp)
    3b24:	d05a                	sw	s6,32(sp)
    3b26:	ce5e                	sw	s7,28(sp)
    3b28:	7ff7f513          	andi	a0,a5,2047
    3b2c:	8031                	srli	s0,s0,0xc
    3b2e:	01f5da93          	srli	s5,a1,0x1f
    3b32:	10050b63          	beqz	a0,3c48 <__divdf3+0x13e>
    3b36:	7ff00793          	li	a5,2047
    3b3a:	14f50b63          	beq	a0,a5,3c90 <__divdf3+0x186>
    3b3e:	01d95a13          	srli	s4,s2,0x1d
    3b42:	040e                	slli	s0,s0,0x3
    3b44:	008a6433          	or	s0,s4,s0
    3b48:	00800a37          	lui	s4,0x800
    3b4c:	01446a33          	or	s4,s0,s4
    3b50:	00391b13          	slli	s6,s2,0x3
    3b54:	c0150493          	addi	s1,a0,-1023
    3b58:	4401                	li	s0,0
    3b5a:	4b81                	li	s7,0
    3b5c:	0146d813          	srli	a6,a3,0x14
    3b60:	00c69913          	slli	s2,a3,0xc
    3b64:	7ff87813          	andi	a6,a6,2047
    3b68:	88b2                	mv	a7,a2
    3b6a:	00c95913          	srli	s2,s2,0xc
    3b6e:	01f6d993          	srli	s3,a3,0x1f
    3b72:	08080e63          	beqz	a6,3c0e <__divdf3+0x104>
    3b76:	7ff00793          	li	a5,2047
    3b7a:	04f80063          	beq	a6,a5,3bba <__divdf3+0xb0>
    3b7e:	01d65713          	srli	a4,a2,0x1d
    3b82:	090e                	slli	s2,s2,0x3
    3b84:	01276933          	or	s2,a4,s2
    3b88:	c0180813          	addi	a6,a6,-1023 # ffc01 <_data_lma+0xf732d>
    3b8c:	008007b7          	lui	a5,0x800
    3b90:	00f96733          	or	a4,s2,a5
    3b94:	00361893          	slli	a7,a2,0x3
    3b98:	410484b3          	sub	s1,s1,a6
    3b9c:	4581                	li	a1,0
    3b9e:	47bd                	li	a5,15
    3ba0:	013ac833          	xor	a6,s5,s3
    3ba4:	1a87e463          	bltu	a5,s0,3d4c <__divdf3+0x242>
    3ba8:	00005797          	auipc	a5,0x5
    3bac:	a5078793          	addi	a5,a5,-1456 # 85f8 <atanlo+0x28>
    3bb0:	040a                	slli	s0,s0,0x2
    3bb2:	943e                	add	s0,s0,a5
    3bb4:	4010                	lw	a2,0(s0)
    3bb6:	963e                	add	a2,a2,a5
    3bb8:	8602                	jr	a2
    3bba:	00c96733          	or	a4,s2,a2
    3bbe:	80148493          	addi	s1,s1,-2047
    3bc2:	10071263          	bnez	a4,3cc6 <__divdf3+0x1bc>
    3bc6:	00246413          	ori	s0,s0,2
    3bca:	4881                	li	a7,0
    3bcc:	4589                	li	a1,2
    3bce:	bfc1                	j	3b9e <__divdf3+0x94>
    3bd0:	7ff00613          	li	a2,2047
    3bd4:	4781                	li	a5,0
    3bd6:	4701                	li	a4,0
    3bd8:	07b2                	slli	a5,a5,0xc
    3bda:	50f2                	lw	ra,60(sp)
    3bdc:	5462                	lw	s0,56(sp)
    3bde:	0652                	slli	a2,a2,0x14
    3be0:	83b1                	srli	a5,a5,0xc
    3be2:	087e                	slli	a6,a6,0x1f
    3be4:	8fd1                	or	a5,a5,a2
    3be6:	0107e7b3          	or	a5,a5,a6
    3bea:	54d2                	lw	s1,52(sp)
    3bec:	5942                	lw	s2,48(sp)
    3bee:	59b2                	lw	s3,44(sp)
    3bf0:	5a22                	lw	s4,40(sp)
    3bf2:	5a92                	lw	s5,36(sp)
    3bf4:	5b02                	lw	s6,32(sp)
    3bf6:	4bf2                	lw	s7,28(sp)
    3bf8:	853a                	mv	a0,a4
    3bfa:	85be                	mv	a1,a5
    3bfc:	6121                	addi	sp,sp,64
    3bfe:	8082                	ret
    3c00:	4801                	li	a6,0
    3c02:	7ff00613          	li	a2,2047
    3c06:	000807b7          	lui	a5,0x80
    3c0a:	4701                	li	a4,0
    3c0c:	b7f1                	j	3bd8 <__divdf3+0xce>
    3c0e:	00c96733          	or	a4,s2,a2
    3c12:	c74d                	beqz	a4,3cbc <__divdf3+0x1b2>
    3c14:	30090863          	beqz	s2,3f24 <__divdf3+0x41a>
    3c18:	854a                	mv	a0,s2
    3c1a:	c432                	sw	a2,8(sp)
    3c1c:	21c020ef          	jal	ra,5e38 <__clzsi2>
    3c20:	4622                	lw	a2,8(sp)
    3c22:	ff550713          	addi	a4,a0,-11
    3c26:	47f5                	li	a5,29
    3c28:	ff850693          	addi	a3,a0,-8
    3c2c:	8f99                	sub	a5,a5,a4
    3c2e:	00d91933          	sll	s2,s2,a3
    3c32:	00f657b3          	srl	a5,a2,a5
    3c36:	0127e733          	or	a4,a5,s2
    3c3a:	00d618b3          	sll	a7,a2,a3
    3c3e:	9526                	add	a0,a0,s1
    3c40:	3f350493          	addi	s1,a0,1011
    3c44:	4581                	li	a1,0
    3c46:	bfa1                	j	3b9e <__divdf3+0x94>
    3c48:	01246a33          	or	s4,s0,s2
    3c4c:	060a0363          	beqz	s4,3cb2 <__divdf3+0x1a8>
    3c50:	c636                	sw	a3,12(sp)
    3c52:	c432                	sw	a2,8(sp)
    3c54:	2a040663          	beqz	s0,3f00 <__divdf3+0x3f6>
    3c58:	8522                	mv	a0,s0
    3c5a:	1de020ef          	jal	ra,5e38 <__clzsi2>
    3c5e:	4622                	lw	a2,8(sp)
    3c60:	46b2                	lw	a3,12(sp)
    3c62:	84aa                	mv	s1,a0
    3c64:	ff550713          	addi	a4,a0,-11
    3c68:	4a75                	li	s4,29
    3c6a:	ff848b13          	addi	s6,s1,-8
    3c6e:	40ea0a33          	sub	s4,s4,a4
    3c72:	01641433          	sll	s0,s0,s6
    3c76:	01495a33          	srl	s4,s2,s4
    3c7a:	008a6a33          	or	s4,s4,s0
    3c7e:	01691b33          	sll	s6,s2,s6
    3c82:	c0d00513          	li	a0,-1011
    3c86:	409504b3          	sub	s1,a0,s1
    3c8a:	4401                	li	s0,0
    3c8c:	4b81                	li	s7,0
    3c8e:	b5f9                	j	3b5c <__divdf3+0x52>
    3c90:	01246a33          	or	s4,s0,s2
    3c94:	000a1863          	bnez	s4,3ca4 <__divdf3+0x19a>
    3c98:	4421                	li	s0,8
    3c9a:	4b01                	li	s6,0
    3c9c:	7ff00493          	li	s1,2047
    3ca0:	4b89                	li	s7,2
    3ca2:	bd6d                	j	3b5c <__divdf3+0x52>
    3ca4:	8a22                	mv	s4,s0
    3ca6:	8b4a                	mv	s6,s2
    3ca8:	4431                	li	s0,12
    3caa:	7ff00493          	li	s1,2047
    3cae:	4b8d                	li	s7,3
    3cb0:	b575                	j	3b5c <__divdf3+0x52>
    3cb2:	4411                	li	s0,4
    3cb4:	4b01                	li	s6,0
    3cb6:	4481                	li	s1,0
    3cb8:	4b85                	li	s7,1
    3cba:	b54d                	j	3b5c <__divdf3+0x52>
    3cbc:	00146413          	ori	s0,s0,1
    3cc0:	4881                	li	a7,0
    3cc2:	4585                	li	a1,1
    3cc4:	bde9                	j	3b9e <__divdf3+0x94>
    3cc6:	00346413          	ori	s0,s0,3
    3cca:	874a                	mv	a4,s2
    3ccc:	458d                	li	a1,3
    3cce:	bdc1                	j	3b9e <__divdf3+0x94>
    3cd0:	2e050a63          	beqz	a0,3fc4 <__divdf3+0x4ba>
    3cd4:	4785                	li	a5,1
    3cd6:	8f89                	sub	a5,a5,a0
    3cd8:	03800693          	li	a3,56
    3cdc:	32f6dd63          	bge	a3,a5,4016 <__divdf3+0x50c>
    3ce0:	4601                	li	a2,0
    3ce2:	4781                	li	a5,0
    3ce4:	4701                	li	a4,0
    3ce6:	bdcd                	j	3bd8 <__divdf3+0xce>
    3ce8:	86ce                	mv	a3,s3
    3cea:	4789                	li	a5,2
    3cec:	3af58d63          	beq	a1,a5,40a6 <__divdf3+0x59c>
    3cf0:	478d                	li	a5,3
    3cf2:	f0f587e3          	beq	a1,a5,3c00 <__divdf3+0xf6>
    3cf6:	4785                	li	a5,1
    3cf8:	8836                	mv	a6,a3
    3cfa:	fef583e3          	beq	a1,a5,3ce0 <__divdf3+0x1d6>
    3cfe:	3ff48513          	addi	a0,s1,1023
    3d02:	fca057e3          	blez	a0,3cd0 <__divdf3+0x1c6>
    3d06:	0078f793          	andi	a5,a7,7
    3d0a:	28079663          	bnez	a5,3f96 <__divdf3+0x48c>
    3d0e:	0038d693          	srli	a3,a7,0x3
    3d12:	00771793          	slli	a5,a4,0x7
    3d16:	0007d863          	bgez	a5,3d26 <__divdf3+0x21c>
    3d1a:	ff0007b7          	lui	a5,0xff000
    3d1e:	17fd                	addi	a5,a5,-1
    3d20:	8f7d                	and	a4,a4,a5
    3d22:	40048513          	addi	a0,s1,1024
    3d26:	7fe00793          	li	a5,2046
    3d2a:	eaa7c3e3          	blt	a5,a0,3bd0 <__divdf3+0xc6>
    3d2e:	01d71613          	slli	a2,a4,0x1d
    3d32:	00971793          	slli	a5,a4,0x9
    3d36:	83b1                	srli	a5,a5,0xc
    3d38:	00d66733          	or	a4,a2,a3
    3d3c:	7ff57613          	andi	a2,a0,2047
    3d40:	bd61                	j	3bd8 <__divdf3+0xce>
    3d42:	86d6                	mv	a3,s5
    3d44:	8752                	mv	a4,s4
    3d46:	88da                	mv	a7,s6
    3d48:	85de                	mv	a1,s7
    3d4a:	b745                	j	3cea <__divdf3+0x1e0>
    3d4c:	23476163          	bltu	a4,s4,3f6e <__divdf3+0x464>
    3d50:	20ea0d63          	beq	s4,a4,3f6a <__divdf3+0x460>
    3d54:	86da                	mv	a3,s6
    3d56:	14fd                	addi	s1,s1,-1
    3d58:	8452                	mv	s0,s4
    3d5a:	4b01                	li	s6,0
    3d5c:	00871793          	slli	a5,a4,0x8
    3d60:	0188d313          	srli	t1,a7,0x18
    3d64:	00f36333          	or	t1,t1,a5
    3d68:	01035e93          	srli	t4,t1,0x10
    3d6c:	03d457b3          	divu	a5,s0,t4
    3d70:	01031f13          	slli	t5,t1,0x10
    3d74:	010f5f13          	srli	t5,t5,0x10
    3d78:	0106d593          	srli	a1,a3,0x10
    3d7c:	00889e13          	slli	t3,a7,0x8
    3d80:	03d47433          	remu	s0,s0,t4
    3d84:	02ff0733          	mul	a4,t5,a5
    3d88:	0442                	slli	s0,s0,0x10
    3d8a:	8dc1                	or	a1,a1,s0
    3d8c:	00e5fb63          	bgeu	a1,a4,3da2 <__divdf3+0x298>
    3d90:	959a                	add	a1,a1,t1
    3d92:	fff78613          	addi	a2,a5,-1 # feffffff <_eusrstack+0xdeff7fff>
    3d96:	2665ee63          	bltu	a1,t1,4012 <__divdf3+0x508>
    3d9a:	26e5fc63          	bgeu	a1,a4,4012 <__divdf3+0x508>
    3d9e:	17f9                	addi	a5,a5,-2
    3da0:	959a                	add	a1,a1,t1
    3da2:	8d99                	sub	a1,a1,a4
    3da4:	03d5d733          	divu	a4,a1,t4
    3da8:	06c2                	slli	a3,a3,0x10
    3daa:	82c1                	srli	a3,a3,0x10
    3dac:	03d5f5b3          	remu	a1,a1,t4
    3db0:	02ef0633          	mul	a2,t5,a4
    3db4:	05c2                	slli	a1,a1,0x10
    3db6:	8dd5                	or	a1,a1,a3
    3db8:	00c5fb63          	bgeu	a1,a2,3dce <__divdf3+0x2c4>
    3dbc:	959a                	add	a1,a1,t1
    3dbe:	fff70693          	addi	a3,a4,-1 # 7fffff <_data_lma+0x7f772b>
    3dc2:	2465e663          	bltu	a1,t1,400e <__divdf3+0x504>
    3dc6:	24c5f463          	bgeu	a1,a2,400e <__divdf3+0x504>
    3dca:	1779                	addi	a4,a4,-2
    3dcc:	959a                	add	a1,a1,t1
    3dce:	07c2                	slli	a5,a5,0x10
    3dd0:	6441                	lui	s0,0x10
    3dd2:	8f5d                	or	a4,a4,a5
    3dd4:	fff40793          	addi	a5,s0,-1 # ffff <_data_lma+0x772b>
    3dd8:	00f77533          	and	a0,a4,a5
    3ddc:	01075893          	srli	a7,a4,0x10
    3de0:	010e5f93          	srli	t6,t3,0x10
    3de4:	00fe77b3          	and	a5,t3,a5
    3de8:	02f502b3          	mul	t0,a0,a5
    3dec:	40c586b3          	sub	a3,a1,a2
    3df0:	02f883b3          	mul	t2,a7,a5
    3df4:	0102d593          	srli	a1,t0,0x10
    3df8:	02af8633          	mul	a2,t6,a0
    3dfc:	961e                	add	a2,a2,t2
    3dfe:	962e                	add	a2,a2,a1
    3e00:	03f88533          	mul	a0,a7,t6
    3e04:	00767363          	bgeu	a2,t2,3e0a <__divdf3+0x300>
    3e08:	9522                	add	a0,a0,s0
    3e0a:	68c1                	lui	a7,0x10
    3e0c:	18fd                	addi	a7,a7,-1
    3e0e:	01065593          	srli	a1,a2,0x10
    3e12:	01167633          	and	a2,a2,a7
    3e16:	0642                	slli	a2,a2,0x10
    3e18:	0112f8b3          	and	a7,t0,a7
    3e1c:	95aa                	add	a1,a1,a0
    3e1e:	9646                	add	a2,a2,a7
    3e20:	12b6e663          	bltu	a3,a1,3f4c <__divdf3+0x442>
    3e24:	12b68263          	beq	a3,a1,3f48 <__divdf3+0x43e>
    3e28:	40cb0633          	sub	a2,s6,a2
    3e2c:	8e8d                	sub	a3,a3,a1
    3e2e:	00cb3b33          	sltu	s6,s6,a2
    3e32:	41668b33          	sub	s6,a3,s6
    3e36:	3ff48513          	addi	a0,s1,1023
    3e3a:	17630c63          	beq	t1,s6,3fb2 <__divdf3+0x4a8>
    3e3e:	03db58b3          	divu	a7,s6,t4
    3e42:	01065593          	srli	a1,a2,0x10
    3e46:	03db7b33          	remu	s6,s6,t4
    3e4a:	031f06b3          	mul	a3,t5,a7
    3e4e:	0b42                	slli	s6,s6,0x10
    3e50:	0165eb33          	or	s6,a1,s6
    3e54:	00db7b63          	bgeu	s6,a3,3e6a <__divdf3+0x360>
    3e58:	9b1a                	add	s6,s6,t1
    3e5a:	fff88593          	addi	a1,a7,-1 # ffff <_data_lma+0x772b>
    3e5e:	206b6d63          	bltu	s6,t1,4078 <__divdf3+0x56e>
    3e62:	20db7b63          	bgeu	s6,a3,4078 <__divdf3+0x56e>
    3e66:	18f9                	addi	a7,a7,-2
    3e68:	9b1a                	add	s6,s6,t1
    3e6a:	40db0b33          	sub	s6,s6,a3
    3e6e:	03db56b3          	divu	a3,s6,t4
    3e72:	0642                	slli	a2,a2,0x10
    3e74:	8241                	srli	a2,a2,0x10
    3e76:	03db7b33          	remu	s6,s6,t4
    3e7a:	02df0f33          	mul	t5,t5,a3
    3e7e:	0b42                	slli	s6,s6,0x10
    3e80:	01666633          	or	a2,a2,s6
    3e84:	01e67b63          	bgeu	a2,t5,3e9a <__divdf3+0x390>
    3e88:	961a                	add	a2,a2,t1
    3e8a:	fff68593          	addi	a1,a3,-1 # 7fffff <_data_lma+0x7f772b>
    3e8e:	1e666763          	bltu	a2,t1,407c <__divdf3+0x572>
    3e92:	1fe67563          	bgeu	a2,t5,407c <__divdf3+0x572>
    3e96:	16f9                	addi	a3,a3,-2
    3e98:	961a                	add	a2,a2,t1
    3e9a:	08c2                	slli	a7,a7,0x10
    3e9c:	00d8e8b3          	or	a7,a7,a3
    3ea0:	01089593          	slli	a1,a7,0x10
    3ea4:	0108d293          	srli	t0,a7,0x10
    3ea8:	81c1                	srli	a1,a1,0x10
    3eaa:	02f58eb3          	mul	t4,a1,a5
    3eae:	41e60633          	sub	a2,a2,t5
    3eb2:	02bf85b3          	mul	a1,t6,a1
    3eb6:	010ed693          	srli	a3,t4,0x10
    3eba:	02f287b3          	mul	a5,t0,a5
    3ebe:	95be                	add	a1,a1,a5
    3ec0:	96ae                	add	a3,a3,a1
    3ec2:	025f8fb3          	mul	t6,t6,t0
    3ec6:	00f6f463          	bgeu	a3,a5,3ece <__divdf3+0x3c4>
    3eca:	67c1                	lui	a5,0x10
    3ecc:	9fbe                	add	t6,t6,a5
    3ece:	65c1                	lui	a1,0x10
    3ed0:	15fd                	addi	a1,a1,-1
    3ed2:	0106d793          	srli	a5,a3,0x10
    3ed6:	8eed                	and	a3,a3,a1
    3ed8:	06c2                	slli	a3,a3,0x10
    3eda:	00befeb3          	and	t4,t4,a1
    3ede:	9fbe                	add	t6,t6,a5
    3ee0:	96f6                	add	a3,a3,t4
    3ee2:	09f67f63          	bgeu	a2,t6,3f80 <__divdf3+0x476>
    3ee6:	961a                	add	a2,a2,t1
    3ee8:	fff88793          	addi	a5,a7,-1
    3eec:	1a666963          	bltu	a2,t1,409e <__divdf3+0x594>
    3ef0:	19f66863          	bltu	a2,t6,4080 <__divdf3+0x576>
    3ef4:	1bf60f63          	beq	a2,t6,40b2 <__divdf3+0x5a8>
    3ef8:	88be                	mv	a7,a5
    3efa:	0018e893          	ori	a7,a7,1
    3efe:	b511                	j	3d02 <__divdf3+0x1f8>
    3f00:	854a                	mv	a0,s2
    3f02:	737010ef          	jal	ra,5e38 <__clzsi2>
    3f06:	01550713          	addi	a4,a0,21
    3f0a:	45f1                	li	a1,28
    3f0c:	02050493          	addi	s1,a0,32
    3f10:	4622                	lw	a2,8(sp)
    3f12:	46b2                	lw	a3,12(sp)
    3f14:	d4e5dae3          	bge	a1,a4,3c68 <__divdf3+0x15e>
    3f18:	ff850413          	addi	s0,a0,-8
    3f1c:	00891a33          	sll	s4,s2,s0
    3f20:	4b01                	li	s6,0
    3f22:	b385                	j	3c82 <__divdf3+0x178>
    3f24:	8532                	mv	a0,a2
    3f26:	c432                	sw	a2,8(sp)
    3f28:	711010ef          	jal	ra,5e38 <__clzsi2>
    3f2c:	01550713          	addi	a4,a0,21
    3f30:	46f1                	li	a3,28
    3f32:	87aa                	mv	a5,a0
    3f34:	4622                	lw	a2,8(sp)
    3f36:	02050513          	addi	a0,a0,32
    3f3a:	cee6d6e3          	bge	a3,a4,3c26 <__divdf3+0x11c>
    3f3e:	17e1                	addi	a5,a5,-8
    3f40:	00f61733          	sll	a4,a2,a5
    3f44:	4881                	li	a7,0
    3f46:	b9e5                	j	3c3e <__divdf3+0x134>
    3f48:	eecb70e3          	bgeu	s6,a2,3e28 <__divdf3+0x31e>
    3f4c:	9b72                	add	s6,s6,t3
    3f4e:	01cb3533          	sltu	a0,s6,t3
    3f52:	951a                	add	a0,a0,t1
    3f54:	96aa                	add	a3,a3,a0
    3f56:	fff70513          	addi	a0,a4,-1
    3f5a:	02d37863          	bgeu	t1,a3,3f8a <__divdf3+0x480>
    3f5e:	10b6e663          	bltu	a3,a1,406a <__divdf3+0x560>
    3f62:	10d58263          	beq	a1,a3,4066 <__divdf3+0x55c>
    3f66:	872a                	mv	a4,a0
    3f68:	b5c1                	j	3e28 <__divdf3+0x31e>
    3f6a:	df1b65e3          	bltu	s6,a7,3d54 <__divdf3+0x24a>
    3f6e:	001b5593          	srli	a1,s6,0x1
    3f72:	01fa1693          	slli	a3,s4,0x1f
    3f76:	001a5413          	srli	s0,s4,0x1
    3f7a:	8ecd                	or	a3,a3,a1
    3f7c:	0b7e                	slli	s6,s6,0x1f
    3f7e:	bbf9                	j	3d5c <__divdf3+0x252>
    3f80:	f7f61de3          	bne	a2,t6,3efa <__divdf3+0x3f0>
    3f84:	d6068fe3          	beqz	a3,3d02 <__divdf3+0x1f8>
    3f88:	bfb9                	j	3ee6 <__divdf3+0x3dc>
    3f8a:	fcd31ee3          	bne	t1,a3,3f66 <__divdf3+0x45c>
    3f8e:	fdcb78e3          	bgeu	s6,t3,3f5e <__divdf3+0x454>
    3f92:	872a                	mv	a4,a0
    3f94:	bd51                	j	3e28 <__divdf3+0x31e>
    3f96:	00f8f793          	andi	a5,a7,15
    3f9a:	4691                	li	a3,4
    3f9c:	d6d789e3          	beq	a5,a3,3d0e <__divdf3+0x204>
    3fa0:	ffc8b793          	sltiu	a5,a7,-4
    3fa4:	00488693          	addi	a3,a7,4
    3fa8:	0017c793          	xori	a5,a5,1
    3fac:	828d                	srli	a3,a3,0x3
    3fae:	973e                	add	a4,a4,a5
    3fb0:	b38d                	j	3d12 <__divdf3+0x208>
    3fb2:	4681                	li	a3,0
    3fb4:	4785                	li	a5,1
    3fb6:	fea04ce3          	bgtz	a0,3fae <__divdf3+0x4a4>
    3fba:	58fd                	li	a7,-1
    3fbc:	d0051ce3          	bnez	a0,3cd4 <__divdf3+0x1ca>
    3fc0:	c0100493          	li	s1,-1023
    3fc4:	4785                	li	a5,1
    3fc6:	41e48513          	addi	a0,s1,1054
    3fca:	00a716b3          	sll	a3,a4,a0
    3fce:	00f8d633          	srl	a2,a7,a5
    3fd2:	00a89533          	sll	a0,a7,a0
    3fd6:	8ed1                	or	a3,a3,a2
    3fd8:	00a03533          	snez	a0,a0
    3fdc:	8ec9                	or	a3,a3,a0
    3fde:	0076f613          	andi	a2,a3,7
    3fe2:	00f75733          	srl	a4,a4,a5
    3fe6:	ce01                	beqz	a2,3ffe <__divdf3+0x4f4>
    3fe8:	00f6f793          	andi	a5,a3,15
    3fec:	4611                	li	a2,4
    3fee:	00c78863          	beq	a5,a2,3ffe <__divdf3+0x4f4>
    3ff2:	00468793          	addi	a5,a3,4
    3ff6:	00d7b6b3          	sltu	a3,a5,a3
    3ffa:	9736                	add	a4,a4,a3
    3ffc:	86be                	mv	a3,a5
    3ffe:	00871793          	slli	a5,a4,0x8
    4002:	0407d863          	bgez	a5,4052 <__divdf3+0x548>
    4006:	4605                	li	a2,1
    4008:	4781                	li	a5,0
    400a:	4701                	li	a4,0
    400c:	b6f1                	j	3bd8 <__divdf3+0xce>
    400e:	8736                	mv	a4,a3
    4010:	bb7d                	j	3dce <__divdf3+0x2c4>
    4012:	87b2                	mv	a5,a2
    4014:	b379                	j	3da2 <__divdf3+0x298>
    4016:	46fd                	li	a3,31
    4018:	faf6d7e3          	bge	a3,a5,3fc6 <__divdf3+0x4bc>
    401c:	5605                	li	a2,-31
    401e:	8e09                	sub	a2,a2,a0
    4020:	02000693          	li	a3,32
    4024:	00c75633          	srl	a2,a4,a2
    4028:	00d78863          	beq	a5,a3,4038 <__divdf3+0x52e>
    402c:	43e48793          	addi	a5,s1,1086
    4030:	00f717b3          	sll	a5,a4,a5
    4034:	00f8e8b3          	or	a7,a7,a5
    4038:	011036b3          	snez	a3,a7
    403c:	8ed1                	or	a3,a3,a2
    403e:	0076f613          	andi	a2,a3,7
    4042:	4781                	li	a5,0
    4044:	ce01                	beqz	a2,405c <__divdf3+0x552>
    4046:	00f6f793          	andi	a5,a3,15
    404a:	4611                	li	a2,4
    404c:	4701                	li	a4,0
    404e:	fac792e3          	bne	a5,a2,3ff2 <__divdf3+0x4e8>
    4052:	00971793          	slli	a5,a4,0x9
    4056:	01d71613          	slli	a2,a4,0x1d
    405a:	83b1                	srli	a5,a5,0xc
    405c:	0036d713          	srli	a4,a3,0x3
    4060:	8f51                	or	a4,a4,a2
    4062:	4601                	li	a2,0
    4064:	be95                	j	3bd8 <__divdf3+0xce>
    4066:	f0cb70e3          	bgeu	s6,a2,3f66 <__divdf3+0x45c>
    406a:	9b72                	add	s6,s6,t3
    406c:	01cb3533          	sltu	a0,s6,t3
    4070:	951a                	add	a0,a0,t1
    4072:	1779                	addi	a4,a4,-2
    4074:	96aa                	add	a3,a3,a0
    4076:	bb4d                	j	3e28 <__divdf3+0x31e>
    4078:	88ae                	mv	a7,a1
    407a:	bbc5                	j	3e6a <__divdf3+0x360>
    407c:	86ae                	mv	a3,a1
    407e:	bd31                	j	3e9a <__divdf3+0x390>
    4080:	001e1793          	slli	a5,t3,0x1
    4084:	01c7be33          	sltu	t3,a5,t3
    4088:	9372                	add	t1,t1,t3
    408a:	961a                	add	a2,a2,t1
    408c:	18f9                	addi	a7,a7,-2
    408e:	8e3e                	mv	t3,a5
    4090:	e7f615e3          	bne	a2,t6,3efa <__divdf3+0x3f0>
    4094:	c6de07e3          	beq	t3,a3,3d02 <__divdf3+0x1f8>
    4098:	0018e893          	ori	a7,a7,1
    409c:	b19d                	j	3d02 <__divdf3+0x1f8>
    409e:	88be                	mv	a7,a5
    40a0:	fff60ae3          	beq	a2,t6,4094 <__divdf3+0x58a>
    40a4:	bd99                	j	3efa <__divdf3+0x3f0>
    40a6:	8836                	mv	a6,a3
    40a8:	7ff00613          	li	a2,2047
    40ac:	4781                	li	a5,0
    40ae:	4701                	li	a4,0
    40b0:	b625                	j	3bd8 <__divdf3+0xce>
    40b2:	fcde67e3          	bltu	t3,a3,4080 <__divdf3+0x576>
    40b6:	88be                	mv	a7,a5
    40b8:	fede10e3          	bne	t3,a3,4098 <__divdf3+0x58e>
    40bc:	b199                	j	3d02 <__divdf3+0x1f8>

000040be <__gedf2>:
    40be:	0145d713          	srli	a4,a1,0x14
    40c2:	001007b7          	lui	a5,0x100
    40c6:	17fd                	addi	a5,a5,-1
    40c8:	0146d813          	srli	a6,a3,0x14
    40cc:	7ff77713          	andi	a4,a4,2047
    40d0:	7ff00893          	li	a7,2047
    40d4:	00b7f333          	and	t1,a5,a1
    40d8:	8e2a                	mv	t3,a0
    40da:	8ff5                	and	a5,a5,a3
    40dc:	81fd                	srli	a1,a1,0x1f
    40de:	8eb2                	mv	t4,a2
    40e0:	7ff87813          	andi	a6,a6,2047
    40e4:	82fd                	srli	a3,a3,0x1f
    40e6:	03170863          	beq	a4,a7,4116 <__gedf2+0x58>
    40ea:	03180063          	beq	a6,a7,410a <__gedf2+0x4c>
    40ee:	eb0d                	bnez	a4,4120 <__gedf2+0x62>
    40f0:	00a368b3          	or	a7,t1,a0
    40f4:	00081463          	bnez	a6,40fc <__gedf2+0x3e>
    40f8:	8e5d                	or	a2,a2,a5
    40fa:	ca29                	beqz	a2,414c <__gedf2+0x8e>
    40fc:	04088563          	beqz	a7,4146 <__gedf2+0x88>
    4100:	02d58863          	beq	a1,a3,4130 <__gedf2+0x72>
    4104:	4505                	li	a0,1
    4106:	ed95                	bnez	a1,4142 <__gedf2+0x84>
    4108:	8082                	ret
    410a:	00c7e8b3          	or	a7,a5,a2
    410e:	fe0880e3          	beqz	a7,40ee <__gedf2+0x30>
    4112:	5579                	li	a0,-2
    4114:	8082                	ret
    4116:	00a36533          	or	a0,t1,a0
    411a:	fd65                	bnez	a0,4112 <__gedf2+0x54>
    411c:	02e80c63          	beq	a6,a4,4154 <__gedf2+0x96>
    4120:	00081463          	bnez	a6,4128 <__gedf2+0x6a>
    4124:	8e5d                	or	a2,a2,a5
    4126:	de79                	beqz	a2,4104 <__gedf2+0x46>
    4128:	fcd59ee3          	bne	a1,a3,4104 <__gedf2+0x46>
    412c:	fce84ce3          	blt	a6,a4,4104 <__gedf2+0x46>
    4130:	01074863          	blt	a4,a6,4140 <__gedf2+0x82>
    4134:	fc67e8e3          	bltu	a5,t1,4104 <__gedf2+0x46>
    4138:	02f30363          	beq	t1,a5,415e <__gedf2+0xa0>
    413c:	00f37f63          	bgeu	t1,a5,415a <__gedf2+0x9c>
    4140:	e581                	bnez	a1,4148 <__gedf2+0x8a>
    4142:	557d                	li	a0,-1
    4144:	8082                	ret
    4146:	def5                	beqz	a3,4142 <__gedf2+0x84>
    4148:	4505                	li	a0,1
    414a:	8082                	ret
    414c:	4501                	li	a0,0
    414e:	fa089be3          	bnez	a7,4104 <__gedf2+0x46>
    4152:	8082                	ret
    4154:	8e5d                	or	a2,a2,a5
    4156:	da69                	beqz	a2,4128 <__gedf2+0x6a>
    4158:	bf6d                	j	4112 <__gedf2+0x54>
    415a:	4501                	li	a0,0
    415c:	8082                	ret
    415e:	fbcee3e3          	bltu	t4,t3,4104 <__gedf2+0x46>
    4162:	4501                	li	a0,0
    4164:	fbde72e3          	bgeu	t3,t4,4108 <__gedf2+0x4a>
    4168:	f1e5                	bnez	a1,4148 <__gedf2+0x8a>
    416a:	bfe1                	j	4142 <__gedf2+0x84>

0000416c <__muldf3>:
    416c:	7139                	addi	sp,sp,-64
    416e:	d84a                	sw	s2,48(sp)
    4170:	0145d913          	srli	s2,a1,0x14
    4174:	d64e                	sw	s3,44(sp)
    4176:	d452                	sw	s4,40(sp)
    4178:	d256                	sw	s5,36(sp)
    417a:	00c59993          	slli	s3,a1,0xc
    417e:	de06                	sw	ra,60(sp)
    4180:	dc22                	sw	s0,56(sp)
    4182:	da26                	sw	s1,52(sp)
    4184:	d05a                	sw	s6,32(sp)
    4186:	ce5e                	sw	s7,28(sp)
    4188:	7ff97913          	andi	s2,s2,2047
    418c:	8a2a                	mv	s4,a0
    418e:	00c9d993          	srli	s3,s3,0xc
    4192:	01f5da93          	srli	s5,a1,0x1f
    4196:	0e090d63          	beqz	s2,4290 <__muldf3+0x124>
    419a:	7ff00793          	li	a5,2047
    419e:	18f90663          	beq	s2,a5,432a <__muldf3+0x1be>
    41a2:	01d55413          	srli	s0,a0,0x1d
    41a6:	098e                	slli	s3,s3,0x3
    41a8:	013469b3          	or	s3,s0,s3
    41ac:	00800437          	lui	s0,0x800
    41b0:	0089e433          	or	s0,s3,s0
    41b4:	00351493          	slli	s1,a0,0x3
    41b8:	c0190913          	addi	s2,s2,-1023
    41bc:	4981                	li	s3,0
    41be:	4b81                	li	s7,0
    41c0:	0146d713          	srli	a4,a3,0x14
    41c4:	00c69a13          	slli	s4,a3,0xc
    41c8:	7ff77713          	andi	a4,a4,2047
    41cc:	85b2                	mv	a1,a2
    41ce:	00ca5a13          	srli	s4,s4,0xc
    41d2:	01f6db13          	srli	s6,a3,0x1f
    41d6:	10070b63          	beqz	a4,42ec <__muldf3+0x180>
    41da:	7ff00793          	li	a5,2047
    41de:	04f70363          	beq	a4,a5,4224 <__muldf3+0xb8>
    41e2:	01d65793          	srli	a5,a2,0x1d
    41e6:	0a0e                	slli	s4,s4,0x3
    41e8:	0147ea33          	or	s4,a5,s4
    41ec:	c0170713          	addi	a4,a4,-1023
    41f0:	008007b7          	lui	a5,0x800
    41f4:	00fa67b3          	or	a5,s4,a5
    41f8:	00361593          	slli	a1,a2,0x3
    41fc:	993a                	add	s2,s2,a4
    41fe:	4881                	li	a7,0
    4200:	016ac733          	xor	a4,s5,s6
    4204:	46bd                	li	a3,15
    4206:	853a                	mv	a0,a4
    4208:	00190813          	addi	a6,s2,1
    420c:	1736e863          	bltu	a3,s3,437c <__muldf3+0x210>
    4210:	00004617          	auipc	a2,0x4
    4214:	42860613          	addi	a2,a2,1064 # 8638 <atanlo+0x68>
    4218:	098a                	slli	s3,s3,0x2
    421a:	99b2                	add	s3,s3,a2
    421c:	0009a683          	lw	a3,0(s3)
    4220:	96b2                	add	a3,a3,a2
    4222:	8682                	jr	a3
    4224:	00ca67b3          	or	a5,s4,a2
    4228:	7ff90913          	addi	s2,s2,2047
    422c:	12079963          	bnez	a5,435e <__muldf3+0x1f2>
    4230:	0029e993          	ori	s3,s3,2
    4234:	4581                	li	a1,0
    4236:	4889                	li	a7,2
    4238:	b7e1                	j	4200 <__muldf3+0x94>
    423a:	4701                	li	a4,0
    423c:	7ff00793          	li	a5,2047
    4240:	00080437          	lui	s0,0x80
    4244:	4481                	li	s1,0
    4246:	0432                	slli	s0,s0,0xc
    4248:	07d2                	slli	a5,a5,0x14
    424a:	8031                	srli	s0,s0,0xc
    424c:	077e                	slli	a4,a4,0x1f
    424e:	8c5d                	or	s0,s0,a5
    4250:	8c59                	or	s0,s0,a4
    4252:	85a2                	mv	a1,s0
    4254:	50f2                	lw	ra,60(sp)
    4256:	5462                	lw	s0,56(sp)
    4258:	8526                	mv	a0,s1
    425a:	5942                	lw	s2,48(sp)
    425c:	54d2                	lw	s1,52(sp)
    425e:	59b2                	lw	s3,44(sp)
    4260:	5a22                	lw	s4,40(sp)
    4262:	5a92                	lw	s5,36(sp)
    4264:	5b02                	lw	s6,32(sp)
    4266:	4bf2                	lw	s7,28(sp)
    4268:	6121                	addi	sp,sp,64
    426a:	8082                	ret
    426c:	855a                	mv	a0,s6
    426e:	843e                	mv	s0,a5
    4270:	84ae                	mv	s1,a1
    4272:	8bc6                	mv	s7,a7
    4274:	4789                	li	a5,2
    4276:	0efb8d63          	beq	s7,a5,4370 <__muldf3+0x204>
    427a:	478d                	li	a5,3
    427c:	fafb8fe3          	beq	s7,a5,423a <__muldf3+0xce>
    4280:	4785                	li	a5,1
    4282:	872a                	mv	a4,a0
    4284:	38fb9e63          	bne	s7,a5,4620 <__muldf3+0x4b4>
    4288:	4781                	li	a5,0
    428a:	4401                	li	s0,0
    428c:	4481                	li	s1,0
    428e:	bf65                	j	4246 <__muldf3+0xda>
    4290:	00a9e433          	or	s0,s3,a0
    4294:	c061                	beqz	s0,4354 <__muldf3+0x1e8>
    4296:	c636                	sw	a3,12(sp)
    4298:	c432                	sw	a2,8(sp)
    429a:	2a098c63          	beqz	s3,4552 <__muldf3+0x3e6>
    429e:	854e                	mv	a0,s3
    42a0:	399010ef          	jal	ra,5e38 <__clzsi2>
    42a4:	4622                	lw	a2,8(sp)
    42a6:	46b2                	lw	a3,12(sp)
    42a8:	87aa                	mv	a5,a0
    42aa:	ff550713          	addi	a4,a0,-11
    42ae:	4475                	li	s0,29
    42b0:	ff878493          	addi	s1,a5,-8 # 7ffff8 <_data_lma+0x7f7724>
    42b4:	8c19                	sub	s0,s0,a4
    42b6:	009999b3          	sll	s3,s3,s1
    42ba:	008a5433          	srl	s0,s4,s0
    42be:	01346433          	or	s0,s0,s3
    42c2:	009a14b3          	sll	s1,s4,s1
    42c6:	0146d713          	srli	a4,a3,0x14
    42ca:	c0d00913          	li	s2,-1011
    42ce:	00c69a13          	slli	s4,a3,0xc
    42d2:	7ff77713          	andi	a4,a4,2047
    42d6:	40f90933          	sub	s2,s2,a5
    42da:	4981                	li	s3,0
    42dc:	4b81                	li	s7,0
    42de:	85b2                	mv	a1,a2
    42e0:	00ca5a13          	srli	s4,s4,0xc
    42e4:	01f6db13          	srli	s6,a3,0x1f
    42e8:	ee0719e3          	bnez	a4,41da <__muldf3+0x6e>
    42ec:	00ca67b3          	or	a5,s4,a2
    42f0:	c7b1                	beqz	a5,433c <__muldf3+0x1d0>
    42f2:	220a0f63          	beqz	s4,4530 <__muldf3+0x3c4>
    42f6:	8552                	mv	a0,s4
    42f8:	c432                	sw	a2,8(sp)
    42fa:	33f010ef          	jal	ra,5e38 <__clzsi2>
    42fe:	4622                	lw	a2,8(sp)
    4300:	872a                	mv	a4,a0
    4302:	ff550693          	addi	a3,a0,-11
    4306:	47f5                	li	a5,29
    4308:	ff870593          	addi	a1,a4,-8
    430c:	8f95                	sub	a5,a5,a3
    430e:	00ba1a33          	sll	s4,s4,a1
    4312:	00f657b3          	srl	a5,a2,a5
    4316:	0147e7b3          	or	a5,a5,s4
    431a:	00b615b3          	sll	a1,a2,a1
    431e:	40e90933          	sub	s2,s2,a4
    4322:	c0d90913          	addi	s2,s2,-1011
    4326:	4881                	li	a7,0
    4328:	bde1                	j	4200 <__muldf3+0x94>
    432a:	00a9e433          	or	s0,s3,a0
    432e:	ec01                	bnez	s0,4346 <__muldf3+0x1da>
    4330:	49a1                	li	s3,8
    4332:	4481                	li	s1,0
    4334:	7ff00913          	li	s2,2047
    4338:	4b89                	li	s7,2
    433a:	b559                	j	41c0 <__muldf3+0x54>
    433c:	0019e993          	ori	s3,s3,1
    4340:	4581                	li	a1,0
    4342:	4885                	li	a7,1
    4344:	bd75                	j	4200 <__muldf3+0x94>
    4346:	844e                	mv	s0,s3
    4348:	84aa                	mv	s1,a0
    434a:	49b1                	li	s3,12
    434c:	7ff00913          	li	s2,2047
    4350:	4b8d                	li	s7,3
    4352:	b5bd                	j	41c0 <__muldf3+0x54>
    4354:	4991                	li	s3,4
    4356:	4481                	li	s1,0
    4358:	4901                	li	s2,0
    435a:	4b85                	li	s7,1
    435c:	b595                	j	41c0 <__muldf3+0x54>
    435e:	0039e993          	ori	s3,s3,3
    4362:	87d2                	mv	a5,s4
    4364:	488d                	li	a7,3
    4366:	bd69                	j	4200 <__muldf3+0x94>
    4368:	4789                	li	a5,2
    436a:	8556                	mv	a0,s5
    436c:	f0fb97e3          	bne	s7,a5,427a <__muldf3+0x10e>
    4370:	872a                	mv	a4,a0
    4372:	7ff00793          	li	a5,2047
    4376:	4401                	li	s0,0
    4378:	4481                	li	s1,0
    437a:	b5f1                	j	4246 <__muldf3+0xda>
    437c:	6ec1                	lui	t4,0x10
    437e:	fffe8613          	addi	a2,t4,-1 # ffff <_data_lma+0x772b>
    4382:	0104d693          	srli	a3,s1,0x10
    4386:	0105de13          	srli	t3,a1,0x10
    438a:	8cf1                	and	s1,s1,a2
    438c:	8df1                	and	a1,a1,a2
    438e:	02958633          	mul	a2,a1,s1
    4392:	02b68333          	mul	t1,a3,a1
    4396:	01065893          	srli	a7,a2,0x10
    439a:	029e0533          	mul	a0,t3,s1
    439e:	951a                	add	a0,a0,t1
    43a0:	98aa                	add	a7,a7,a0
    43a2:	03c682b3          	mul	t0,a3,t3
    43a6:	0068f363          	bgeu	a7,t1,43ac <__muldf3+0x240>
    43aa:	92f6                	add	t0,t0,t4
    43ac:	6fc1                	lui	t6,0x10
    43ae:	ffff8313          	addi	t1,t6,-1 # ffff <_data_lma+0x772b>
    43b2:	0067f533          	and	a0,a5,t1
    43b6:	0107d393          	srli	t2,a5,0x10
    43ba:	0068f7b3          	and	a5,a7,t1
    43be:	07c2                	slli	a5,a5,0x10
    43c0:	00667333          	and	t1,a2,t1
    43c4:	933e                	add	t1,t1,a5
    43c6:	02950633          	mul	a2,a0,s1
    43ca:	0108d893          	srli	a7,a7,0x10
    43ce:	02a687b3          	mul	a5,a3,a0
    43d2:	01065f13          	srli	t5,a2,0x10
    43d6:	029384b3          	mul	s1,t2,s1
    43da:	94be                	add	s1,s1,a5
    43dc:	94fa                	add	s1,s1,t5
    43de:	02768eb3          	mul	t4,a3,t2
    43e2:	00f4f363          	bgeu	s1,a5,43e8 <__muldf3+0x27c>
    43e6:	9efe                	add	t4,t4,t6
    43e8:	6a41                	lui	s4,0x10
    43ea:	fffa0793          	addi	a5,s4,-1 # ffff <_data_lma+0x772b>
    43ee:	01045f93          	srli	t6,s0,0x10
    43f2:	00f476b3          	and	a3,s0,a5
    43f6:	00f4f9b3          	and	s3,s1,a5
    43fa:	8e7d                	and	a2,a2,a5
    43fc:	80c1                	srli	s1,s1,0x10
    43fe:	02d58433          	mul	s0,a1,a3
    4402:	09c2                	slli	s3,s3,0x10
    4404:	01d48f33          	add	t5,s1,t4
    4408:	99b2                	add	s3,s3,a2
    440a:	98ce                	add	a7,a7,s3
    440c:	02de07b3          	mul	a5,t3,a3
    4410:	01045e93          	srli	t4,s0,0x10
    4414:	02bf85b3          	mul	a1,t6,a1
    4418:	97ae                	add	a5,a5,a1
    441a:	9ebe                	add	t4,t4,a5
    441c:	03fe0e33          	mul	t3,t3,t6
    4420:	00bef363          	bgeu	t4,a1,4426 <__muldf3+0x2ba>
    4424:	9e52                	add	t3,t3,s4
    4426:	67c1                	lui	a5,0x10
    4428:	fff78593          	addi	a1,a5,-1 # ffff <_data_lma+0x772b>
    442c:	00bef633          	and	a2,t4,a1
    4430:	8c6d                	and	s0,s0,a1
    4432:	0642                	slli	a2,a2,0x10
    4434:	9622                	add	a2,a2,s0
    4436:	010ede93          	srli	t4,t4,0x10
    443a:	02d505b3          	mul	a1,a0,a3
    443e:	9e76                	add	t3,t3,t4
    4440:	02af8533          	mul	a0,t6,a0
    4444:	0105d413          	srli	s0,a1,0x10
    4448:	02d386b3          	mul	a3,t2,a3
    444c:	96aa                	add	a3,a3,a0
    444e:	96a2                	add	a3,a3,s0
    4450:	03f38fb3          	mul	t6,t2,t6
    4454:	00a6f363          	bgeu	a3,a0,445a <__muldf3+0x2ee>
    4458:	9fbe                	add	t6,t6,a5
    445a:	6541                	lui	a0,0x10
    445c:	157d                	addi	a0,a0,-1
    445e:	00a6f7b3          	and	a5,a3,a0
    4462:	07c2                	slli	a5,a5,0x10
    4464:	8d6d                	and	a0,a0,a1
    4466:	97aa                	add	a5,a5,a0
    4468:	005885b3          	add	a1,a7,t0
    446c:	0135b9b3          	sltu	s3,a1,s3
    4470:	97fa                	add	a5,a5,t5
    4472:	95b2                	add	a1,a1,a2
    4474:	01378433          	add	s0,a5,s3
    4478:	00c5b633          	sltu	a2,a1,a2
    447c:	01c40eb3          	add	t4,s0,t3
    4480:	00ce8533          	add	a0,t4,a2
    4484:	01343433          	sltu	s0,s0,s3
    4488:	01e7b7b3          	sltu	a5,a5,t5
    448c:	8fc1                	or	a5,a5,s0
    448e:	01cebe33          	sltu	t3,t4,t3
    4492:	0106d413          	srli	s0,a3,0x10
    4496:	00c53633          	sltu	a2,a0,a2
    449a:	943e                	add	s0,s0,a5
    449c:	00ce6633          	or	a2,t3,a2
    44a0:	00959493          	slli	s1,a1,0x9
    44a4:	9432                	add	s0,s0,a2
    44a6:	947e                	add	s0,s0,t6
    44a8:	0064e4b3          	or	s1,s1,t1
    44ac:	0426                	slli	s0,s0,0x9
    44ae:	01755693          	srli	a3,a0,0x17
    44b2:	009034b3          	snez	s1,s1
    44b6:	81dd                	srli	a1,a1,0x17
    44b8:	00951793          	slli	a5,a0,0x9
    44bc:	8ccd                	or	s1,s1,a1
    44be:	8c55                	or	s0,s0,a3
    44c0:	8cdd                	or	s1,s1,a5
    44c2:	00741793          	slli	a5,s0,0x7
    44c6:	0007db63          	bgez	a5,44dc <__muldf3+0x370>
    44ca:	0014d793          	srli	a5,s1,0x1
    44ce:	8885                	andi	s1,s1,1
    44d0:	01f41693          	slli	a3,s0,0x1f
    44d4:	8cdd                	or	s1,s1,a5
    44d6:	8cd5                	or	s1,s1,a3
    44d8:	8005                	srli	s0,s0,0x1
    44da:	8942                	mv	s2,a6
    44dc:	3ff90793          	addi	a5,s2,1023
    44e0:	08f05963          	blez	a5,4572 <__muldf3+0x406>
    44e4:	0074f693          	andi	a3,s1,7
    44e8:	ce81                	beqz	a3,4500 <__muldf3+0x394>
    44ea:	00f4f693          	andi	a3,s1,15
    44ee:	4611                	li	a2,4
    44f0:	00c68863          	beq	a3,a2,4500 <__muldf3+0x394>
    44f4:	00448693          	addi	a3,s1,4
    44f8:	0096b4b3          	sltu	s1,a3,s1
    44fc:	9426                	add	s0,s0,s1
    44fe:	84b6                	mv	s1,a3
    4500:	00741693          	slli	a3,s0,0x7
    4504:	0006d863          	bgez	a3,4514 <__muldf3+0x3a8>
    4508:	ff0007b7          	lui	a5,0xff000
    450c:	17fd                	addi	a5,a5,-1
    450e:	8c7d                	and	s0,s0,a5
    4510:	40090793          	addi	a5,s2,1024
    4514:	7fe00693          	li	a3,2046
    4518:	0ef6cf63          	blt	a3,a5,4616 <__muldf3+0x4aa>
    451c:	0034d693          	srli	a3,s1,0x3
    4520:	01d41493          	slli	s1,s0,0x1d
    4524:	0426                	slli	s0,s0,0x9
    4526:	8cd5                	or	s1,s1,a3
    4528:	8031                	srli	s0,s0,0xc
    452a:	7ff7f793          	andi	a5,a5,2047
    452e:	bb21                	j	4246 <__muldf3+0xda>
    4530:	8532                	mv	a0,a2
    4532:	c432                	sw	a2,8(sp)
    4534:	105010ef          	jal	ra,5e38 <__clzsi2>
    4538:	01550693          	addi	a3,a0,21 # 10015 <_data_lma+0x7741>
    453c:	47f1                	li	a5,28
    453e:	02050713          	addi	a4,a0,32
    4542:	4622                	lw	a2,8(sp)
    4544:	dcd7d1e3          	bge	a5,a3,4306 <__muldf3+0x19a>
    4548:	1561                	addi	a0,a0,-8
    454a:	00a617b3          	sll	a5,a2,a0
    454e:	4581                	li	a1,0
    4550:	b3f9                	j	431e <__muldf3+0x1b2>
    4552:	0e7010ef          	jal	ra,5e38 <__clzsi2>
    4556:	01550713          	addi	a4,a0,21
    455a:	45f1                	li	a1,28
    455c:	02050793          	addi	a5,a0,32
    4560:	4622                	lw	a2,8(sp)
    4562:	46b2                	lw	a3,12(sp)
    4564:	d4e5d5e3          	bge	a1,a4,42ae <__muldf3+0x142>
    4568:	1561                	addi	a0,a0,-8
    456a:	00aa1433          	sll	s0,s4,a0
    456e:	4481                	li	s1,0
    4570:	bb99                	j	42c6 <__muldf3+0x15a>
    4572:	4685                	li	a3,1
    4574:	8e9d                	sub	a3,a3,a5
    4576:	e7b1                	bnez	a5,45c2 <__muldf3+0x456>
    4578:	41e90913          	addi	s2,s2,1054
    457c:	012497b3          	sll	a5,s1,s2
    4580:	00d4d4b3          	srl	s1,s1,a3
    4584:	01241933          	sll	s2,s0,s2
    4588:	00f037b3          	snez	a5,a5
    458c:	009964b3          	or	s1,s2,s1
    4590:	8cdd                	or	s1,s1,a5
    4592:	0074f793          	andi	a5,s1,7
    4596:	00d456b3          	srl	a3,s0,a3
    459a:	cf81                	beqz	a5,45b2 <__muldf3+0x446>
    459c:	00f4f793          	andi	a5,s1,15
    45a0:	4611                	li	a2,4
    45a2:	00c78863          	beq	a5,a2,45b2 <__muldf3+0x446>
    45a6:	00448793          	addi	a5,s1,4
    45aa:	0097b4b3          	sltu	s1,a5,s1
    45ae:	96a6                	add	a3,a3,s1
    45b0:	84be                	mv	s1,a5
    45b2:	00869793          	slli	a5,a3,0x8
    45b6:	0407d863          	bgez	a5,4606 <__muldf3+0x49a>
    45ba:	4785                	li	a5,1
    45bc:	4401                	li	s0,0
    45be:	4481                	li	s1,0
    45c0:	b159                	j	4246 <__muldf3+0xda>
    45c2:	03800613          	li	a2,56
    45c6:	ccd641e3          	blt	a2,a3,4288 <__muldf3+0x11c>
    45ca:	467d                	li	a2,31
    45cc:	fad656e3          	bge	a2,a3,4578 <__muldf3+0x40c>
    45d0:	5605                	li	a2,-31
    45d2:	40f607b3          	sub	a5,a2,a5
    45d6:	02000593          	li	a1,32
    45da:	00f45633          	srl	a2,s0,a5
    45de:	00b68763          	beq	a3,a1,45ec <__muldf3+0x480>
    45e2:	43e90913          	addi	s2,s2,1086
    45e6:	012417b3          	sll	a5,s0,s2
    45ea:	8cdd                	or	s1,s1,a5
    45ec:	009034b3          	snez	s1,s1
    45f0:	8cd1                	or	s1,s1,a2
    45f2:	0074f693          	andi	a3,s1,7
    45f6:	4401                	li	s0,0
    45f8:	ca99                	beqz	a3,460e <__muldf3+0x4a2>
    45fa:	00f4f793          	andi	a5,s1,15
    45fe:	4611                	li	a2,4
    4600:	4681                	li	a3,0
    4602:	fac792e3          	bne	a5,a2,45a6 <__muldf3+0x43a>
    4606:	00969413          	slli	s0,a3,0x9
    460a:	8031                	srli	s0,s0,0xc
    460c:	06f6                	slli	a3,a3,0x1d
    460e:	808d                	srli	s1,s1,0x3
    4610:	8cd5                	or	s1,s1,a3
    4612:	4781                	li	a5,0
    4614:	b90d                	j	4246 <__muldf3+0xda>
    4616:	7ff00793          	li	a5,2047
    461a:	4401                	li	s0,0
    461c:	4481                	li	s1,0
    461e:	b125                	j	4246 <__muldf3+0xda>
    4620:	8942                	mv	s2,a6
    4622:	bd6d                	j	44dc <__muldf3+0x370>

00004624 <__subdf3>:
    4624:	00100737          	lui	a4,0x100
    4628:	177d                	addi	a4,a4,-1
    462a:	1101                	addi	sp,sp,-32
    462c:	00b77333          	and	t1,a4,a1
    4630:	0146d893          	srli	a7,a3,0x14
    4634:	8f75                	and	a4,a4,a3
    4636:	01d65e93          	srli	t4,a2,0x1d
    463a:	cc22                	sw	s0,24(sp)
    463c:	ca26                	sw	s1,20(sp)
    463e:	030e                	slli	t1,t1,0x3
    4640:	0145d493          	srli	s1,a1,0x14
    4644:	01d55793          	srli	a5,a0,0x1d
    4648:	070e                	slli	a4,a4,0x3
    464a:	ce06                	sw	ra,28(sp)
    464c:	c84a                	sw	s2,16(sp)
    464e:	c64e                	sw	s3,12(sp)
    4650:	7ff8f893          	andi	a7,a7,2047
    4654:	7ff00e13          	li	t3,2047
    4658:	00eee733          	or	a4,t4,a4
    465c:	7ff4f493          	andi	s1,s1,2047
    4660:	01f5d413          	srli	s0,a1,0x1f
    4664:	0067e333          	or	t1,a5,t1
    4668:	00351f13          	slli	t5,a0,0x3
    466c:	82fd                	srli	a3,a3,0x1f
    466e:	00361e93          	slli	t4,a2,0x3
    4672:	19c88063          	beq	a7,t3,47f2 <__subdf3+0x1ce>
    4676:	0016c693          	xori	a3,a3,1
    467a:	411485b3          	sub	a1,s1,a7
    467e:	12d40563          	beq	s0,a3,47a8 <__subdf3+0x184>
    4682:	18b05163          	blez	a1,4804 <__subdf3+0x1e0>
    4686:	1a088b63          	beqz	a7,483c <__subdf3+0x218>
    468a:	008007b7          	lui	a5,0x800
    468e:	8f5d                	or	a4,a4,a5
    4690:	59c48163          	beq	s1,t3,4c12 <__subdf3+0x5ee>
    4694:	03800793          	li	a5,56
    4698:	34b7c463          	blt	a5,a1,49e0 <__subdf3+0x3bc>
    469c:	47fd                	li	a5,31
    469e:	48b7c563          	blt	a5,a1,4b28 <__subdf3+0x504>
    46a2:	02000793          	li	a5,32
    46a6:	8f8d                	sub	a5,a5,a1
    46a8:	00bed9b3          	srl	s3,t4,a1
    46ac:	00f71833          	sll	a6,a4,a5
    46b0:	00fe9eb3          	sll	t4,t4,a5
    46b4:	01386833          	or	a6,a6,s3
    46b8:	00b75733          	srl	a4,a4,a1
    46bc:	01d039b3          	snez	s3,t4
    46c0:	01386833          	or	a6,a6,s3
    46c4:	40e30333          	sub	t1,t1,a4
    46c8:	410f09b3          	sub	s3,t5,a6
    46cc:	013f37b3          	sltu	a5,t5,s3
    46d0:	40f30633          	sub	a2,t1,a5
    46d4:	00861793          	slli	a5,a2,0x8
    46d8:	2407d363          	bgez	a5,491e <__subdf3+0x2fa>
    46dc:	00800937          	lui	s2,0x800
    46e0:	197d                	addi	s2,s2,-1
    46e2:	01267933          	and	s2,a2,s2
    46e6:	2c090f63          	beqz	s2,49c4 <__subdf3+0x3a0>
    46ea:	854a                	mv	a0,s2
    46ec:	74c010ef          	jal	ra,5e38 <__clzsi2>
    46f0:	ff850713          	addi	a4,a0,-8
    46f4:	02000793          	li	a5,32
    46f8:	8f99                	sub	a5,a5,a4
    46fa:	00f9d7b3          	srl	a5,s3,a5
    46fe:	00e91633          	sll	a2,s2,a4
    4702:	8fd1                	or	a5,a5,a2
    4704:	00e999b3          	sll	s3,s3,a4
    4708:	2a974463          	blt	a4,s1,49b0 <__subdf3+0x38c>
    470c:	8f05                	sub	a4,a4,s1
    470e:	00170613          	addi	a2,a4,1 # 100001 <_data_lma+0xf772d>
    4712:	46fd                	li	a3,31
    4714:	3ac6c563          	blt	a3,a2,4abe <__subdf3+0x49a>
    4718:	02000713          	li	a4,32
    471c:	8f11                	sub	a4,a4,a2
    471e:	00c9d6b3          	srl	a3,s3,a2
    4722:	00e99833          	sll	a6,s3,a4
    4726:	00e79733          	sll	a4,a5,a4
    472a:	8f55                	or	a4,a4,a3
    472c:	01003833          	snez	a6,a6
    4730:	010769b3          	or	s3,a4,a6
    4734:	00c7d633          	srl	a2,a5,a2
    4738:	4481                	li	s1,0
    473a:	0079f793          	andi	a5,s3,7
    473e:	cf81                	beqz	a5,4756 <__subdf3+0x132>
    4740:	00f9f693          	andi	a3,s3,15
    4744:	4791                	li	a5,4
    4746:	00f68863          	beq	a3,a5,4756 <__subdf3+0x132>
    474a:	00498693          	addi	a3,s3,4
    474e:	0136b833          	sltu	a6,a3,s3
    4752:	9642                	add	a2,a2,a6
    4754:	89b6                	mv	s3,a3
    4756:	00861793          	slli	a5,a2,0x8
    475a:	1c07d663          	bgez	a5,4926 <__subdf3+0x302>
    475e:	00148713          	addi	a4,s1,1
    4762:	7ff00793          	li	a5,2047
    4766:	8805                	andi	s0,s0,1
    4768:	20f70663          	beq	a4,a5,4974 <__subdf3+0x350>
    476c:	ff8007b7          	lui	a5,0xff800
    4770:	17fd                	addi	a5,a5,-1
    4772:	8ff1                	and	a5,a5,a2
    4774:	01d79813          	slli	a6,a5,0x1d
    4778:	0039d993          	srli	s3,s3,0x3
    477c:	07a6                	slli	a5,a5,0x9
    477e:	01386833          	or	a6,a6,s3
    4782:	83b1                	srli	a5,a5,0xc
    4784:	7ff77713          	andi	a4,a4,2047
    4788:	00c79693          	slli	a3,a5,0xc
    478c:	0752                	slli	a4,a4,0x14
    478e:	82b1                	srli	a3,a3,0xc
    4790:	047e                	slli	s0,s0,0x1f
    4792:	8ed9                	or	a3,a3,a4
    4794:	8ec1                	or	a3,a3,s0
    4796:	40f2                	lw	ra,28(sp)
    4798:	4462                	lw	s0,24(sp)
    479a:	44d2                	lw	s1,20(sp)
    479c:	4942                	lw	s2,16(sp)
    479e:	49b2                	lw	s3,12(sp)
    47a0:	8542                	mv	a0,a6
    47a2:	85b6                	mv	a1,a3
    47a4:	6105                	addi	sp,sp,32
    47a6:	8082                	ret
    47a8:	0ab05663          	blez	a1,4854 <__subdf3+0x230>
    47ac:	12088a63          	beqz	a7,48e0 <__subdf3+0x2bc>
    47b0:	008007b7          	lui	a5,0x800
    47b4:	8f5d                	or	a4,a4,a5
    47b6:	2dc48763          	beq	s1,t3,4a84 <__subdf3+0x460>
    47ba:	03800793          	li	a5,56
    47be:	18b7c763          	blt	a5,a1,494c <__subdf3+0x328>
    47c2:	47fd                	li	a5,31
    47c4:	3cb7d263          	bge	a5,a1,4b88 <__subdf3+0x564>
    47c8:	fe058813          	addi	a6,a1,-32 # ffe0 <_data_lma+0x770c>
    47cc:	02000793          	li	a5,32
    47d0:	010759b3          	srl	s3,a4,a6
    47d4:	00f58a63          	beq	a1,a5,47e8 <__subdf3+0x1c4>
    47d8:	04000793          	li	a5,64
    47dc:	40b785b3          	sub	a1,a5,a1
    47e0:	00b71733          	sll	a4,a4,a1
    47e4:	00eeeeb3          	or	t4,t4,a4
    47e8:	01d03833          	snez	a6,t4
    47ec:	01386833          	or	a6,a6,s3
    47f0:	a295                	j	4954 <__subdf3+0x330>
    47f2:	01d767b3          	or	a5,a4,t4
    47f6:	80148593          	addi	a1,s1,-2047
    47fa:	e399                	bnez	a5,4800 <__subdf3+0x1dc>
    47fc:	0016c693          	xori	a3,a3,1
    4800:	04d40a63          	beq	s0,a3,4854 <__subdf3+0x230>
    4804:	e1d1                	bnez	a1,4888 <__subdf3+0x264>
    4806:	00148793          	addi	a5,s1,1
    480a:	7fe7f793          	andi	a5,a5,2046
    480e:	1e079963          	bnez	a5,4a00 <__subdf3+0x3dc>
    4812:	01e367b3          	or	a5,t1,t5
    4816:	01d76833          	or	a6,a4,t4
    481a:	16049263          	bnez	s1,497e <__subdf3+0x35a>
    481e:	3c078263          	beqz	a5,4be2 <__subdf3+0x5be>
    4822:	42081663          	bnez	a6,4c4e <__subdf3+0x62a>
    4826:	00351813          	slli	a6,a0,0x3
    482a:	01d31693          	slli	a3,t1,0x1d
    482e:	00385813          	srli	a6,a6,0x3
    4832:	0106e833          	or	a6,a3,a6
    4836:	00335793          	srli	a5,t1,0x3
    483a:	a219                	j	4940 <__subdf3+0x31c>
    483c:	01d767b3          	or	a5,a4,t4
    4840:	1a078563          	beqz	a5,49ea <__subdf3+0x3c6>
    4844:	fff58793          	addi	a5,a1,-1
    4848:	3a078b63          	beqz	a5,4bfe <__subdf3+0x5da>
    484c:	23c58c63          	beq	a1,t3,4a84 <__subdf3+0x460>
    4850:	85be                	mv	a1,a5
    4852:	b589                	j	4694 <__subdf3+0x70>
    4854:	1c059963          	bnez	a1,4a26 <__subdf3+0x402>
    4858:	00148693          	addi	a3,s1,1
    485c:	7fe6f793          	andi	a5,a3,2046
    4860:	efc1                	bnez	a5,48f8 <__subdf3+0x2d4>
    4862:	01e367b3          	or	a5,t1,t5
    4866:	36049063          	bnez	s1,4bc6 <__subdf3+0x5a2>
    486a:	44078d63          	beqz	a5,4cc4 <__subdf3+0x6a0>
    486e:	01d767b3          	or	a5,a4,t4
    4872:	46079463          	bnez	a5,4cda <__subdf3+0x6b6>
    4876:	050e                	slli	a0,a0,0x3
    4878:	01d31813          	slli	a6,t1,0x1d
    487c:	810d                	srli	a0,a0,0x3
    487e:	00a86833          	or	a6,a6,a0
    4882:	00335793          	srli	a5,t1,0x3
    4886:	a86d                	j	4940 <__subdf3+0x31c>
    4888:	409885b3          	sub	a1,a7,s1
    488c:	20049763          	bnez	s1,4a9a <__subdf3+0x476>
    4890:	01e367b3          	or	a5,t1,t5
    4894:	30078d63          	beqz	a5,4bae <__subdf3+0x58a>
    4898:	fff58793          	addi	a5,a1,-1
    489c:	40078963          	beqz	a5,4cae <__subdf3+0x68a>
    48a0:	7ff00513          	li	a0,2047
    48a4:	20a58363          	beq	a1,a0,4aaa <__subdf3+0x486>
    48a8:	85be                	mv	a1,a5
    48aa:	03800793          	li	a5,56
    48ae:	2ab7c263          	blt	a5,a1,4b52 <__subdf3+0x52e>
    48b2:	47fd                	li	a5,31
    48b4:	3cb7c863          	blt	a5,a1,4c84 <__subdf3+0x660>
    48b8:	02000793          	li	a5,32
    48bc:	8f8d                	sub	a5,a5,a1
    48be:	00f31833          	sll	a6,t1,a5
    48c2:	00bf5633          	srl	a2,t5,a1
    48c6:	00ff17b3          	sll	a5,t5,a5
    48ca:	00c86833          	or	a6,a6,a2
    48ce:	00f039b3          	snez	s3,a5
    48d2:	00b35333          	srl	t1,t1,a1
    48d6:	01386833          	or	a6,a6,s3
    48da:	40670733          	sub	a4,a4,t1
    48de:	acb5                	j	4b5a <__subdf3+0x536>
    48e0:	01d767b3          	or	a5,a4,t4
    48e4:	10078363          	beqz	a5,49ea <__subdf3+0x3c6>
    48e8:	fff58793          	addi	a5,a1,-1
    48ec:	1e078f63          	beqz	a5,4aea <__subdf3+0x4c6>
    48f0:	2fc58063          	beq	a1,t3,4bd0 <__subdf3+0x5ac>
    48f4:	85be                	mv	a1,a5
    48f6:	b5d1                	j	47ba <__subdf3+0x196>
    48f8:	7ff00793          	li	a5,2047
    48fc:	06f68b63          	beq	a3,a5,4972 <__subdf3+0x34e>
    4900:	9efa                	add	t4,t4,t5
    4902:	01eeb633          	sltu	a2,t4,t5
    4906:	00e307b3          	add	a5,t1,a4
    490a:	97b2                	add	a5,a5,a2
    490c:	01f79813          	slli	a6,a5,0x1f
    4910:	001ede93          	srli	t4,t4,0x1
    4914:	01d869b3          	or	s3,a6,t4
    4918:	0017d613          	srli	a2,a5,0x1
    491c:	84b6                	mv	s1,a3
    491e:	0079f793          	andi	a5,s3,7
    4922:	e0079fe3          	bnez	a5,4740 <__subdf3+0x11c>
    4926:	01d61793          	slli	a5,a2,0x1d
    492a:	0039d813          	srli	a6,s3,0x3
    492e:	00f86833          	or	a6,a6,a5
    4932:	85a6                	mv	a1,s1
    4934:	00365793          	srli	a5,a2,0x3
    4938:	7ff00713          	li	a4,2047
    493c:	06e58063          	beq	a1,a4,499c <__subdf3+0x378>
    4940:	07b2                	slli	a5,a5,0xc
    4942:	83b1                	srli	a5,a5,0xc
    4944:	7ff5f713          	andi	a4,a1,2047
    4948:	8805                	andi	s0,s0,1
    494a:	bd3d                	j	4788 <__subdf3+0x164>
    494c:	01d76733          	or	a4,a4,t4
    4950:	00e03833          	snez	a6,a4
    4954:	01e809b3          	add	s3,a6,t5
    4958:	01e9b7b3          	sltu	a5,s3,t5
    495c:	00678633          	add	a2,a5,t1
    4960:	00861793          	slli	a5,a2,0x8
    4964:	fa07dde3          	bgez	a5,491e <__subdf3+0x2fa>
    4968:	0485                	addi	s1,s1,1
    496a:	7ff00793          	li	a5,2047
    496e:	18f49c63          	bne	s1,a5,4b06 <__subdf3+0x4e2>
    4972:	8805                	andi	s0,s0,1
    4974:	7ff00713          	li	a4,2047
    4978:	4781                	li	a5,0
    497a:	4801                	li	a6,0
    497c:	b531                	j	4788 <__subdf3+0x164>
    497e:	10079163          	bnez	a5,4a80 <__subdf3+0x45c>
    4982:	3c080163          	beqz	a6,4d44 <__subdf3+0x720>
    4986:	00361813          	slli	a6,a2,0x3
    498a:	01d71793          	slli	a5,a4,0x1d
    498e:	00385813          	srli	a6,a6,0x3
    4992:	00f86833          	or	a6,a6,a5
    4996:	8436                	mv	s0,a3
    4998:	00375793          	srli	a5,a4,0x3
    499c:	00f867b3          	or	a5,a6,a5
    49a0:	dbe9                	beqz	a5,4972 <__subdf3+0x34e>
    49a2:	4401                	li	s0,0
    49a4:	7ff00713          	li	a4,2047
    49a8:	000807b7          	lui	a5,0x80
    49ac:	4801                	li	a6,0
    49ae:	bbe9                	j	4788 <__subdf3+0x164>
    49b0:	ff800637          	lui	a2,0xff800
    49b4:	167d                	addi	a2,a2,-1
    49b6:	8e7d                	and	a2,a2,a5
    49b8:	0079f793          	andi	a5,s3,7
    49bc:	8c99                	sub	s1,s1,a4
    49be:	d80791e3          	bnez	a5,4740 <__subdf3+0x11c>
    49c2:	b795                	j	4926 <__subdf3+0x302>
    49c4:	854e                	mv	a0,s3
    49c6:	472010ef          	jal	ra,5e38 <__clzsi2>
    49ca:	01850713          	addi	a4,a0,24
    49ce:	47fd                	li	a5,31
    49d0:	d2e7d2e3          	bge	a5,a4,46f4 <__subdf3+0xd0>
    49d4:	ff850613          	addi	a2,a0,-8
    49d8:	00c997b3          	sll	a5,s3,a2
    49dc:	4981                	li	s3,0
    49de:	b32d                	j	4708 <__subdf3+0xe4>
    49e0:	01d76833          	or	a6,a4,t4
    49e4:	01003833          	snez	a6,a6
    49e8:	b1c5                	j	46c8 <__subdf3+0xa4>
    49ea:	00351813          	slli	a6,a0,0x3
    49ee:	01d31793          	slli	a5,t1,0x1d
    49f2:	00385813          	srli	a6,a6,0x3
    49f6:	00f86833          	or	a6,a6,a5
    49fa:	00335793          	srli	a5,t1,0x3
    49fe:	bf2d                	j	4938 <__subdf3+0x314>
    4a00:	41df09b3          	sub	s3,t5,t4
    4a04:	40e30933          	sub	s2,t1,a4
    4a08:	013f3633          	sltu	a2,t5,s3
    4a0c:	40c90933          	sub	s2,s2,a2
    4a10:	00891793          	slli	a5,s2,0x8
    4a14:	2007ca63          	bltz	a5,4c28 <__subdf3+0x604>
    4a18:	0129e833          	or	a6,s3,s2
    4a1c:	cc0815e3          	bnez	a6,46e6 <__subdf3+0xc2>
    4a20:	4781                	li	a5,0
    4a22:	4401                	li	s0,0
    4a24:	bf31                	j	4940 <__subdf3+0x31c>
    4a26:	409885b3          	sub	a1,a7,s1
    4a2a:	14048163          	beqz	s1,4b6c <__subdf3+0x548>
    4a2e:	008006b7          	lui	a3,0x800
    4a32:	7ff00793          	li	a5,2047
    4a36:	00d36333          	or	t1,t1,a3
    4a3a:	20f88163          	beq	a7,a5,4c3c <__subdf3+0x618>
    4a3e:	03800793          	li	a5,56
    4a42:	22b7cc63          	blt	a5,a1,4c7a <__subdf3+0x656>
    4a46:	47fd                	li	a5,31
    4a48:	2cb7c963          	blt	a5,a1,4d1a <__subdf3+0x6f6>
    4a4c:	02000793          	li	a5,32
    4a50:	8f8d                	sub	a5,a5,a1
    4a52:	00f31833          	sll	a6,t1,a5
    4a56:	00bf56b3          	srl	a3,t5,a1
    4a5a:	00ff17b3          	sll	a5,t5,a5
    4a5e:	00d86833          	or	a6,a6,a3
    4a62:	00f039b3          	snez	s3,a5
    4a66:	00b35333          	srl	t1,t1,a1
    4a6a:	01386833          	or	a6,a6,s3
    4a6e:	971a                	add	a4,a4,t1
    4a70:	01d809b3          	add	s3,a6,t4
    4a74:	01d9b7b3          	sltu	a5,s3,t4
    4a78:	00e78633          	add	a2,a5,a4
    4a7c:	84c6                	mv	s1,a7
    4a7e:	b5cd                	j	4960 <__subdf3+0x33c>
    4a80:	f20811e3          	bnez	a6,49a2 <__subdf3+0x37e>
    4a84:	00351813          	slli	a6,a0,0x3
    4a88:	01d31793          	slli	a5,t1,0x1d
    4a8c:	00385813          	srli	a6,a6,0x3
    4a90:	00f86833          	or	a6,a6,a5
    4a94:	00335793          	srli	a5,t1,0x3
    4a98:	b711                	j	499c <__subdf3+0x378>
    4a9a:	00800537          	lui	a0,0x800
    4a9e:	7ff00793          	li	a5,2047
    4aa2:	00a36333          	or	t1,t1,a0
    4aa6:	e0f892e3          	bne	a7,a5,48aa <__subdf3+0x286>
    4aaa:	060e                	slli	a2,a2,0x3
    4aac:	01d71813          	slli	a6,a4,0x1d
    4ab0:	820d                	srli	a2,a2,0x3
    4ab2:	00c86833          	or	a6,a6,a2
    4ab6:	00375793          	srli	a5,a4,0x3
    4aba:	8436                	mv	s0,a3
    4abc:	b5c5                	j	499c <__subdf3+0x378>
    4abe:	1705                	addi	a4,a4,-31
    4ac0:	02000693          	li	a3,32
    4ac4:	00e7d733          	srl	a4,a5,a4
    4ac8:	00d60a63          	beq	a2,a3,4adc <__subdf3+0x4b8>
    4acc:	04000693          	li	a3,64
    4ad0:	40c68633          	sub	a2,a3,a2
    4ad4:	00c79633          	sll	a2,a5,a2
    4ad8:	00c9e9b3          	or	s3,s3,a2
    4adc:	01303833          	snez	a6,s3
    4ae0:	00e869b3          	or	s3,a6,a4
    4ae4:	4601                	li	a2,0
    4ae6:	4481                	li	s1,0
    4ae8:	bd1d                	j	491e <__subdf3+0x2fa>
    4aea:	01df09b3          	add	s3,t5,t4
    4aee:	00e307b3          	add	a5,t1,a4
    4af2:	01e9bf33          	sltu	t5,s3,t5
    4af6:	01e78633          	add	a2,a5,t5
    4afa:	00861793          	slli	a5,a2,0x8
    4afe:	4485                	li	s1,1
    4b00:	e007dfe3          	bgez	a5,491e <__subdf3+0x2fa>
    4b04:	4489                	li	s1,2
    4b06:	ff8007b7          	lui	a5,0xff800
    4b0a:	17fd                	addi	a5,a5,-1
    4b0c:	8ff1                	and	a5,a5,a2
    4b0e:	0019d713          	srli	a4,s3,0x1
    4b12:	0019f813          	andi	a6,s3,1
    4b16:	01076833          	or	a6,a4,a6
    4b1a:	01f79993          	slli	s3,a5,0x1f
    4b1e:	0109e9b3          	or	s3,s3,a6
    4b22:	0017d613          	srli	a2,a5,0x1
    4b26:	b911                	j	473a <__subdf3+0x116>
    4b28:	fe058813          	addi	a6,a1,-32
    4b2c:	02000793          	li	a5,32
    4b30:	010759b3          	srl	s3,a4,a6
    4b34:	00f58a63          	beq	a1,a5,4b48 <__subdf3+0x524>
    4b38:	04000793          	li	a5,64
    4b3c:	40b785b3          	sub	a1,a5,a1
    4b40:	00b71733          	sll	a4,a4,a1
    4b44:	00eeeeb3          	or	t4,t4,a4
    4b48:	01d03833          	snez	a6,t4
    4b4c:	01386833          	or	a6,a6,s3
    4b50:	bea5                	j	46c8 <__subdf3+0xa4>
    4b52:	01e36333          	or	t1,t1,t5
    4b56:	00603833          	snez	a6,t1
    4b5a:	410e89b3          	sub	s3,t4,a6
    4b5e:	013eb7b3          	sltu	a5,t4,s3
    4b62:	40f70633          	sub	a2,a4,a5
    4b66:	84c6                	mv	s1,a7
    4b68:	8436                	mv	s0,a3
    4b6a:	b6ad                	j	46d4 <__subdf3+0xb0>
    4b6c:	01e367b3          	or	a5,t1,t5
    4b70:	18078763          	beqz	a5,4cfe <__subdf3+0x6da>
    4b74:	fff58793          	addi	a5,a1,-1
    4b78:	1c078c63          	beqz	a5,4d50 <__subdf3+0x72c>
    4b7c:	7ff00693          	li	a3,2047
    4b80:	0ad58e63          	beq	a1,a3,4c3c <__subdf3+0x618>
    4b84:	85be                	mv	a1,a5
    4b86:	bd65                	j	4a3e <__subdf3+0x41a>
    4b88:	02000793          	li	a5,32
    4b8c:	8f8d                	sub	a5,a5,a1
    4b8e:	00bed9b3          	srl	s3,t4,a1
    4b92:	00f71833          	sll	a6,a4,a5
    4b96:	00fe9eb3          	sll	t4,t4,a5
    4b9a:	01386833          	or	a6,a6,s3
    4b9e:	00b75733          	srl	a4,a4,a1
    4ba2:	01d039b3          	snez	s3,t4
    4ba6:	01386833          	or	a6,a6,s3
    4baa:	933a                	add	t1,t1,a4
    4bac:	b365                	j	4954 <__subdf3+0x330>
    4bae:	00361813          	slli	a6,a2,0x3
    4bb2:	01d71793          	slli	a5,a4,0x1d
    4bb6:	00385813          	srli	a6,a6,0x3
    4bba:	0107e833          	or	a6,a5,a6
    4bbe:	8436                	mv	s0,a3
    4bc0:	00375793          	srli	a5,a4,0x3
    4bc4:	bb95                	j	4938 <__subdf3+0x314>
    4bc6:	cbbd                	beqz	a5,4c3c <__subdf3+0x618>
    4bc8:	01d76733          	or	a4,a4,t4
    4bcc:	dc071be3          	bnez	a4,49a2 <__subdf3+0x37e>
    4bd0:	050e                	slli	a0,a0,0x3
    4bd2:	01d31813          	slli	a6,t1,0x1d
    4bd6:	810d                	srli	a0,a0,0x3
    4bd8:	00a86833          	or	a6,a6,a0
    4bdc:	00335793          	srli	a5,t1,0x3
    4be0:	bb75                	j	499c <__subdf3+0x378>
    4be2:	e2080fe3          	beqz	a6,4a20 <__subdf3+0x3fc>
    4be6:	00361813          	slli	a6,a2,0x3
    4bea:	01d71793          	slli	a5,a4,0x1d
    4bee:	00385813          	srli	a6,a6,0x3
    4bf2:	00f86833          	or	a6,a6,a5
    4bf6:	8436                	mv	s0,a3
    4bf8:	00375793          	srli	a5,a4,0x3
    4bfc:	b391                	j	4940 <__subdf3+0x31c>
    4bfe:	41df09b3          	sub	s3,t5,t4
    4c02:	40e307b3          	sub	a5,t1,a4
    4c06:	013f3f33          	sltu	t5,t5,s3
    4c0a:	41e78633          	sub	a2,a5,t5
    4c0e:	4485                	li	s1,1
    4c10:	b4d1                	j	46d4 <__subdf3+0xb0>
    4c12:	00351813          	slli	a6,a0,0x3
    4c16:	01d31693          	slli	a3,t1,0x1d
    4c1a:	00385813          	srli	a6,a6,0x3
    4c1e:	0106e833          	or	a6,a3,a6
    4c22:	00335793          	srli	a5,t1,0x3
    4c26:	bb9d                	j	499c <__subdf3+0x378>
    4c28:	41ee89b3          	sub	s3,t4,t5
    4c2c:	40670633          	sub	a2,a4,t1
    4c30:	013eb933          	sltu	s2,t4,s3
    4c34:	41260933          	sub	s2,a2,s2
    4c38:	8436                	mv	s0,a3
    4c3a:	b475                	j	46e6 <__subdf3+0xc2>
    4c3c:	060e                	slli	a2,a2,0x3
    4c3e:	01d71813          	slli	a6,a4,0x1d
    4c42:	820d                	srli	a2,a2,0x3
    4c44:	00c86833          	or	a6,a6,a2
    4c48:	00375793          	srli	a5,a4,0x3
    4c4c:	bb81                	j	499c <__subdf3+0x378>
    4c4e:	41df09b3          	sub	s3,t5,t4
    4c52:	40e307b3          	sub	a5,t1,a4
    4c56:	013f3633          	sltu	a2,t5,s3
    4c5a:	40c78633          	sub	a2,a5,a2
    4c5e:	00861793          	slli	a5,a2,0x8
    4c62:	0a07d763          	bgez	a5,4d10 <__subdf3+0x6ec>
    4c66:	41ee89b3          	sub	s3,t4,t5
    4c6a:	406707b3          	sub	a5,a4,t1
    4c6e:	013ebeb3          	sltu	t4,t4,s3
    4c72:	41d78633          	sub	a2,a5,t4
    4c76:	8436                	mv	s0,a3
    4c78:	b4c9                	j	473a <__subdf3+0x116>
    4c7a:	01e36333          	or	t1,t1,t5
    4c7e:	00603833          	snez	a6,t1
    4c82:	b3fd                	j	4a70 <__subdf3+0x44c>
    4c84:	fe058813          	addi	a6,a1,-32
    4c88:	02000793          	li	a5,32
    4c8c:	010359b3          	srl	s3,t1,a6
    4c90:	00f58a63          	beq	a1,a5,4ca4 <__subdf3+0x680>
    4c94:	04000793          	li	a5,64
    4c98:	40b785b3          	sub	a1,a5,a1
    4c9c:	00b31333          	sll	t1,t1,a1
    4ca0:	006f6f33          	or	t5,t5,t1
    4ca4:	01e03833          	snez	a6,t5
    4ca8:	01386833          	or	a6,a6,s3
    4cac:	b57d                	j	4b5a <__subdf3+0x536>
    4cae:	41ee89b3          	sub	s3,t4,t5
    4cb2:	406707b3          	sub	a5,a4,t1
    4cb6:	013ebeb3          	sltu	t4,t4,s3
    4cba:	41d78633          	sub	a2,a5,t4
    4cbe:	8436                	mv	s0,a3
    4cc0:	4485                	li	s1,1
    4cc2:	bc09                	j	46d4 <__subdf3+0xb0>
    4cc4:	00361813          	slli	a6,a2,0x3
    4cc8:	01d71793          	slli	a5,a4,0x1d
    4ccc:	00385813          	srli	a6,a6,0x3
    4cd0:	00f86833          	or	a6,a6,a5
    4cd4:	00375793          	srli	a5,a4,0x3
    4cd8:	b1a5                	j	4940 <__subdf3+0x31c>
    4cda:	01df09b3          	add	s3,t5,t4
    4cde:	00e307b3          	add	a5,t1,a4
    4ce2:	01e9bf33          	sltu	t5,s3,t5
    4ce6:	01e78633          	add	a2,a5,t5
    4cea:	00861793          	slli	a5,a2,0x8
    4cee:	c207d8e3          	bgez	a5,491e <__subdf3+0x2fa>
    4cf2:	ff8007b7          	lui	a5,0xff800
    4cf6:	17fd                	addi	a5,a5,-1
    4cf8:	8e7d                	and	a2,a2,a5
    4cfa:	4485                	li	s1,1
    4cfc:	b10d                	j	491e <__subdf3+0x2fa>
    4cfe:	060e                	slli	a2,a2,0x3
    4d00:	01d71813          	slli	a6,a4,0x1d
    4d04:	820d                	srli	a2,a2,0x3
    4d06:	00c86833          	or	a6,a6,a2
    4d0a:	00375793          	srli	a5,a4,0x3
    4d0e:	b12d                	j	4938 <__subdf3+0x314>
    4d10:	00c9e833          	or	a6,s3,a2
    4d14:	d00806e3          	beqz	a6,4a20 <__subdf3+0x3fc>
    4d18:	b119                	j	491e <__subdf3+0x2fa>
    4d1a:	fe058813          	addi	a6,a1,-32
    4d1e:	02000793          	li	a5,32
    4d22:	010359b3          	srl	s3,t1,a6
    4d26:	00f58a63          	beq	a1,a5,4d3a <__subdf3+0x716>
    4d2a:	04000793          	li	a5,64
    4d2e:	40b785b3          	sub	a1,a5,a1
    4d32:	00b31333          	sll	t1,t1,a1
    4d36:	006f6f33          	or	t5,t5,t1
    4d3a:	01e03833          	snez	a6,t5
    4d3e:	01386833          	or	a6,a6,s3
    4d42:	b33d                	j	4a70 <__subdf3+0x44c>
    4d44:	4401                	li	s0,0
    4d46:	7ff00713          	li	a4,2047
    4d4a:	000807b7          	lui	a5,0x80
    4d4e:	bc2d                	j	4788 <__subdf3+0x164>
    4d50:	01df09b3          	add	s3,t5,t4
    4d54:	00e307b3          	add	a5,t1,a4
    4d58:	01d9beb3          	sltu	t4,s3,t4
    4d5c:	01d78633          	add	a2,a5,t4
    4d60:	bb69                	j	4afa <__subdf3+0x4d6>

00004d62 <__unorddf2>:
    4d62:	0145d713          	srli	a4,a1,0x14
    4d66:	001007b7          	lui	a5,0x100
    4d6a:	17fd                	addi	a5,a5,-1
    4d6c:	fff74713          	not	a4,a4
    4d70:	0146d813          	srli	a6,a3,0x14
    4d74:	8dfd                	and	a1,a1,a5
    4d76:	8ff5                	and	a5,a5,a3
    4d78:	01571693          	slli	a3,a4,0x15
    4d7c:	7ff87813          	andi	a6,a6,2047
    4d80:	ca99                	beqz	a3,4d96 <__unorddf2+0x34>
    4d82:	7ff00713          	li	a4,2047
    4d86:	4501                	li	a0,0
    4d88:	00e80363          	beq	a6,a4,4d8e <__unorddf2+0x2c>
    4d8c:	8082                	ret
    4d8e:	8fd1                	or	a5,a5,a2
    4d90:	00f03533          	snez	a0,a5
    4d94:	8082                	ret
    4d96:	8dc9                	or	a1,a1,a0
    4d98:	4505                	li	a0,1
    4d9a:	d5e5                	beqz	a1,4d82 <__unorddf2+0x20>
    4d9c:	8082                	ret

00004d9e <__addsf3>:
    4d9e:	1141                	addi	sp,sp,-16
    4da0:	00800737          	lui	a4,0x800
    4da4:	177d                	addi	a4,a4,-1
    4da6:	0175d813          	srli	a6,a1,0x17
    4daa:	c226                	sw	s1,4(sp)
    4dac:	01755493          	srli	s1,a0,0x17
    4db0:	00a77333          	and	t1,a4,a0
    4db4:	0ff4f493          	andi	s1,s1,255
    4db8:	00b776b3          	and	a3,a4,a1
    4dbc:	c04a                	sw	s2,0(sp)
    4dbe:	0ff87813          	andi	a6,a6,255
    4dc2:	01f55913          	srli	s2,a0,0x1f
    4dc6:	c606                	sw	ra,12(sp)
    4dc8:	c422                	sw	s0,8(sp)
    4dca:	81fd                	srli	a1,a1,0x1f
    4dcc:	879a                	mv	a5,t1
    4dce:	8526                	mv	a0,s1
    4dd0:	864a                	mv	a2,s2
    4dd2:	00331e13          	slli	t3,t1,0x3
    4dd6:	00369e93          	slli	t4,a3,0x3
    4dda:	410488b3          	sub	a7,s1,a6
    4dde:	0eb90a63          	beq	s2,a1,4ed2 <__addsf3+0x134>
    4de2:	0d105063          	blez	a7,4ea2 <__addsf3+0x104>
    4de6:	14080463          	beqz	a6,4f2e <__addsf3+0x190>
    4dea:	0ff00793          	li	a5,255
    4dee:	14f48b63          	beq	s1,a5,4f44 <__addsf3+0x1a6>
    4df2:	040007b7          	lui	a5,0x4000
    4df6:	00feeeb3          	or	t4,t4,a5
    4dfa:	47ed                	li	a5,27
    4dfc:	2917c163          	blt	a5,a7,507e <__addsf3+0x2e0>
    4e00:	02000793          	li	a5,32
    4e04:	411787b3          	sub	a5,a5,a7
    4e08:	00fe97b3          	sll	a5,t4,a5
    4e0c:	011ed8b3          	srl	a7,t4,a7
    4e10:	00f037b3          	snez	a5,a5
    4e14:	00f8e7b3          	or	a5,a7,a5
    4e18:	40fe07b3          	sub	a5,t3,a5
    4e1c:	00579713          	slli	a4,a5,0x5
    4e20:	18075e63          	bgez	a4,4fbc <__addsf3+0x21e>
    4e24:	04000437          	lui	s0,0x4000
    4e28:	147d                	addi	s0,s0,-1
    4e2a:	8c7d                	and	s0,s0,a5
    4e2c:	8522                	mv	a0,s0
    4e2e:	00a010ef          	jal	ra,5e38 <__clzsi2>
    4e32:	156d                	addi	a0,a0,-5
    4e34:	00a417b3          	sll	a5,s0,a0
    4e38:	1a954863          	blt	a0,s1,4fe8 <__addsf3+0x24a>
    4e3c:	8d05                	sub	a0,a0,s1
    4e3e:	00150413          	addi	s0,a0,1 # 800001 <_data_lma+0x7f772d>
    4e42:	02000713          	li	a4,32
    4e46:	8f01                	sub	a4,a4,s0
    4e48:	00e79733          	sll	a4,a5,a4
    4e4c:	00e03733          	snez	a4,a4
    4e50:	0087d7b3          	srl	a5,a5,s0
    4e54:	8fd9                	or	a5,a5,a4
    4e56:	4481                	li	s1,0
    4e58:	0077f713          	andi	a4,a5,7
    4e5c:	c719                	beqz	a4,4e6a <__addsf3+0xcc>
    4e5e:	00f7f713          	andi	a4,a5,15
    4e62:	4691                	li	a3,4
    4e64:	00d70363          	beq	a4,a3,4e6a <__addsf3+0xcc>
    4e68:	0791                	addi	a5,a5,4
    4e6a:	00579713          	slli	a4,a5,0x5
    4e6e:	14075b63          	bgez	a4,4fc4 <__addsf3+0x226>
    4e72:	0485                	addi	s1,s1,1
    4e74:	0ff00713          	li	a4,255
    4e78:	864a                	mv	a2,s2
    4e7a:	16e48363          	beq	s1,a4,4fe0 <__addsf3+0x242>
    4e7e:	079a                	slli	a5,a5,0x6
    4e80:	83a5                	srli	a5,a5,0x9
    4e82:	0ff4f513          	andi	a0,s1,255
    4e86:	40b2                	lw	ra,12(sp)
    4e88:	4422                	lw	s0,8(sp)
    4e8a:	07a6                	slli	a5,a5,0x9
    4e8c:	01751493          	slli	s1,a0,0x17
    4e90:	0097d513          	srli	a0,a5,0x9
    4e94:	8d45                	or	a0,a0,s1
    4e96:	067e                	slli	a2,a2,0x1f
    4e98:	4492                	lw	s1,4(sp)
    4e9a:	4902                	lw	s2,0(sp)
    4e9c:	8d51                	or	a0,a0,a2
    4e9e:	0141                	addi	sp,sp,16
    4ea0:	8082                	ret
    4ea2:	0a089963          	bnez	a7,4f54 <__addsf3+0x1b6>
    4ea6:	00148713          	addi	a4,s1,1
    4eaa:	0fe77713          	andi	a4,a4,254
    4eae:	14071763          	bnez	a4,4ffc <__addsf3+0x25e>
    4eb2:	22049063          	bnez	s1,50d2 <__addsf3+0x334>
    4eb6:	1e0e0d63          	beqz	t3,50b0 <__addsf3+0x312>
    4eba:	fc0e86e3          	beqz	t4,4e86 <__addsf3+0xe8>
    4ebe:	41de07b3          	sub	a5,t3,t4
    4ec2:	00579713          	slli	a4,a5,0x5
    4ec6:	22075063          	bgez	a4,50e6 <__addsf3+0x348>
    4eca:	41ce87b3          	sub	a5,t4,t3
    4ece:	892e                	mv	s2,a1
    4ed0:	b761                	j	4e58 <__addsf3+0xba>
    4ed2:	0b105c63          	blez	a7,4f8a <__addsf3+0x1ec>
    4ed6:	08080e63          	beqz	a6,4f72 <__addsf3+0x1d4>
    4eda:	0ff00793          	li	a5,255
    4ede:	06f48363          	beq	s1,a5,4f44 <__addsf3+0x1a6>
    4ee2:	040007b7          	lui	a5,0x4000
    4ee6:	00feeeb3          	or	t4,t4,a5
    4eea:	47ed                	li	a5,27
    4eec:	1f17c963          	blt	a5,a7,50de <__addsf3+0x340>
    4ef0:	02000793          	li	a5,32
    4ef4:	411787b3          	sub	a5,a5,a7
    4ef8:	00fe97b3          	sll	a5,t4,a5
    4efc:	011ed8b3          	srl	a7,t4,a7
    4f00:	00f037b3          	snez	a5,a5
    4f04:	00f8e7b3          	or	a5,a7,a5
    4f08:	97f2                	add	a5,a5,t3
    4f0a:	00579713          	slli	a4,a5,0x5
    4f0e:	0a075763          	bgez	a4,4fbc <__addsf3+0x21e>
    4f12:	0485                	addi	s1,s1,1
    4f14:	0ff00713          	li	a4,255
    4f18:	0ce48463          	beq	s1,a4,4fe0 <__addsf3+0x242>
    4f1c:	7e0006b7          	lui	a3,0x7e000
    4f20:	0017d713          	srli	a4,a5,0x1
    4f24:	16fd                	addi	a3,a3,-1
    4f26:	8b85                	andi	a5,a5,1
    4f28:	8f75                	and	a4,a4,a3
    4f2a:	8fd9                	or	a5,a5,a4
    4f2c:	b735                	j	4e58 <__addsf3+0xba>
    4f2e:	080e8d63          	beqz	t4,4fc8 <__addsf3+0x22a>
    4f32:	18fd                	addi	a7,a7,-1
    4f34:	41de07b3          	sub	a5,t3,t4
    4f38:	ee0882e3          	beqz	a7,4e1c <__addsf3+0x7e>
    4f3c:	0ff00793          	li	a5,255
    4f40:	eaf49de3          	bne	s1,a5,4dfa <__addsf3+0x5c>
    4f44:	08030d63          	beqz	t1,4fde <__addsf3+0x240>
    4f48:	4601                	li	a2,0
    4f4a:	0ff00513          	li	a0,255
    4f4e:	004007b7          	lui	a5,0x400
    4f52:	bf15                	j	4e86 <__addsf3+0xe8>
    4f54:	40980733          	sub	a4,a6,s1
    4f58:	e8ed                	bnez	s1,504a <__addsf3+0x2ac>
    4f5a:	140e0263          	beqz	t3,509e <__addsf3+0x300>
    4f5e:	177d                	addi	a4,a4,-1
    4f60:	18070863          	beqz	a4,50f0 <__addsf3+0x352>
    4f64:	0ff00793          	li	a5,255
    4f68:	0ef81963          	bne	a6,a5,505a <__addsf3+0x2bc>
    4f6c:	892e                	mv	s2,a1
    4f6e:	8336                	mv	t1,a3
    4f70:	bfd1                	j	4f44 <__addsf3+0x1a6>
    4f72:	040e8b63          	beqz	t4,4fc8 <__addsf3+0x22a>
    4f76:	18fd                	addi	a7,a7,-1
    4f78:	01de07b3          	add	a5,t3,t4
    4f7c:	f80887e3          	beqz	a7,4f0a <__addsf3+0x16c>
    4f80:	0ff00793          	li	a5,255
    4f84:	f6f493e3          	bne	s1,a5,4eea <__addsf3+0x14c>
    4f88:	bf75                	j	4f44 <__addsf3+0x1a6>
    4f8a:	08089563          	bnez	a7,5014 <__addsf3+0x276>
    4f8e:	0485                	addi	s1,s1,1
    4f90:	0fe4f713          	andi	a4,s1,254
    4f94:	12071363          	bnez	a4,50ba <__addsf3+0x31c>
    4f98:	10051763          	bnez	a0,50a6 <__addsf3+0x308>
    4f9c:	140e0f63          	beqz	t3,50fa <__addsf3+0x35c>
    4fa0:	ee0e83e3          	beqz	t4,4e86 <__addsf3+0xe8>
    4fa4:	01de07b3          	add	a5,t3,t4
    4fa8:	00579713          	slli	a4,a5,0x5
    4fac:	4481                	li	s1,0
    4fae:	00075763          	bgez	a4,4fbc <__addsf3+0x21e>
    4fb2:	fc000737          	lui	a4,0xfc000
    4fb6:	177d                	addi	a4,a4,-1
    4fb8:	8ff9                	and	a5,a5,a4
    4fba:	4485                	li	s1,1
    4fbc:	0077f713          	andi	a4,a5,7
    4fc0:	e8071fe3          	bnez	a4,4e5e <__addsf3+0xc0>
    4fc4:	0037d313          	srli	t1,a5,0x3
    4fc8:	0ff00793          	li	a5,255
    4fcc:	f6f48ce3          	beq	s1,a5,4f44 <__addsf3+0x1a6>
    4fd0:	00931793          	slli	a5,t1,0x9
    4fd4:	83a5                	srli	a5,a5,0x9
    4fd6:	0ff4f513          	andi	a0,s1,255
    4fda:	864a                	mv	a2,s2
    4fdc:	b56d                	j	4e86 <__addsf3+0xe8>
    4fde:	864a                	mv	a2,s2
    4fe0:	0ff00513          	li	a0,255
    4fe4:	4781                	li	a5,0
    4fe6:	b545                	j	4e86 <__addsf3+0xe8>
    4fe8:	fc000737          	lui	a4,0xfc000
    4fec:	177d                	addi	a4,a4,-1
    4fee:	8ff9                	and	a5,a5,a4
    4ff0:	0077f713          	andi	a4,a5,7
    4ff4:	8c89                	sub	s1,s1,a0
    4ff6:	e60714e3          	bnez	a4,4e5e <__addsf3+0xc0>
    4ffa:	b7e9                	j	4fc4 <__addsf3+0x226>
    4ffc:	41de0433          	sub	s0,t3,t4
    5000:	00541793          	slli	a5,s0,0x5
    5004:	0c07c363          	bltz	a5,50ca <__addsf3+0x32c>
    5008:	e20412e3          	bnez	s0,4e2c <__addsf3+0x8e>
    500c:	4601                	li	a2,0
    500e:	4501                	li	a0,0
    5010:	4781                	li	a5,0
    5012:	bd95                	j	4e86 <__addsf3+0xe8>
    5014:	40980733          	sub	a4,a6,s1
    5018:	c4ad                	beqz	s1,5082 <__addsf3+0x2e4>
    501a:	0ff00793          	li	a5,255
    501e:	f4f808e3          	beq	a6,a5,4f6e <__addsf3+0x1d0>
    5022:	040007b7          	lui	a5,0x4000
    5026:	00fe6e33          	or	t3,t3,a5
    502a:	47ed                	li	a5,27
    502c:	0ce7cc63          	blt	a5,a4,5104 <__addsf3+0x366>
    5030:	02000793          	li	a5,32
    5034:	8f99                	sub	a5,a5,a4
    5036:	00fe17b3          	sll	a5,t3,a5
    503a:	00ee5733          	srl	a4,t3,a4
    503e:	00f037b3          	snez	a5,a5
    5042:	8fd9                	or	a5,a5,a4
    5044:	97f6                	add	a5,a5,t4
    5046:	84c2                	mv	s1,a6
    5048:	b5c9                	j	4f0a <__addsf3+0x16c>
    504a:	0ff00793          	li	a5,255
    504e:	f0f80fe3          	beq	a6,a5,4f6c <__addsf3+0x1ce>
    5052:	040007b7          	lui	a5,0x4000
    5056:	00fe6e33          	or	t3,t3,a5
    505a:	47ed                	li	a5,27
    505c:	08e7c363          	blt	a5,a4,50e2 <__addsf3+0x344>
    5060:	02000693          	li	a3,32
    5064:	8e99                	sub	a3,a3,a4
    5066:	00de16b3          	sll	a3,t3,a3
    506a:	00ee57b3          	srl	a5,t3,a4
    506e:	00d03733          	snez	a4,a3
    5072:	8fd9                	or	a5,a5,a4
    5074:	40fe87b3          	sub	a5,t4,a5
    5078:	84c2                	mv	s1,a6
    507a:	892e                	mv	s2,a1
    507c:	b345                	j	4e1c <__addsf3+0x7e>
    507e:	4785                	li	a5,1
    5080:	bb61                	j	4e18 <__addsf3+0x7a>
    5082:	060e0e63          	beqz	t3,50fe <__addsf3+0x360>
    5086:	177d                	addi	a4,a4,-1
    5088:	01de07b3          	add	a5,t3,t4
    508c:	84c2                	mv	s1,a6
    508e:	e6070ee3          	beqz	a4,4f0a <__addsf3+0x16c>
    5092:	0ff00793          	li	a5,255
    5096:	f8f81ae3          	bne	a6,a5,502a <__addsf3+0x28c>
    509a:	8336                	mv	t1,a3
    509c:	b565                	j	4f44 <__addsf3+0x1a6>
    509e:	8336                	mv	t1,a3
    50a0:	84c2                	mv	s1,a6
    50a2:	892e                	mv	s2,a1
    50a4:	b715                	j	4fc8 <__addsf3+0x22a>
    50a6:	ec0e04e3          	beqz	t3,4f6e <__addsf3+0x1d0>
    50aa:	e80e8de3          	beqz	t4,4f44 <__addsf3+0x1a6>
    50ae:	bd69                	j	4f48 <__addsf3+0x1aa>
    50b0:	020e8d63          	beqz	t4,50ea <__addsf3+0x34c>
    50b4:	862e                	mv	a2,a1
    50b6:	87b6                	mv	a5,a3
    50b8:	b3f9                	j	4e86 <__addsf3+0xe8>
    50ba:	0ff00793          	li	a5,255
    50be:	f2f481e3          	beq	s1,a5,4fe0 <__addsf3+0x242>
    50c2:	01de07b3          	add	a5,t3,t4
    50c6:	8385                	srli	a5,a5,0x1
    50c8:	bdd5                	j	4fbc <__addsf3+0x21e>
    50ca:	41ce8433          	sub	s0,t4,t3
    50ce:	892e                	mv	s2,a1
    50d0:	bbb1                	j	4e2c <__addsf3+0x8e>
    50d2:	fc0e1ce3          	bnez	t3,50aa <__addsf3+0x30c>
    50d6:	e60e89e3          	beqz	t4,4f48 <__addsf3+0x1aa>
    50da:	892e                	mv	s2,a1
    50dc:	bd49                	j	4f6e <__addsf3+0x1d0>
    50de:	4785                	li	a5,1
    50e0:	b525                	j	4f08 <__addsf3+0x16a>
    50e2:	4785                	li	a5,1
    50e4:	bf41                	j	5074 <__addsf3+0x2d6>
    50e6:	ec079be3          	bnez	a5,4fbc <__addsf3+0x21e>
    50ea:	4601                	li	a2,0
    50ec:	4781                	li	a5,0
    50ee:	bb61                	j	4e86 <__addsf3+0xe8>
    50f0:	41ce87b3          	sub	a5,t4,t3
    50f4:	84c2                	mv	s1,a6
    50f6:	892e                	mv	s2,a1
    50f8:	b315                	j	4e1c <__addsf3+0x7e>
    50fa:	87b6                	mv	a5,a3
    50fc:	b369                	j	4e86 <__addsf3+0xe8>
    50fe:	8336                	mv	t1,a3
    5100:	84c2                	mv	s1,a6
    5102:	b5d9                	j	4fc8 <__addsf3+0x22a>
    5104:	4785                	li	a5,1
    5106:	bf3d                	j	5044 <__addsf3+0x2a6>

00005108 <__divsf3>:
    5108:	7139                	addi	sp,sp,-64
    510a:	01755793          	srli	a5,a0,0x17
    510e:	d84a                	sw	s2,48(sp)
    5110:	d256                	sw	s5,36(sp)
    5112:	ce5e                	sw	s7,28(sp)
    5114:	00951a93          	slli	s5,a0,0x9
    5118:	01f55913          	srli	s2,a0,0x1f
    511c:	de06                	sw	ra,60(sp)
    511e:	dc22                	sw	s0,56(sp)
    5120:	da26                	sw	s1,52(sp)
    5122:	d64e                	sw	s3,44(sp)
    5124:	d452                	sw	s4,40(sp)
    5126:	d05a                	sw	s6,32(sp)
    5128:	0ff7f793          	andi	a5,a5,255
    512c:	009ada93          	srli	s5,s5,0x9
    5130:	8bca                	mv	s7,s2
    5132:	12078263          	beqz	a5,5256 <__divsf3+0x14e>
    5136:	0ff00713          	li	a4,255
    513a:	12e78463          	beq	a5,a4,5262 <__divsf3+0x15a>
    513e:	0a8e                	slli	s5,s5,0x3
    5140:	04000737          	lui	a4,0x4000
    5144:	00eaeab3          	or	s5,s5,a4
    5148:	f8178a13          	addi	s4,a5,-127 # 3ffff81 <_data_lma+0x3ff76ad>
    514c:	4401                	li	s0,0
    514e:	4b01                	li	s6,0
    5150:	0175d793          	srli	a5,a1,0x17
    5154:	00959493          	slli	s1,a1,0x9
    5158:	0ff7f793          	andi	a5,a5,255
    515c:	80a5                	srli	s1,s1,0x9
    515e:	01f5d993          	srli	s3,a1,0x1f
    5162:	c7fd                	beqz	a5,5250 <__divsf3+0x148>
    5164:	0ff00713          	li	a4,255
    5168:	02e78763          	beq	a5,a4,5196 <__divsf3+0x8e>
    516c:	048e                	slli	s1,s1,0x3
    516e:	f8178793          	addi	a5,a5,-127
    5172:	04000737          	lui	a4,0x4000
    5176:	8cd9                	or	s1,s1,a4
    5178:	40fa0a33          	sub	s4,s4,a5
    517c:	4681                	li	a3,0
    517e:	8c55                	or	s0,s0,a3
    5180:	00003717          	auipc	a4,0x3
    5184:	4f870713          	addi	a4,a4,1272 # 8678 <atanlo+0xa8>
    5188:	040a                	slli	s0,s0,0x2
    518a:	943a                	add	s0,s0,a4
    518c:	401c                	lw	a5,0(s0)
    518e:	01394933          	xor	s2,s2,s3
    5192:	97ba                	add	a5,a5,a4
    5194:	8782                	jr	a5
    5196:	f01a0a13          	addi	s4,s4,-255
    519a:	e8f9                	bnez	s1,5270 <__divsf3+0x168>
    519c:	4689                	li	a3,2
    519e:	8c55                	or	s0,s0,a3
    51a0:	00003717          	auipc	a4,0x3
    51a4:	51870713          	addi	a4,a4,1304 # 86b8 <atanlo+0xe8>
    51a8:	040a                	slli	s0,s0,0x2
    51aa:	943a                	add	s0,s0,a4
    51ac:	401c                	lw	a5,0(s0)
    51ae:	01394933          	xor	s2,s2,s3
    51b2:	97ba                	add	a5,a5,a4
    51b4:	8782                	jr	a5
    51b6:	4901                	li	s2,0
    51b8:	0ff00713          	li	a4,255
    51bc:	004007b7          	lui	a5,0x400
    51c0:	00979513          	slli	a0,a5,0x9
    51c4:	50f2                	lw	ra,60(sp)
    51c6:	5462                	lw	s0,56(sp)
    51c8:	01771793          	slli	a5,a4,0x17
    51cc:	8125                	srli	a0,a0,0x9
    51ce:	097e                	slli	s2,s2,0x1f
    51d0:	8d5d                	or	a0,a0,a5
    51d2:	01256533          	or	a0,a0,s2
    51d6:	54d2                	lw	s1,52(sp)
    51d8:	5942                	lw	s2,48(sp)
    51da:	59b2                	lw	s3,44(sp)
    51dc:	5a22                	lw	s4,40(sp)
    51de:	5a92                	lw	s5,36(sp)
    51e0:	5b02                	lw	s6,32(sp)
    51e2:	4bf2                	lw	s7,28(sp)
    51e4:	6121                	addi	sp,sp,64
    51e6:	8082                	ret
    51e8:	0ff00713          	li	a4,255
    51ec:	4781                	li	a5,0
    51ee:	bfc9                	j	51c0 <__divsf3+0xb8>
    51f0:	8aa6                	mv	s5,s1
    51f2:	8bce                	mv	s7,s3
    51f4:	8b36                	mv	s6,a3
    51f6:	4789                	li	a5,2
    51f8:	1afb0b63          	beq	s6,a5,53ae <__divsf3+0x2a6>
    51fc:	478d                	li	a5,3
    51fe:	fafb0ce3          	beq	s6,a5,51b6 <__divsf3+0xae>
    5202:	4785                	li	a5,1
    5204:	0afb0a63          	beq	s6,a5,52b8 <__divsf3+0x1b0>
    5208:	07fa0713          	addi	a4,s4,127
    520c:	001bf913          	andi	s2,s7,1
    5210:	12e05763          	blez	a4,533e <__divsf3+0x236>
    5214:	007af793          	andi	a5,s5,7
    5218:	c799                	beqz	a5,5226 <__divsf3+0x11e>
    521a:	00faf793          	andi	a5,s5,15
    521e:	4691                	li	a3,4
    5220:	00d78363          	beq	a5,a3,5226 <__divsf3+0x11e>
    5224:	0a91                	addi	s5,s5,4
    5226:	004a9793          	slli	a5,s5,0x4
    522a:	0007d963          	bgez	a5,523c <__divsf3+0x134>
    522e:	f80007b7          	lui	a5,0xf8000
    5232:	17fd                	addi	a5,a5,-1
    5234:	00fafab3          	and	s5,s5,a5
    5238:	080a0713          	addi	a4,s4,128
    523c:	0fe00793          	li	a5,254
    5240:	fae7c4e3          	blt	a5,a4,51e8 <__divsf3+0xe0>
    5244:	006a9793          	slli	a5,s5,0x6
    5248:	83a5                	srli	a5,a5,0x9
    524a:	0ff77713          	andi	a4,a4,255
    524e:	bf8d                	j	51c0 <__divsf3+0xb8>
    5250:	e4b9                	bnez	s1,529e <__divsf3+0x196>
    5252:	4685                	li	a3,1
    5254:	b7a9                	j	519e <__divsf3+0x96>
    5256:	020a9463          	bnez	s5,527e <__divsf3+0x176>
    525a:	4411                	li	s0,4
    525c:	4a01                	li	s4,0
    525e:	4b05                	li	s6,1
    5260:	bdc5                	j	5150 <__divsf3+0x48>
    5262:	000a9963          	bnez	s5,5274 <__divsf3+0x16c>
    5266:	4421                	li	s0,8
    5268:	0ff00a13          	li	s4,255
    526c:	4b09                	li	s6,2
    526e:	b5cd                	j	5150 <__divsf3+0x48>
    5270:	468d                	li	a3,3
    5272:	b731                	j	517e <__divsf3+0x76>
    5274:	4431                	li	s0,12
    5276:	0ff00a13          	li	s4,255
    527a:	4b0d                	li	s6,3
    527c:	bdd1                	j	5150 <__divsf3+0x48>
    527e:	8556                	mv	a0,s5
    5280:	c62e                	sw	a1,12(sp)
    5282:	3b7000ef          	jal	ra,5e38 <__clzsi2>
    5286:	ffb50793          	addi	a5,a0,-5
    528a:	00fa9ab3          	sll	s5,s5,a5
    528e:	f8a00793          	li	a5,-118
    5292:	40a78a33          	sub	s4,a5,a0
    5296:	4401                	li	s0,0
    5298:	4b01                	li	s6,0
    529a:	45b2                	lw	a1,12(sp)
    529c:	bd55                	j	5150 <__divsf3+0x48>
    529e:	8526                	mv	a0,s1
    52a0:	399000ef          	jal	ra,5e38 <__clzsi2>
    52a4:	ffb50713          	addi	a4,a0,-5
    52a8:	00aa07b3          	add	a5,s4,a0
    52ac:	00e494b3          	sll	s1,s1,a4
    52b0:	07678a13          	addi	s4,a5,118 # f8000076 <_eusrstack+0xd7ff8076>
    52b4:	4681                	li	a3,0
    52b6:	b5e1                	j	517e <__divsf3+0x76>
    52b8:	001bf913          	andi	s2,s7,1
    52bc:	4701                	li	a4,0
    52be:	4781                	li	a5,0
    52c0:	b701                	j	51c0 <__divsf3+0xb8>
    52c2:	6641                	lui	a2,0x10
    52c4:	00549513          	slli	a0,s1,0x5
    52c8:	167d                	addi	a2,a2,-1
    52ca:	01055793          	srli	a5,a0,0x10
    52ce:	8e69                	and	a2,a2,a0
    52d0:	0a9afa63          	bgeu	s5,s1,5384 <__divsf3+0x27c>
    52d4:	02fad5b3          	divu	a1,s5,a5
    52d8:	1a7d                	addi	s4,s4,-1
    52da:	86d6                	mv	a3,s5
    52dc:	4701                	li	a4,0
    52de:	02c58833          	mul	a6,a1,a2
    52e2:	02f6f6b3          	remu	a3,a3,a5
    52e6:	06c2                	slli	a3,a3,0x10
    52e8:	8f55                	or	a4,a4,a3
    52ea:	01077b63          	bgeu	a4,a6,5300 <__divsf3+0x1f8>
    52ee:	972a                	add	a4,a4,a0
    52f0:	fff58693          	addi	a3,a1,-1
    52f4:	0aa76863          	bltu	a4,a0,53a4 <__divsf3+0x29c>
    52f8:	0b077663          	bgeu	a4,a6,53a4 <__divsf3+0x29c>
    52fc:	15f9                	addi	a1,a1,-2
    52fe:	972a                	add	a4,a4,a0
    5300:	41070733          	sub	a4,a4,a6
    5304:	02f756b3          	divu	a3,a4,a5
    5308:	02f77733          	remu	a4,a4,a5
    530c:	02c68ab3          	mul	s5,a3,a2
    5310:	01071793          	slli	a5,a4,0x10
    5314:	0157fb63          	bgeu	a5,s5,532a <__divsf3+0x222>
    5318:	97aa                	add	a5,a5,a0
    531a:	fff68713          	addi	a4,a3,-1 # 7dffffff <_eusrstack+0x5dff7fff>
    531e:	08a7e163          	bltu	a5,a0,53a0 <__divsf3+0x298>
    5322:	0757ff63          	bgeu	a5,s5,53a0 <__divsf3+0x298>
    5326:	16f9                	addi	a3,a3,-2
    5328:	97aa                	add	a5,a5,a0
    532a:	05c2                	slli	a1,a1,0x10
    532c:	41578ab3          	sub	s5,a5,s5
    5330:	8dd5                	or	a1,a1,a3
    5332:	01503ab3          	snez	s5,s5
    5336:	0155eab3          	or	s5,a1,s5
    533a:	8bca                	mv	s7,s2
    533c:	b5f1                	j	5208 <__divsf3+0x100>
    533e:	4685                	li	a3,1
    5340:	8e99                	sub	a3,a3,a4
    5342:	c711                	beqz	a4,534e <__divsf3+0x246>
    5344:	466d                	li	a2,27
    5346:	4701                	li	a4,0
    5348:	4781                	li	a5,0
    534a:	e6d64be3          	blt	a2,a3,51c0 <__divsf3+0xb8>
    534e:	09ea0a13          	addi	s4,s4,158
    5352:	014a9a33          	sll	s4,s5,s4
    5356:	00dad7b3          	srl	a5,s5,a3
    535a:	01403ab3          	snez	s5,s4
    535e:	0157e7b3          	or	a5,a5,s5
    5362:	0077f713          	andi	a4,a5,7
    5366:	c719                	beqz	a4,5374 <__divsf3+0x26c>
    5368:	00f7f713          	andi	a4,a5,15
    536c:	4691                	li	a3,4
    536e:	00d70363          	beq	a4,a3,5374 <__divsf3+0x26c>
    5372:	0791                	addi	a5,a5,4
    5374:	00579713          	slli	a4,a5,0x5
    5378:	02074863          	bltz	a4,53a8 <__divsf3+0x2a0>
    537c:	079a                	slli	a5,a5,0x6
    537e:	83a5                	srli	a5,a5,0x9
    5380:	4701                	li	a4,0
    5382:	bd3d                	j	51c0 <__divsf3+0xb8>
    5384:	001ad693          	srli	a3,s5,0x1
    5388:	02f6d5b3          	divu	a1,a3,a5
    538c:	01fa9713          	slli	a4,s5,0x1f
    5390:	8341                	srli	a4,a4,0x10
    5392:	02c58833          	mul	a6,a1,a2
    5396:	b7b1                	j	52e2 <__divsf3+0x1da>
    5398:	8bce                	mv	s7,s3
    539a:	8b36                	mv	s6,a3
    539c:	4a81                	li	s5,0
    539e:	bda1                	j	51f6 <__divsf3+0xee>
    53a0:	86ba                	mv	a3,a4
    53a2:	b761                	j	532a <__divsf3+0x222>
    53a4:	85b6                	mv	a1,a3
    53a6:	bfa9                	j	5300 <__divsf3+0x1f8>
    53a8:	4705                	li	a4,1
    53aa:	4781                	li	a5,0
    53ac:	bd11                	j	51c0 <__divsf3+0xb8>
    53ae:	001bf913          	andi	s2,s7,1
    53b2:	0ff00713          	li	a4,255
    53b6:	4781                	li	a5,0
    53b8:	b521                	j	51c0 <__divsf3+0xb8>

000053ba <__mulsf3>:
    53ba:	7179                	addi	sp,sp,-48
    53bc:	d422                	sw	s0,40(sp)
    53be:	01755413          	srli	s0,a0,0x17
    53c2:	ce4e                	sw	s3,28(sp)
    53c4:	cc52                	sw	s4,24(sp)
    53c6:	00951993          	slli	s3,a0,0x9
    53ca:	d606                	sw	ra,44(sp)
    53cc:	d226                	sw	s1,36(sp)
    53ce:	d04a                	sw	s2,32(sp)
    53d0:	ca56                	sw	s5,20(sp)
    53d2:	c85a                	sw	s6,16(sp)
    53d4:	0ff47413          	andi	s0,s0,255
    53d8:	0099d993          	srli	s3,s3,0x9
    53dc:	01f55a13          	srli	s4,a0,0x1f
    53e0:	c469                	beqz	s0,54aa <__mulsf3+0xf0>
    53e2:	0ff00793          	li	a5,255
    53e6:	0ef40863          	beq	s0,a5,54d6 <__mulsf3+0x11c>
    53ea:	00399793          	slli	a5,s3,0x3
    53ee:	04000737          	lui	a4,0x4000
    53f2:	00e7e9b3          	or	s3,a5,a4
    53f6:	f8140413          	addi	s0,s0,-127 # 3ffff81 <_data_lma+0x3ff76ad>
    53fa:	4481                	li	s1,0
    53fc:	4b01                	li	s6,0
    53fe:	0175d713          	srli	a4,a1,0x17
    5402:	00959a93          	slli	s5,a1,0x9
    5406:	0ff77713          	andi	a4,a4,255
    540a:	009ada93          	srli	s5,s5,0x9
    540e:	01f5d913          	srli	s2,a1,0x1f
    5412:	cf45                	beqz	a4,54ca <__mulsf3+0x110>
    5414:	0ff00793          	li	a5,255
    5418:	02f70c63          	beq	a4,a5,5450 <__mulsf3+0x96>
    541c:	0a8e                	slli	s5,s5,0x3
    541e:	f8170713          	addi	a4,a4,-127 # 3ffff81 <_data_lma+0x3ff76ad>
    5422:	040007b7          	lui	a5,0x4000
    5426:	00faeab3          	or	s5,s5,a5
    542a:	943a                	add	s0,s0,a4
    542c:	4601                	li	a2,0
    542e:	012a4533          	xor	a0,s4,s2
    5432:	47bd                	li	a5,15
    5434:	86aa                	mv	a3,a0
    5436:	00140593          	addi	a1,s0,1
    543a:	1097e263          	bltu	a5,s1,553e <__mulsf3+0x184>
    543e:	00003717          	auipc	a4,0x3
    5442:	2ba70713          	addi	a4,a4,698 # 86f8 <atanlo+0x128>
    5446:	048a                	slli	s1,s1,0x2
    5448:	94ba                	add	s1,s1,a4
    544a:	409c                	lw	a5,0(s1)
    544c:	97ba                	add	a5,a5,a4
    544e:	8782                	jr	a5
    5450:	0ff40413          	addi	s0,s0,255
    5454:	0c0a9863          	bnez	s5,5524 <__mulsf3+0x16a>
    5458:	0024e493          	ori	s1,s1,2
    545c:	4609                	li	a2,2
    545e:	bfc1                	j	542e <__mulsf3+0x74>
    5460:	4501                	li	a0,0
    5462:	0ff00713          	li	a4,255
    5466:	004007b7          	lui	a5,0x400
    546a:	50b2                	lw	ra,44(sp)
    546c:	5422                	lw	s0,40(sp)
    546e:	07a6                	slli	a5,a5,0x9
    5470:	075e                	slli	a4,a4,0x17
    5472:	83a5                	srli	a5,a5,0x9
    5474:	057e                	slli	a0,a0,0x1f
    5476:	8fd9                	or	a5,a5,a4
    5478:	5492                	lw	s1,36(sp)
    547a:	5902                	lw	s2,32(sp)
    547c:	49f2                	lw	s3,28(sp)
    547e:	4a62                	lw	s4,24(sp)
    5480:	4ad2                	lw	s5,20(sp)
    5482:	4b42                	lw	s6,16(sp)
    5484:	8d5d                	or	a0,a0,a5
    5486:	6145                	addi	sp,sp,48
    5488:	8082                	ret
    548a:	86ca                	mv	a3,s2
    548c:	89d6                	mv	s3,s5
    548e:	8b32                	mv	s6,a2
    5490:	4789                	li	a5,2
    5492:	0afb0163          	beq	s6,a5,5534 <__mulsf3+0x17a>
    5496:	478d                	li	a5,3
    5498:	fcfb04e3          	beq	s6,a5,5460 <__mulsf3+0xa6>
    549c:	4785                	li	a5,1
    549e:	8536                	mv	a0,a3
    54a0:	1afb1263          	bne	s6,a5,5644 <__mulsf3+0x28a>
    54a4:	4701                	li	a4,0
    54a6:	4781                	li	a5,0
    54a8:	b7c9                	j	546a <__mulsf3+0xb0>
    54aa:	04099e63          	bnez	s3,5506 <__mulsf3+0x14c>
    54ae:	0175d713          	srli	a4,a1,0x17
    54b2:	00959a93          	slli	s5,a1,0x9
    54b6:	0ff77713          	andi	a4,a4,255
    54ba:	4491                	li	s1,4
    54bc:	4401                	li	s0,0
    54be:	4b05                	li	s6,1
    54c0:	009ada93          	srli	s5,s5,0x9
    54c4:	01f5d913          	srli	s2,a1,0x1f
    54c8:	f731                	bnez	a4,5414 <__mulsf3+0x5a>
    54ca:	000a9d63          	bnez	s5,54e4 <__mulsf3+0x12a>
    54ce:	0014e493          	ori	s1,s1,1
    54d2:	4605                	li	a2,1
    54d4:	bfa9                	j	542e <__mulsf3+0x74>
    54d6:	02099363          	bnez	s3,54fc <__mulsf3+0x142>
    54da:	44a1                	li	s1,8
    54dc:	0ff00413          	li	s0,255
    54e0:	4b09                	li	s6,2
    54e2:	bf31                	j	53fe <__mulsf3+0x44>
    54e4:	8556                	mv	a0,s5
    54e6:	153000ef          	jal	ra,5e38 <__clzsi2>
    54ea:	ffb50793          	addi	a5,a0,-5
    54ee:	8c09                	sub	s0,s0,a0
    54f0:	00fa9ab3          	sll	s5,s5,a5
    54f4:	f8a40413          	addi	s0,s0,-118
    54f8:	4601                	li	a2,0
    54fa:	bf15                	j	542e <__mulsf3+0x74>
    54fc:	44b1                	li	s1,12
    54fe:	0ff00413          	li	s0,255
    5502:	4b0d                	li	s6,3
    5504:	bded                	j	53fe <__mulsf3+0x44>
    5506:	854e                	mv	a0,s3
    5508:	c62e                	sw	a1,12(sp)
    550a:	12f000ef          	jal	ra,5e38 <__clzsi2>
    550e:	ffb50793          	addi	a5,a0,-5
    5512:	f8a00413          	li	s0,-118
    5516:	00f999b3          	sll	s3,s3,a5
    551a:	8c09                	sub	s0,s0,a0
    551c:	4481                	li	s1,0
    551e:	4b01                	li	s6,0
    5520:	45b2                	lw	a1,12(sp)
    5522:	bdf1                	j	53fe <__mulsf3+0x44>
    5524:	0034e493          	ori	s1,s1,3
    5528:	460d                	li	a2,3
    552a:	b711                	j	542e <__mulsf3+0x74>
    552c:	4789                	li	a5,2
    552e:	86d2                	mv	a3,s4
    5530:	f6fb13e3          	bne	s6,a5,5496 <__mulsf3+0xdc>
    5534:	8536                	mv	a0,a3
    5536:	0ff00713          	li	a4,255
    553a:	4781                	li	a5,0
    553c:	b73d                	j	546a <__mulsf3+0xb0>
    553e:	6341                	lui	t1,0x10
    5540:	fff30693          	addi	a3,t1,-1 # ffff <_data_lma+0x772b>
    5544:	0109d613          	srli	a2,s3,0x10
    5548:	010ad893          	srli	a7,s5,0x10
    554c:	00d9f7b3          	and	a5,s3,a3
    5550:	00dafab3          	and	s5,s5,a3
    5554:	03578833          	mul	a6,a5,s5
    5558:	02f889b3          	mul	s3,a7,a5
    555c:	01085713          	srli	a4,a6,0x10
    5560:	03560ab3          	mul	s5,a2,s5
    5564:	99d6                	add	s3,s3,s5
    5566:	974e                	add	a4,a4,s3
    5568:	03160633          	mul	a2,a2,a7
    556c:	01577363          	bgeu	a4,s5,5572 <__mulsf3+0x1b8>
    5570:	961a                	add	a2,a2,t1
    5572:	67c1                	lui	a5,0x10
    5574:	17fd                	addi	a5,a5,-1
    5576:	00f776b3          	and	a3,a4,a5
    557a:	00f87833          	and	a6,a6,a5
    557e:	06c2                	slli	a3,a3,0x10
    5580:	96c2                	add	a3,a3,a6
    5582:	00669993          	slli	s3,a3,0x6
    5586:	01075793          	srli	a5,a4,0x10
    558a:	013039b3          	snez	s3,s3
    558e:	82e9                	srli	a3,a3,0x1a
    5590:	97b2                	add	a5,a5,a2
    5592:	079a                	slli	a5,a5,0x6
    5594:	00d9e6b3          	or	a3,s3,a3
    5598:	00d7e9b3          	or	s3,a5,a3
    559c:	00499793          	slli	a5,s3,0x4
    55a0:	0007d963          	bgez	a5,55b2 <__mulsf3+0x1f8>
    55a4:	0019d713          	srli	a4,s3,0x1
    55a8:	0019f793          	andi	a5,s3,1
    55ac:	00f769b3          	or	s3,a4,a5
    55b0:	842e                	mv	s0,a1
    55b2:	07f40713          	addi	a4,s0,127
    55b6:	04e05063          	blez	a4,55f6 <__mulsf3+0x23c>
    55ba:	0079f793          	andi	a5,s3,7
    55be:	c799                	beqz	a5,55cc <__mulsf3+0x212>
    55c0:	00f9f793          	andi	a5,s3,15
    55c4:	4691                	li	a3,4
    55c6:	00d78363          	beq	a5,a3,55cc <__mulsf3+0x212>
    55ca:	0991                	addi	s3,s3,4
    55cc:	00499793          	slli	a5,s3,0x4
    55d0:	0007d963          	bgez	a5,55e2 <__mulsf3+0x228>
    55d4:	f80007b7          	lui	a5,0xf8000
    55d8:	17fd                	addi	a5,a5,-1
    55da:	00f9f9b3          	and	s3,s3,a5
    55de:	08040713          	addi	a4,s0,128
    55e2:	0fe00793          	li	a5,254
    55e6:	04e7cb63          	blt	a5,a4,563c <__mulsf3+0x282>
    55ea:	00699793          	slli	a5,s3,0x6
    55ee:	83a5                	srli	a5,a5,0x9
    55f0:	0ff77713          	andi	a4,a4,255
    55f4:	bd9d                	j	546a <__mulsf3+0xb0>
    55f6:	4785                	li	a5,1
    55f8:	40e786b3          	sub	a3,a5,a4
    55fc:	c711                	beqz	a4,5608 <__mulsf3+0x24e>
    55fe:	466d                	li	a2,27
    5600:	4701                	li	a4,0
    5602:	4781                	li	a5,0
    5604:	e6d643e3          	blt	a2,a3,546a <__mulsf3+0xb0>
    5608:	09e40713          	addi	a4,s0,158
    560c:	00e99733          	sll	a4,s3,a4
    5610:	00e03733          	snez	a4,a4
    5614:	00d9d7b3          	srl	a5,s3,a3
    5618:	8fd9                	or	a5,a5,a4
    561a:	0077f713          	andi	a4,a5,7
    561e:	c719                	beqz	a4,562c <__mulsf3+0x272>
    5620:	00f7f713          	andi	a4,a5,15
    5624:	4691                	li	a3,4
    5626:	00d70363          	beq	a4,a3,562c <__mulsf3+0x272>
    562a:	0791                	addi	a5,a5,4
    562c:	00579713          	slli	a4,a5,0x5
    5630:	00074c63          	bltz	a4,5648 <__mulsf3+0x28e>
    5634:	079a                	slli	a5,a5,0x6
    5636:	83a5                	srli	a5,a5,0x9
    5638:	4701                	li	a4,0
    563a:	bd05                	j	546a <__mulsf3+0xb0>
    563c:	0ff00713          	li	a4,255
    5640:	4781                	li	a5,0
    5642:	b525                	j	546a <__mulsf3+0xb0>
    5644:	842e                	mv	s0,a1
    5646:	b7b5                	j	55b2 <__mulsf3+0x1f8>
    5648:	4705                	li	a4,1
    564a:	4781                	li	a5,0
    564c:	bd39                	j	546a <__mulsf3+0xb0>

0000564e <__subsf3>:
    564e:	00800737          	lui	a4,0x800
    5652:	1141                	addi	sp,sp,-16
    5654:	177d                	addi	a4,a4,-1
    5656:	01755693          	srli	a3,a0,0x17
    565a:	0175d813          	srli	a6,a1,0x17
    565e:	00a777b3          	and	a5,a4,a0
    5662:	0ff6f693          	andi	a3,a3,255
    5666:	01f55e93          	srli	t4,a0,0x1f
    566a:	00b77633          	and	a2,a4,a1
    566e:	c226                	sw	s1,4(sp)
    5670:	c04a                	sw	s2,0(sp)
    5672:	0ff87813          	andi	a6,a6,255
    5676:	c606                	sw	ra,12(sp)
    5678:	c422                	sw	s0,8(sp)
    567a:	0ff00313          	li	t1,255
    567e:	8e3e                	mv	t3,a5
    5680:	8936                	mv	s2,a3
    5682:	84f6                	mv	s1,t4
    5684:	00379f13          	slli	t5,a5,0x3
    5688:	81fd                	srli	a1,a1,0x1f
    568a:	00361513          	slli	a0,a2,0x3
    568e:	410688b3          	sub	a7,a3,a6
    5692:	10680263          	beq	a6,t1,5796 <__subsf3+0x148>
    5696:	0015c593          	xori	a1,a1,1
    569a:	10be8c63          	beq	t4,a1,57b2 <__subsf3+0x164>
    569e:	0d105463          	blez	a7,5766 <__subsf3+0x118>
    56a2:	10081063          	bnez	a6,57a2 <__subsf3+0x154>
    56a6:	1e050463          	beqz	a0,588e <__subsf3+0x240>
    56aa:	18fd                	addi	a7,a7,-1
    56ac:	40af07b3          	sub	a5,t5,a0
    56b0:	02088663          	beqz	a7,56dc <__subsf3+0x8e>
    56b4:	0ff00793          	li	a5,255
    56b8:	16f68863          	beq	a3,a5,5828 <__subsf3+0x1da>
    56bc:	47ed                	li	a5,27
    56be:	2917c763          	blt	a5,a7,594c <__subsf3+0x2fe>
    56c2:	02000713          	li	a4,32
    56c6:	41170733          	sub	a4,a4,a7
    56ca:	00e51733          	sll	a4,a0,a4
    56ce:	011557b3          	srl	a5,a0,a7
    56d2:	00e03733          	snez	a4,a4
    56d6:	8fd9                	or	a5,a5,a4
    56d8:	40ff07b3          	sub	a5,t5,a5
    56dc:	00579713          	slli	a4,a5,0x5
    56e0:	1a075163          	bgez	a4,5882 <__subsf3+0x234>
    56e4:	04000437          	lui	s0,0x4000
    56e8:	147d                	addi	s0,s0,-1
    56ea:	8c7d                	and	s0,s0,a5
    56ec:	8522                	mv	a0,s0
    56ee:	27a9                	jal	5e38 <__clzsi2>
    56f0:	156d                	addi	a0,a0,-5
    56f2:	00a417b3          	sll	a5,s0,a0
    56f6:	1b254e63          	blt	a0,s2,58b2 <__subsf3+0x264>
    56fa:	41250533          	sub	a0,a0,s2
    56fe:	00150413          	addi	s0,a0,1
    5702:	02000713          	li	a4,32
    5706:	8f01                	sub	a4,a4,s0
    5708:	00e79733          	sll	a4,a5,a4
    570c:	00e03733          	snez	a4,a4
    5710:	0087d7b3          	srl	a5,a5,s0
    5714:	8fd9                	or	a5,a5,a4
    5716:	4901                	li	s2,0
    5718:	0077f713          	andi	a4,a5,7
    571c:	c719                	beqz	a4,572a <__subsf3+0xdc>
    571e:	00f7f713          	andi	a4,a5,15
    5722:	4691                	li	a3,4
    5724:	00d70363          	beq	a4,a3,572a <__subsf3+0xdc>
    5728:	0791                	addi	a5,a5,4
    572a:	00579713          	slli	a4,a5,0x5
    572e:	14075e63          	bgez	a4,588a <__subsf3+0x23c>
    5732:	00190693          	addi	a3,s2,1 # 800001 <_data_lma+0x7f772d>
    5736:	0ff00713          	li	a4,255
    573a:	0014fe93          	andi	t4,s1,1
    573e:	16e68663          	beq	a3,a4,58aa <__subsf3+0x25c>
    5742:	079a                	slli	a5,a5,0x6
    5744:	83a5                	srli	a5,a5,0x9
    5746:	0ff6f693          	andi	a3,a3,255
    574a:	07a6                	slli	a5,a5,0x9
    574c:	40b2                	lw	ra,12(sp)
    574e:	4422                	lw	s0,8(sp)
    5750:	0097d513          	srli	a0,a5,0x9
    5754:	06de                	slli	a3,a3,0x17
    5756:	01fe9793          	slli	a5,t4,0x1f
    575a:	8d55                	or	a0,a0,a3
    575c:	4492                	lw	s1,4(sp)
    575e:	4902                	lw	s2,0(sp)
    5760:	8d5d                	or	a0,a0,a5
    5762:	0141                	addi	sp,sp,16
    5764:	8082                	ret
    5766:	0a089263          	bnez	a7,580a <__subsf3+0x1bc>
    576a:	00168713          	addi	a4,a3,1
    576e:	0fe77713          	andi	a4,a4,254
    5772:	14071b63          	bnez	a4,58c8 <__subsf3+0x27a>
    5776:	22069463          	bnez	a3,599e <__subsf3+0x350>
    577a:	200f0263          	beqz	t5,597e <__subsf3+0x330>
    577e:	d571                	beqz	a0,574a <__subsf3+0xfc>
    5780:	40af07b3          	sub	a5,t5,a0
    5784:	00579713          	slli	a4,a5,0x5
    5788:	22075563          	bgez	a4,59b2 <__subsf3+0x364>
    578c:	41e507b3          	sub	a5,a0,t5
    5790:	4901                	li	s2,0
    5792:	84ae                	mv	s1,a1
    5794:	b751                	j	5718 <__subsf3+0xca>
    5796:	f00500e3          	beqz	a0,5696 <__subsf3+0x48>
    579a:	0abe8a63          	beq	t4,a1,584e <__subsf3+0x200>
    579e:	fd1054e3          	blez	a7,5766 <__subsf3+0x118>
    57a2:	0ff00793          	li	a5,255
    57a6:	08f68163          	beq	a3,a5,5828 <__subsf3+0x1da>
    57aa:	040007b7          	lui	a5,0x4000
    57ae:	8d5d                	or	a0,a0,a5
    57b0:	b731                	j	56bc <__subsf3+0x6e>
    57b2:	09105e63          	blez	a7,584e <__subsf3+0x200>
    57b6:	08080163          	beqz	a6,5838 <__subsf3+0x1ea>
    57ba:	0ff00793          	li	a5,255
    57be:	06f68563          	beq	a3,a5,5828 <__subsf3+0x1da>
    57c2:	040007b7          	lui	a5,0x4000
    57c6:	8d5d                	or	a0,a0,a5
    57c8:	47ed                	li	a5,27
    57ca:	1f17c063          	blt	a5,a7,59aa <__subsf3+0x35c>
    57ce:	02000713          	li	a4,32
    57d2:	41170733          	sub	a4,a4,a7
    57d6:	00e51733          	sll	a4,a0,a4
    57da:	011557b3          	srl	a5,a0,a7
    57de:	00e03733          	snez	a4,a4
    57e2:	8fd9                	or	a5,a5,a4
    57e4:	97fa                	add	a5,a5,t5
    57e6:	00579713          	slli	a4,a5,0x5
    57ea:	08075c63          	bgez	a4,5882 <__subsf3+0x234>
    57ee:	0905                	addi	s2,s2,1
    57f0:	0ff00713          	li	a4,255
    57f4:	0ae90b63          	beq	s2,a4,58aa <__subsf3+0x25c>
    57f8:	7e0006b7          	lui	a3,0x7e000
    57fc:	0017d713          	srli	a4,a5,0x1
    5800:	16fd                	addi	a3,a3,-1
    5802:	8b85                	andi	a5,a5,1
    5804:	8f75                	and	a4,a4,a3
    5806:	8fd9                	or	a5,a5,a4
    5808:	bf01                	j	5718 <__subsf3+0xca>
    580a:	40d80733          	sub	a4,a6,a3
    580e:	10069563          	bnez	a3,5918 <__subsf3+0x2ca>
    5812:	140f0d63          	beqz	t5,596c <__subsf3+0x31e>
    5816:	177d                	addi	a4,a4,-1
    5818:	1a070363          	beqz	a4,59be <__subsf3+0x370>
    581c:	0ff00793          	li	a5,255
    5820:	10f81463          	bne	a6,a5,5928 <__subsf3+0x2da>
    5824:	84ae                	mv	s1,a1
    5826:	8e32                	mv	t3,a2
    5828:	060e0f63          	beqz	t3,58a6 <__subsf3+0x258>
    582c:	4e81                	li	t4,0
    582e:	0ff00693          	li	a3,255
    5832:	004007b7          	lui	a5,0x400
    5836:	bf11                	j	574a <__subsf3+0xfc>
    5838:	c939                	beqz	a0,588e <__subsf3+0x240>
    583a:	18fd                	addi	a7,a7,-1
    583c:	00af07b3          	add	a5,t5,a0
    5840:	fa0883e3          	beqz	a7,57e6 <__subsf3+0x198>
    5844:	0ff00793          	li	a5,255
    5848:	f8f690e3          	bne	a3,a5,57c8 <__subsf3+0x17a>
    584c:	bff1                	j	5828 <__subsf3+0x1da>
    584e:	08089963          	bnez	a7,58e0 <__subsf3+0x292>
    5852:	00168913          	addi	s2,a3,1 # 7e000001 <_eusrstack+0x5dff8001>
    5856:	0fe97713          	andi	a4,s2,254
    585a:	12071663          	bnez	a4,5986 <__subsf3+0x338>
    585e:	10069b63          	bnez	a3,5974 <__subsf3+0x326>
    5862:	160f0363          	beqz	t5,59c8 <__subsf3+0x37a>
    5866:	ee0502e3          	beqz	a0,574a <__subsf3+0xfc>
    586a:	00af07b3          	add	a5,t5,a0
    586e:	00579713          	slli	a4,a5,0x5
    5872:	4901                	li	s2,0
    5874:	00075763          	bgez	a4,5882 <__subsf3+0x234>
    5878:	fc000737          	lui	a4,0xfc000
    587c:	177d                	addi	a4,a4,-1
    587e:	8ff9                	and	a5,a5,a4
    5880:	4905                	li	s2,1
    5882:	0077f713          	andi	a4,a5,7
    5886:	e8071ce3          	bnez	a4,571e <__subsf3+0xd0>
    588a:	0037de13          	srli	t3,a5,0x3
    588e:	0ff00793          	li	a5,255
    5892:	f8f90be3          	beq	s2,a5,5828 <__subsf3+0x1da>
    5896:	009e1793          	slli	a5,t3,0x9
    589a:	83a5                	srli	a5,a5,0x9
    589c:	0ff97693          	andi	a3,s2,255
    58a0:	0014fe93          	andi	t4,s1,1
    58a4:	b55d                	j	574a <__subsf3+0xfc>
    58a6:	0014fe93          	andi	t4,s1,1
    58aa:	0ff00693          	li	a3,255
    58ae:	4781                	li	a5,0
    58b0:	bd69                	j	574a <__subsf3+0xfc>
    58b2:	fc000737          	lui	a4,0xfc000
    58b6:	177d                	addi	a4,a4,-1
    58b8:	8ff9                	and	a5,a5,a4
    58ba:	0077f713          	andi	a4,a5,7
    58be:	40a90933          	sub	s2,s2,a0
    58c2:	e4071ee3          	bnez	a4,571e <__subsf3+0xd0>
    58c6:	b7d1                	j	588a <__subsf3+0x23c>
    58c8:	40af0433          	sub	s0,t5,a0
    58cc:	00541793          	slli	a5,s0,0x5
    58d0:	0c07c363          	bltz	a5,5996 <__subsf3+0x348>
    58d4:	e0041ce3          	bnez	s0,56ec <__subsf3+0x9e>
    58d8:	4e81                	li	t4,0
    58da:	4681                	li	a3,0
    58dc:	4781                	li	a5,0
    58de:	b5b5                	j	574a <__subsf3+0xfc>
    58e0:	40d80733          	sub	a4,a6,a3
    58e4:	c6b5                	beqz	a3,5950 <__subsf3+0x302>
    58e6:	0ff00793          	li	a5,255
    58ea:	f2f80ee3          	beq	a6,a5,5826 <__subsf3+0x1d8>
    58ee:	040007b7          	lui	a5,0x4000
    58f2:	00ff6f33          	or	t5,t5,a5
    58f6:	47ed                	li	a5,27
    58f8:	0ce7cd63          	blt	a5,a4,59d2 <__subsf3+0x384>
    58fc:	02000793          	li	a5,32
    5900:	8f99                	sub	a5,a5,a4
    5902:	00ff17b3          	sll	a5,t5,a5
    5906:	00ef5733          	srl	a4,t5,a4
    590a:	00f037b3          	snez	a5,a5
    590e:	8f5d                	or	a4,a4,a5
    5910:	00a707b3          	add	a5,a4,a0
    5914:	8942                	mv	s2,a6
    5916:	bdc1                	j	57e6 <__subsf3+0x198>
    5918:	0ff00793          	li	a5,255
    591c:	f0f804e3          	beq	a6,a5,5824 <__subsf3+0x1d6>
    5920:	040007b7          	lui	a5,0x4000
    5924:	00ff6f33          	or	t5,t5,a5
    5928:	47ed                	li	a5,27
    592a:	08e7c263          	blt	a5,a4,59ae <__subsf3+0x360>
    592e:	02000793          	li	a5,32
    5932:	8f99                	sub	a5,a5,a4
    5934:	00ff17b3          	sll	a5,t5,a5
    5938:	00ef5733          	srl	a4,t5,a4
    593c:	00f037b3          	snez	a5,a5
    5940:	8fd9                	or	a5,a5,a4
    5942:	40f507b3          	sub	a5,a0,a5
    5946:	8942                	mv	s2,a6
    5948:	84ae                	mv	s1,a1
    594a:	bb49                	j	56dc <__subsf3+0x8e>
    594c:	4785                	li	a5,1
    594e:	b369                	j	56d8 <__subsf3+0x8a>
    5950:	060f0e63          	beqz	t5,59cc <__subsf3+0x37e>
    5954:	177d                	addi	a4,a4,-1
    5956:	00af07b3          	add	a5,t5,a0
    595a:	8942                	mv	s2,a6
    595c:	e80705e3          	beqz	a4,57e6 <__subsf3+0x198>
    5960:	0ff00793          	li	a5,255
    5964:	f8f819e3          	bne	a6,a5,58f6 <__subsf3+0x2a8>
    5968:	8e32                	mv	t3,a2
    596a:	bd7d                	j	5828 <__subsf3+0x1da>
    596c:	8e32                	mv	t3,a2
    596e:	8942                	mv	s2,a6
    5970:	84ae                	mv	s1,a1
    5972:	bf31                	j	588e <__subsf3+0x240>
    5974:	ea0f09e3          	beqz	t5,5826 <__subsf3+0x1d8>
    5978:	ea0508e3          	beqz	a0,5828 <__subsf3+0x1da>
    597c:	bd45                	j	582c <__subsf3+0x1de>
    597e:	cd0d                	beqz	a0,59b8 <__subsf3+0x36a>
    5980:	8eae                	mv	t4,a1
    5982:	87b2                	mv	a5,a2
    5984:	b3d9                	j	574a <__subsf3+0xfc>
    5986:	0ff00793          	li	a5,255
    598a:	f2f900e3          	beq	s2,a5,58aa <__subsf3+0x25c>
    598e:	00af07b3          	add	a5,t5,a0
    5992:	8385                	srli	a5,a5,0x1
    5994:	b5fd                	j	5882 <__subsf3+0x234>
    5996:	41e50433          	sub	s0,a0,t5
    599a:	84ae                	mv	s1,a1
    599c:	bb81                	j	56ec <__subsf3+0x9e>
    599e:	fc0f1de3          	bnez	t5,5978 <__subsf3+0x32a>
    59a2:	e80505e3          	beqz	a0,582c <__subsf3+0x1de>
    59a6:	84ae                	mv	s1,a1
    59a8:	bdbd                	j	5826 <__subsf3+0x1d8>
    59aa:	4785                	li	a5,1
    59ac:	bd25                	j	57e4 <__subsf3+0x196>
    59ae:	4785                	li	a5,1
    59b0:	bf49                	j	5942 <__subsf3+0x2f4>
    59b2:	4901                	li	s2,0
    59b4:	ec0797e3          	bnez	a5,5882 <__subsf3+0x234>
    59b8:	4e81                	li	t4,0
    59ba:	4781                	li	a5,0
    59bc:	b379                	j	574a <__subsf3+0xfc>
    59be:	41e507b3          	sub	a5,a0,t5
    59c2:	8942                	mv	s2,a6
    59c4:	84ae                	mv	s1,a1
    59c6:	bb19                	j	56dc <__subsf3+0x8e>
    59c8:	87b2                	mv	a5,a2
    59ca:	b341                	j	574a <__subsf3+0xfc>
    59cc:	8e32                	mv	t3,a2
    59ce:	8942                	mv	s2,a6
    59d0:	bd7d                	j	588e <__subsf3+0x240>
    59d2:	4705                	li	a4,1
    59d4:	bf35                	j	5910 <__subsf3+0x2c2>

000059d6 <__fixsfsi>:
    59d6:	00800637          	lui	a2,0x800
    59da:	01755713          	srli	a4,a0,0x17
    59de:	fff60793          	addi	a5,a2,-1 # 7fffff <_data_lma+0x7f772b>
    59e2:	0ff77713          	andi	a4,a4,255
    59e6:	07e00593          	li	a1,126
    59ea:	00a7f6b3          	and	a3,a5,a0
    59ee:	01f55793          	srli	a5,a0,0x1f
    59f2:	00e5fc63          	bgeu	a1,a4,5a0a <__fixsfsi+0x34>
    59f6:	09d00593          	li	a1,157
    59fa:	00e5fa63          	bgeu	a1,a4,5a0e <__fixsfsi+0x38>
    59fe:	80000537          	lui	a0,0x80000
    5a02:	fff54513          	not	a0,a0
    5a06:	953e                	add	a0,a0,a5
    5a08:	8082                	ret
    5a0a:	4501                	li	a0,0
    5a0c:	8082                	ret
    5a0e:	09500593          	li	a1,149
    5a12:	8ed1                	or	a3,a3,a2
    5a14:	00e5cd63          	blt	a1,a4,5a2e <__fixsfsi+0x58>
    5a18:	09600613          	li	a2,150
    5a1c:	40e60733          	sub	a4,a2,a4
    5a20:	00e6d733          	srl	a4,a3,a4
    5a24:	40e00533          	neg	a0,a4
    5a28:	f3f5                	bnez	a5,5a0c <__fixsfsi+0x36>
    5a2a:	853a                	mv	a0,a4
    5a2c:	8082                	ret
    5a2e:	f6a70713          	addi	a4,a4,-150 # fbffff6a <_eusrstack+0xdbff7f6a>
    5a32:	00e69733          	sll	a4,a3,a4
    5a36:	b7fd                	j	5a24 <__fixsfsi+0x4e>

00005a38 <__fixunssfsi>:
    5a38:	01755713          	srli	a4,a0,0x17
    5a3c:	00800637          	lui	a2,0x800
    5a40:	fff60793          	addi	a5,a2,-1 # 7fffff <_data_lma+0x7f772b>
    5a44:	0ff77713          	andi	a4,a4,255
    5a48:	07e00593          	li	a1,126
    5a4c:	00a7f6b3          	and	a3,a5,a0
    5a50:	01f55793          	srli	a5,a0,0x1f
    5a54:	4501                	li	a0,0
    5a56:	00e5f463          	bgeu	a1,a4,5a5e <__fixunssfsi+0x26>
    5a5a:	c399                	beqz	a5,5a60 <__fixunssfsi+0x28>
    5a5c:	8082                	ret
    5a5e:	8082                	ret
    5a60:	09e00793          	li	a5,158
    5a64:	557d                	li	a0,-1
    5a66:	fee7ebe3          	bltu	a5,a4,5a5c <__fixunssfsi+0x24>
    5a6a:	09500593          	li	a1,149
    5a6e:	00c6e7b3          	or	a5,a3,a2
    5a72:	00e5d763          	bge	a1,a4,5a80 <__fixunssfsi+0x48>
    5a76:	f6a70713          	addi	a4,a4,-150
    5a7a:	00e79533          	sll	a0,a5,a4
    5a7e:	8082                	ret
    5a80:	09600513          	li	a0,150
    5a84:	40e50733          	sub	a4,a0,a4
    5a88:	00e7d533          	srl	a0,a5,a4
    5a8c:	8082                	ret

00005a8e <__floatsisf>:
    5a8e:	1141                	addi	sp,sp,-16
    5a90:	c606                	sw	ra,12(sp)
    5a92:	c422                	sw	s0,8(sp)
    5a94:	c226                	sw	s1,4(sp)
    5a96:	cd0d                	beqz	a0,5ad0 <__floatsisf+0x42>
    5a98:	41f55793          	srai	a5,a0,0x1f
    5a9c:	00a7c433          	xor	s0,a5,a0
    5aa0:	8c1d                	sub	s0,s0,a5
    5aa2:	84aa                	mv	s1,a0
    5aa4:	8522                	mv	a0,s0
    5aa6:	2e49                	jal	5e38 <__clzsi2>
    5aa8:	09e00793          	li	a5,158
    5aac:	40a78733          	sub	a4,a5,a0
    5ab0:	09600793          	li	a5,150
    5ab4:	80fd                	srli	s1,s1,0x1f
    5ab6:	02e7cc63          	blt	a5,a4,5aee <__floatsisf+0x60>
    5aba:	46a1                	li	a3,8
    5abc:	0ff77793          	andi	a5,a4,255
    5ac0:	00a6d563          	bge	a3,a0,5aca <__floatsisf+0x3c>
    5ac4:	1561                	addi	a0,a0,-8
    5ac6:	00a41433          	sll	s0,s0,a0
    5aca:	0426                	slli	s0,s0,0x9
    5acc:	8025                	srli	s0,s0,0x9
    5ace:	a021                	j	5ad6 <__floatsisf+0x48>
    5ad0:	4481                	li	s1,0
    5ad2:	4781                	li	a5,0
    5ad4:	4401                	li	s0,0
    5ad6:	0426                	slli	s0,s0,0x9
    5ad8:	00945513          	srli	a0,s0,0x9
    5adc:	40b2                	lw	ra,12(sp)
    5ade:	4422                	lw	s0,8(sp)
    5ae0:	07de                	slli	a5,a5,0x17
    5ae2:	04fe                	slli	s1,s1,0x1f
    5ae4:	8d5d                	or	a0,a0,a5
    5ae6:	8d45                	or	a0,a0,s1
    5ae8:	4492                	lw	s1,4(sp)
    5aea:	0141                	addi	sp,sp,16
    5aec:	8082                	ret
    5aee:	09900793          	li	a5,153
    5af2:	00e7dd63          	bge	a5,a4,5b0c <__floatsisf+0x7e>
    5af6:	01b50793          	addi	a5,a0,27 # 8000001b <_eusrstack+0x5fff801b>
    5afa:	4695                	li	a3,5
    5afc:	00f417b3          	sll	a5,s0,a5
    5b00:	8e89                	sub	a3,a3,a0
    5b02:	00d45433          	srl	s0,s0,a3
    5b06:	00f037b3          	snez	a5,a5
    5b0a:	8c5d                	or	s0,s0,a5
    5b0c:	4795                	li	a5,5
    5b0e:	00a7d663          	bge	a5,a0,5b1a <__floatsisf+0x8c>
    5b12:	ffb50793          	addi	a5,a0,-5
    5b16:	00f41433          	sll	s0,s0,a5
    5b1a:	fc0006b7          	lui	a3,0xfc000
    5b1e:	16fd                	addi	a3,a3,-1
    5b20:	00747793          	andi	a5,s0,7
    5b24:	00d47633          	and	a2,s0,a3
    5b28:	c385                	beqz	a5,5b48 <__floatsisf+0xba>
    5b2a:	00f47793          	andi	a5,s0,15
    5b2e:	4591                	li	a1,4
    5b30:	00b78c63          	beq	a5,a1,5b48 <__floatsisf+0xba>
    5b34:	0611                	addi	a2,a2,4
    5b36:	00561793          	slli	a5,a2,0x5
    5b3a:	0007d763          	bgez	a5,5b48 <__floatsisf+0xba>
    5b3e:	09f00793          	li	a5,159
    5b42:	8e75                	and	a2,a2,a3
    5b44:	40a78733          	sub	a4,a5,a0
    5b48:	00661413          	slli	s0,a2,0x6
    5b4c:	8025                	srli	s0,s0,0x9
    5b4e:	0ff77793          	andi	a5,a4,255
    5b52:	b751                	j	5ad6 <__floatsisf+0x48>

00005b54 <__floatunsisf>:
    5b54:	1141                	addi	sp,sp,-16
    5b56:	c606                	sw	ra,12(sp)
    5b58:	c422                	sw	s0,8(sp)
    5b5a:	cd15                	beqz	a0,5b96 <__floatunsisf+0x42>
    5b5c:	842a                	mv	s0,a0
    5b5e:	2ce9                	jal	5e38 <__clzsi2>
    5b60:	09e00793          	li	a5,158
    5b64:	40a78733          	sub	a4,a5,a0
    5b68:	09600793          	li	a5,150
    5b6c:	04e7c063          	blt	a5,a4,5bac <__floatunsisf+0x58>
    5b70:	46a1                	li	a3,8
    5b72:	0ff77793          	andi	a5,a4,255
    5b76:	00a6d563          	bge	a3,a0,5b80 <__floatunsisf+0x2c>
    5b7a:	1561                	addi	a0,a0,-8
    5b7c:	00a41433          	sll	s0,s0,a0
    5b80:	0426                	slli	s0,s0,0x9
    5b82:	8025                	srli	s0,s0,0x9
    5b84:	0426                	slli	s0,s0,0x9
    5b86:	00945513          	srli	a0,s0,0x9
    5b8a:	40b2                	lw	ra,12(sp)
    5b8c:	4422                	lw	s0,8(sp)
    5b8e:	07de                	slli	a5,a5,0x17
    5b90:	8d5d                	or	a0,a0,a5
    5b92:	0141                	addi	sp,sp,16
    5b94:	8082                	ret
    5b96:	4401                	li	s0,0
    5b98:	0426                	slli	s0,s0,0x9
    5b9a:	00945513          	srli	a0,s0,0x9
    5b9e:	40b2                	lw	ra,12(sp)
    5ba0:	4422                	lw	s0,8(sp)
    5ba2:	4781                	li	a5,0
    5ba4:	07de                	slli	a5,a5,0x17
    5ba6:	8d5d                	or	a0,a0,a5
    5ba8:	0141                	addi	sp,sp,16
    5baa:	8082                	ret
    5bac:	09900793          	li	a5,153
    5bb0:	00e7dd63          	bge	a5,a4,5bca <__floatunsisf+0x76>
    5bb4:	01b50793          	addi	a5,a0,27
    5bb8:	4695                	li	a3,5
    5bba:	00f417b3          	sll	a5,s0,a5
    5bbe:	8e89                	sub	a3,a3,a0
    5bc0:	00f037b3          	snez	a5,a5
    5bc4:	00d45433          	srl	s0,s0,a3
    5bc8:	8c5d                	or	s0,s0,a5
    5bca:	4795                	li	a5,5
    5bcc:	00a7d663          	bge	a5,a0,5bd8 <__floatunsisf+0x84>
    5bd0:	ffb50793          	addi	a5,a0,-5
    5bd4:	00f41433          	sll	s0,s0,a5
    5bd8:	fc0006b7          	lui	a3,0xfc000
    5bdc:	16fd                	addi	a3,a3,-1
    5bde:	00747793          	andi	a5,s0,7
    5be2:	00d47633          	and	a2,s0,a3
    5be6:	c385                	beqz	a5,5c06 <__floatunsisf+0xb2>
    5be8:	00f47793          	andi	a5,s0,15
    5bec:	4591                	li	a1,4
    5bee:	00b78c63          	beq	a5,a1,5c06 <__floatunsisf+0xb2>
    5bf2:	0611                	addi	a2,a2,4
    5bf4:	00561793          	slli	a5,a2,0x5
    5bf8:	0007d763          	bgez	a5,5c06 <__floatunsisf+0xb2>
    5bfc:	09f00793          	li	a5,159
    5c00:	8e75                	and	a2,a2,a3
    5c02:	40a78733          	sub	a4,a5,a0
    5c06:	00661413          	slli	s0,a2,0x6
    5c0a:	8025                	srli	s0,s0,0x9
    5c0c:	0426                	slli	s0,s0,0x9
    5c0e:	00945513          	srli	a0,s0,0x9
    5c12:	40b2                	lw	ra,12(sp)
    5c14:	4422                	lw	s0,8(sp)
    5c16:	0ff77793          	andi	a5,a4,255
    5c1a:	07de                	slli	a5,a5,0x17
    5c1c:	8d5d                	or	a0,a0,a5
    5c1e:	0141                	addi	sp,sp,16
    5c20:	8082                	ret

00005c22 <__extendsfdf2>:
    5c22:	01755713          	srli	a4,a0,0x17
    5c26:	0ff77713          	andi	a4,a4,255
    5c2a:	1141                	addi	sp,sp,-16
    5c2c:	00170793          	addi	a5,a4,1
    5c30:	c422                	sw	s0,8(sp)
    5c32:	c226                	sw	s1,4(sp)
    5c34:	00951413          	slli	s0,a0,0x9
    5c38:	c606                	sw	ra,12(sp)
    5c3a:	0fe7f793          	andi	a5,a5,254
    5c3e:	8025                	srli	s0,s0,0x9
    5c40:	01f55493          	srli	s1,a0,0x1f
    5c44:	c785                	beqz	a5,5c6c <__extendsfdf2+0x4a>
    5c46:	00345793          	srli	a5,s0,0x3
    5c4a:	38070713          	addi	a4,a4,896
    5c4e:	0476                	slli	s0,s0,0x1d
    5c50:	07b2                	slli	a5,a5,0xc
    5c52:	0752                	slli	a4,a4,0x14
    5c54:	83b1                	srli	a5,a5,0xc
    5c56:	01f49513          	slli	a0,s1,0x1f
    5c5a:	8fd9                	or	a5,a5,a4
    5c5c:	8fc9                	or	a5,a5,a0
    5c5e:	40b2                	lw	ra,12(sp)
    5c60:	8522                	mv	a0,s0
    5c62:	4422                	lw	s0,8(sp)
    5c64:	4492                	lw	s1,4(sp)
    5c66:	85be                	mv	a1,a5
    5c68:	0141                	addi	sp,sp,16
    5c6a:	8082                	ret
    5c6c:	eb05                	bnez	a4,5c9c <__extendsfdf2+0x7a>
    5c6e:	c439                	beqz	s0,5cbc <__extendsfdf2+0x9a>
    5c70:	8522                	mv	a0,s0
    5c72:	22d9                	jal	5e38 <__clzsi2>
    5c74:	47a9                	li	a5,10
    5c76:	04a7c663          	blt	a5,a0,5cc2 <__extendsfdf2+0xa0>
    5c7a:	472d                	li	a4,11
    5c7c:	8f09                	sub	a4,a4,a0
    5c7e:	01550793          	addi	a5,a0,21
    5c82:	00e45733          	srl	a4,s0,a4
    5c86:	00f41433          	sll	s0,s0,a5
    5c8a:	00c71793          	slli	a5,a4,0xc
    5c8e:	38900713          	li	a4,905
    5c92:	8f09                	sub	a4,a4,a0
    5c94:	83b1                	srli	a5,a5,0xc
    5c96:	7ff77713          	andi	a4,a4,2047
    5c9a:	bf5d                	j	5c50 <__extendsfdf2+0x2e>
    5c9c:	cc01                	beqz	s0,5cb4 <__extendsfdf2+0x92>
    5c9e:	00345713          	srli	a4,s0,0x3
    5ca2:	000807b7          	lui	a5,0x80
    5ca6:	8fd9                	or	a5,a5,a4
    5ca8:	07b2                	slli	a5,a5,0xc
    5caa:	0476                	slli	s0,s0,0x1d
    5cac:	83b1                	srli	a5,a5,0xc
    5cae:	7ff00713          	li	a4,2047
    5cb2:	bf79                	j	5c50 <__extendsfdf2+0x2e>
    5cb4:	7ff00713          	li	a4,2047
    5cb8:	4781                	li	a5,0
    5cba:	bf59                	j	5c50 <__extendsfdf2+0x2e>
    5cbc:	4701                	li	a4,0
    5cbe:	4781                	li	a5,0
    5cc0:	bf41                	j	5c50 <__extendsfdf2+0x2e>
    5cc2:	ff550713          	addi	a4,a0,-11
    5cc6:	00e41733          	sll	a4,s0,a4
    5cca:	4401                	li	s0,0
    5ccc:	bf7d                	j	5c8a <__extendsfdf2+0x68>

00005cce <__truncdfsf2>:
    5cce:	0145d693          	srli	a3,a1,0x14
    5cd2:	00c59793          	slli	a5,a1,0xc
    5cd6:	7ff6f693          	andi	a3,a3,2047
    5cda:	83b1                	srli	a5,a5,0xc
    5cdc:	00168613          	addi	a2,a3,1 # fc000001 <_eusrstack+0xdbff8001>
    5ce0:	078e                	slli	a5,a5,0x3
    5ce2:	01d55713          	srli	a4,a0,0x1d
    5ce6:	7fe67613          	andi	a2,a2,2046
    5cea:	81fd                	srli	a1,a1,0x1f
    5cec:	8f5d                	or	a4,a4,a5
    5cee:	00351893          	slli	a7,a0,0x3
    5cf2:	ce35                	beqz	a2,5d6e <__truncdfsf2+0xa0>
    5cf4:	c8068813          	addi	a6,a3,-896
    5cf8:	0fe00793          	li	a5,254
    5cfc:	0107dd63          	bge	a5,a6,5d16 <__truncdfsf2+0x48>
    5d00:	4781                	li	a5,0
    5d02:	00979513          	slli	a0,a5,0x9
    5d06:	0ff00693          	li	a3,255
    5d0a:	06de                	slli	a3,a3,0x17
    5d0c:	8125                	srli	a0,a0,0x9
    5d0e:	05fe                	slli	a1,a1,0x1f
    5d10:	8d55                	or	a0,a0,a3
    5d12:	8d4d                	or	a0,a0,a1
    5d14:	8082                	ret
    5d16:	0b005563          	blez	a6,5dc0 <__truncdfsf2+0xf2>
    5d1a:	00651793          	slli	a5,a0,0x6
    5d1e:	070e                	slli	a4,a4,0x3
    5d20:	00f037b3          	snez	a5,a5
    5d24:	8fd9                	or	a5,a5,a4
    5d26:	01d8d893          	srli	a7,a7,0x1d
    5d2a:	0117e7b3          	or	a5,a5,a7
    5d2e:	0077f713          	andi	a4,a5,7
    5d32:	10070163          	beqz	a4,5e34 <__truncdfsf2+0x166>
    5d36:	00f7f713          	andi	a4,a5,15
    5d3a:	4691                	li	a3,4
    5d3c:	00d70363          	beq	a4,a3,5d42 <__truncdfsf2+0x74>
    5d40:	0791                	addi	a5,a5,4
    5d42:	04000737          	lui	a4,0x4000
    5d46:	8f7d                	and	a4,a4,a5
    5d48:	c775                	beqz	a4,5e34 <__truncdfsf2+0x166>
    5d4a:	00180713          	addi	a4,a6,1
    5d4e:	0ff00613          	li	a2,255
    5d52:	0ff77693          	andi	a3,a4,255
    5d56:	fac705e3          	beq	a4,a2,5d00 <__truncdfsf2+0x32>
    5d5a:	079a                	slli	a5,a5,0x6
    5d5c:	83a5                	srli	a5,a5,0x9
    5d5e:	00979513          	slli	a0,a5,0x9
    5d62:	06de                	slli	a3,a3,0x17
    5d64:	8125                	srli	a0,a0,0x9
    5d66:	05fe                	slli	a1,a1,0x1f
    5d68:	8d55                	or	a0,a0,a3
    5d6a:	8d4d                	or	a0,a0,a1
    5d6c:	8082                	ret
    5d6e:	011767b3          	or	a5,a4,a7
    5d72:	ee99                	bnez	a3,5d90 <__truncdfsf2+0xc2>
    5d74:	cf85                	beqz	a5,5dac <__truncdfsf2+0xde>
    5d76:	4795                	li	a5,5
    5d78:	079a                	slli	a5,a5,0x6
    5d7a:	83a5                	srli	a5,a5,0x9
    5d7c:	00979513          	slli	a0,a5,0x9
    5d80:	0ff6f693          	andi	a3,a3,255
    5d84:	06de                	slli	a3,a3,0x17
    5d86:	8125                	srli	a0,a0,0x9
    5d88:	05fe                	slli	a1,a1,0x1f
    5d8a:	8d55                	or	a0,a0,a3
    5d8c:	8d4d                	or	a0,a0,a1
    5d8e:	8082                	ret
    5d90:	dba5                	beqz	a5,5d00 <__truncdfsf2+0x32>
    5d92:	004007b7          	lui	a5,0x400
    5d96:	00979513          	slli	a0,a5,0x9
    5d9a:	0ff00693          	li	a3,255
    5d9e:	06de                	slli	a3,a3,0x17
    5da0:	4581                	li	a1,0
    5da2:	8125                	srli	a0,a0,0x9
    5da4:	05fe                	slli	a1,a1,0x1f
    5da6:	8d55                	or	a0,a0,a3
    5da8:	8d4d                	or	a0,a0,a1
    5daa:	8082                	ret
    5dac:	4781                	li	a5,0
    5dae:	00979513          	slli	a0,a5,0x9
    5db2:	4681                	li	a3,0
    5db4:	06de                	slli	a3,a3,0x17
    5db6:	8125                	srli	a0,a0,0x9
    5db8:	05fe                	slli	a1,a1,0x1f
    5dba:	8d55                	or	a0,a0,a3
    5dbc:	8d4d                	or	a0,a0,a1
    5dbe:	8082                	ret
    5dc0:	57a5                	li	a5,-23
    5dc2:	04f84863          	blt	a6,a5,5e12 <__truncdfsf2+0x144>
    5dc6:	47f9                	li	a5,30
    5dc8:	00800637          	lui	a2,0x800
    5dcc:	410787b3          	sub	a5,a5,a6
    5dd0:	457d                	li	a0,31
    5dd2:	8e59                	or	a2,a2,a4
    5dd4:	04f55163          	bge	a0,a5,5e16 <__truncdfsf2+0x148>
    5dd8:	5779                	li	a4,-2
    5dda:	41070733          	sub	a4,a4,a6
    5dde:	02000513          	li	a0,32
    5de2:	00e65733          	srl	a4,a2,a4
    5de6:	00a78863          	beq	a5,a0,5df6 <__truncdfsf2+0x128>
    5dea:	ca268693          	addi	a3,a3,-862
    5dee:	00d616b3          	sll	a3,a2,a3
    5df2:	00d8e8b3          	or	a7,a7,a3
    5df6:	011037b3          	snez	a5,a7
    5dfa:	8fd9                	or	a5,a5,a4
    5dfc:	0077f713          	andi	a4,a5,7
    5e00:	4801                	li	a6,0
    5e02:	fb15                	bnez	a4,5d36 <__truncdfsf2+0x68>
    5e04:	00579713          	slli	a4,a5,0x5
    5e08:	4685                	li	a3,1
    5e0a:	f40748e3          	bltz	a4,5d5a <__truncdfsf2+0x8c>
    5e0e:	4681                	li	a3,0
    5e10:	b7a5                	j	5d78 <__truncdfsf2+0xaa>
    5e12:	4681                	li	a3,0
    5e14:	b78d                	j	5d76 <__truncdfsf2+0xa8>
    5e16:	c8268693          	addi	a3,a3,-894
    5e1a:	00d89733          	sll	a4,a7,a3
    5e1e:	00e03733          	snez	a4,a4
    5e22:	00d616b3          	sll	a3,a2,a3
    5e26:	00f8d8b3          	srl	a7,a7,a5
    5e2a:	00d767b3          	or	a5,a4,a3
    5e2e:	00f8e7b3          	or	a5,a7,a5
    5e32:	b7e9                	j	5dfc <__truncdfsf2+0x12e>
    5e34:	86c2                	mv	a3,a6
    5e36:	b789                	j	5d78 <__truncdfsf2+0xaa>

00005e38 <__clzsi2>:
    5e38:	67c1                	lui	a5,0x10
    5e3a:	02f57c63          	bgeu	a0,a5,5e72 <__clzsi2+0x3a>
    5e3e:	0ff00793          	li	a5,255
    5e42:	02000713          	li	a4,32
    5e46:	00a7eb63          	bltu	a5,a0,5e5c <__clzsi2+0x24>
    5e4a:	00003797          	auipc	a5,0x3
    5e4e:	8ee78793          	addi	a5,a5,-1810 # 8738 <__clz_tab>
    5e52:	97aa                	add	a5,a5,a0
    5e54:	2388                	lbu	a0,0(a5)
    5e56:	40a70533          	sub	a0,a4,a0
    5e5a:	8082                	ret
    5e5c:	8121                	srli	a0,a0,0x8
    5e5e:	00003797          	auipc	a5,0x3
    5e62:	8da78793          	addi	a5,a5,-1830 # 8738 <__clz_tab>
    5e66:	97aa                	add	a5,a5,a0
    5e68:	2388                	lbu	a0,0(a5)
    5e6a:	4761                	li	a4,24
    5e6c:	40a70533          	sub	a0,a4,a0
    5e70:	8082                	ret
    5e72:	010007b7          	lui	a5,0x1000
    5e76:	00f56d63          	bltu	a0,a5,5e90 <__clzsi2+0x58>
    5e7a:	8161                	srli	a0,a0,0x18
    5e7c:	00003797          	auipc	a5,0x3
    5e80:	8bc78793          	addi	a5,a5,-1860 # 8738 <__clz_tab>
    5e84:	97aa                	add	a5,a5,a0
    5e86:	2388                	lbu	a0,0(a5)
    5e88:	4721                	li	a4,8
    5e8a:	40a70533          	sub	a0,a4,a0
    5e8e:	8082                	ret
    5e90:	8141                	srli	a0,a0,0x10
    5e92:	00003797          	auipc	a5,0x3
    5e96:	8a678793          	addi	a5,a5,-1882 # 8738 <__clz_tab>
    5e9a:	97aa                	add	a5,a5,a0
    5e9c:	2388                	lbu	a0,0(a5)
    5e9e:	4741                	li	a4,16
    5ea0:	40a70533          	sub	a0,a4,a0
    5ea4:	8082                	ret

00005ea6 <__errno>:
    5ea6:	81c18793          	addi	a5,gp,-2020 # 200000e4 <_impure_ptr>
    5eaa:	4388                	lw	a0,0(a5)
    5eac:	8082                	ret

00005eae <memcmp>:
    5eae:	4701                	li	a4,0
    5eb0:	00e61463          	bne	a2,a4,5eb8 <memcmp+0xa>
    5eb4:	4501                	li	a0,0
    5eb6:	8082                	ret
    5eb8:	00e507b3          	add	a5,a0,a4
    5ebc:	0705                	addi	a4,a4,1
    5ebe:	00e586b3          	add	a3,a1,a4
    5ec2:	239c                	lbu	a5,0(a5)
    5ec4:	fff6c683          	lbu	a3,-1(a3)
    5ec8:	fed784e3          	beq	a5,a3,5eb0 <memcmp+0x2>
    5ecc:	40d78533          	sub	a0,a5,a3
    5ed0:	8082                	ret

00005ed2 <memcpy>:
    5ed2:	00a5c7b3          	xor	a5,a1,a0
    5ed6:	8b8d                	andi	a5,a5,3
    5ed8:	00c50733          	add	a4,a0,a2
    5edc:	e781                	bnez	a5,5ee4 <memcpy+0x12>
    5ede:	478d                	li	a5,3
    5ee0:	00c7ed63          	bltu	a5,a2,5efa <memcpy+0x28>
    5ee4:	87aa                	mv	a5,a0
    5ee6:	08e57e63          	bgeu	a0,a4,5f82 <memcpy+0xb0>
    5eea:	2194                	lbu	a3,0(a1)
    5eec:	0785                	addi	a5,a5,1
    5eee:	0585                	addi	a1,a1,1
    5ef0:	fed78fa3          	sb	a3,-1(a5)
    5ef4:	fee7ebe3          	bltu	a5,a4,5eea <memcpy+0x18>
    5ef8:	8082                	ret
    5efa:	00357693          	andi	a3,a0,3
    5efe:	87aa                	mv	a5,a0
    5f00:	ca89                	beqz	a3,5f12 <memcpy+0x40>
    5f02:	2194                	lbu	a3,0(a1)
    5f04:	0785                	addi	a5,a5,1
    5f06:	0585                	addi	a1,a1,1
    5f08:	fed78fa3          	sb	a3,-1(a5)
    5f0c:	0037f693          	andi	a3,a5,3
    5f10:	bfc5                	j	5f00 <memcpy+0x2e>
    5f12:	ffc77693          	andi	a3,a4,-4
    5f16:	fe068613          	addi	a2,a3,-32
    5f1a:	06c7f063          	bgeu	a5,a2,5f7a <memcpy+0xa8>
    5f1e:	0005a383          	lw	t2,0(a1)
    5f22:	0045a283          	lw	t0,4(a1)
    5f26:	0085af83          	lw	t6,8(a1)
    5f2a:	00c5af03          	lw	t5,12(a1)
    5f2e:	0105ae83          	lw	t4,16(a1)
    5f32:	0145ae03          	lw	t3,20(a1)
    5f36:	0185a303          	lw	t1,24(a1)
    5f3a:	01c5a883          	lw	a7,28(a1)
    5f3e:	02458593          	addi	a1,a1,36
    5f42:	0077a023          	sw	t2,0(a5)
    5f46:	ffc5a803          	lw	a6,-4(a1)
    5f4a:	0057a223          	sw	t0,4(a5)
    5f4e:	01f7a423          	sw	t6,8(a5)
    5f52:	01e7a623          	sw	t5,12(a5)
    5f56:	01d7a823          	sw	t4,16(a5)
    5f5a:	01c7aa23          	sw	t3,20(a5)
    5f5e:	0067ac23          	sw	t1,24(a5)
    5f62:	0117ae23          	sw	a7,28(a5)
    5f66:	02478793          	addi	a5,a5,36
    5f6a:	ff07ae23          	sw	a6,-4(a5)
    5f6e:	b775                	j	5f1a <memcpy+0x48>
    5f70:	4190                	lw	a2,0(a1)
    5f72:	0791                	addi	a5,a5,4
    5f74:	0591                	addi	a1,a1,4
    5f76:	fec7ae23          	sw	a2,-4(a5)
    5f7a:	fed7ebe3          	bltu	a5,a3,5f70 <memcpy+0x9e>
    5f7e:	f6e7e6e3          	bltu	a5,a4,5eea <memcpy+0x18>
    5f82:	8082                	ret

00005f84 <iprintf>:
    5f84:	7139                	addi	sp,sp,-64
    5f86:	da3e                	sw	a5,52(sp)
    5f88:	d22e                	sw	a1,36(sp)
    5f8a:	d432                	sw	a2,40(sp)
    5f8c:	d636                	sw	a3,44(sp)
    5f8e:	d83a                	sw	a4,48(sp)
    5f90:	dc42                	sw	a6,56(sp)
    5f92:	de46                	sw	a7,60(sp)
    5f94:	81c18793          	addi	a5,gp,-2020 # 200000e4 <_impure_ptr>
    5f98:	cc22                	sw	s0,24(sp)
    5f9a:	4380                	lw	s0,0(a5)
    5f9c:	ca26                	sw	s1,20(sp)
    5f9e:	ce06                	sw	ra,28(sp)
    5fa0:	84aa                	mv	s1,a0
    5fa2:	c409                	beqz	s0,5fac <iprintf+0x28>
    5fa4:	4c1c                	lw	a5,24(s0)
    5fa6:	e399                	bnez	a5,5fac <iprintf+0x28>
    5fa8:	8522                	mv	a0,s0
    5faa:	2391                	jal	64ee <__sinit>
    5fac:	440c                	lw	a1,8(s0)
    5fae:	1054                	addi	a3,sp,36
    5fb0:	8626                	mv	a2,s1
    5fb2:	8522                	mv	a0,s0
    5fb4:	c636                	sw	a3,12(sp)
    5fb6:	4d3000ef          	jal	ra,6c88 <_vfiprintf_r>
    5fba:	40f2                	lw	ra,28(sp)
    5fbc:	4462                	lw	s0,24(sp)
    5fbe:	44d2                	lw	s1,20(sp)
    5fc0:	6121                	addi	sp,sp,64
    5fc2:	8082                	ret

00005fc4 <_puts_r>:
    5fc4:	1101                	addi	sp,sp,-32
    5fc6:	ca26                	sw	s1,20(sp)
    5fc8:	c84a                	sw	s2,16(sp)
    5fca:	ce06                	sw	ra,28(sp)
    5fcc:	cc22                	sw	s0,24(sp)
    5fce:	c64e                	sw	s3,12(sp)
    5fd0:	c452                	sw	s4,8(sp)
    5fd2:	84aa                	mv	s1,a0
    5fd4:	892e                	mv	s2,a1
    5fd6:	c501                	beqz	a0,5fde <_puts_r+0x1a>
    5fd8:	4d1c                	lw	a5,24(a0)
    5fda:	e391                	bnez	a5,5fde <_puts_r+0x1a>
    5fdc:	2b09                	jal	64ee <__sinit>
    5fde:	4c9c                	lw	a5,24(s1)
    5fe0:	4480                	lw	s0,8(s1)
    5fe2:	e399                	bnez	a5,5fe8 <_puts_r+0x24>
    5fe4:	8526                	mv	a0,s1
    5fe6:	2321                	jal	64ee <__sinit>
    5fe8:	00003797          	auipc	a5,0x3
    5fec:	87078793          	addi	a5,a5,-1936 # 8858 <__sf_fake_stdin>
    5ff0:	02f41b63          	bne	s0,a5,6026 <_puts_r+0x62>
    5ff4:	40c0                	lw	s0,4(s1)
    5ff6:	245e                	lhu	a5,12(s0)
    5ff8:	8ba1                	andi	a5,a5,8
    5ffa:	c7b1                	beqz	a5,6046 <_puts_r+0x82>
    5ffc:	481c                	lw	a5,16(s0)
    5ffe:	c7a1                	beqz	a5,6046 <_puts_r+0x82>
    6000:	59fd                	li	s3,-1
    6002:	4a29                	li	s4,10
    6004:	441c                	lw	a5,8(s0)
    6006:	00094583          	lbu	a1,0(s2)
    600a:	17fd                	addi	a5,a5,-1
    600c:	e9b1                	bnez	a1,6060 <_puts_r+0x9c>
    600e:	c41c                	sw	a5,8(s0)
    6010:	0607dd63          	bgez	a5,608a <_puts_r+0xc6>
    6014:	8622                	mv	a2,s0
    6016:	45a9                	li	a1,10
    6018:	8526                	mv	a0,s1
    601a:	28c1                	jal	60ea <__swbuf_r>
    601c:	57fd                	li	a5,-1
    601e:	02f50863          	beq	a0,a5,604e <_puts_r+0x8a>
    6022:	4529                	li	a0,10
    6024:	a035                	j	6050 <_puts_r+0x8c>
    6026:	00003797          	auipc	a5,0x3
    602a:	85278793          	addi	a5,a5,-1966 # 8878 <__sf_fake_stdout>
    602e:	00f41463          	bne	s0,a5,6036 <_puts_r+0x72>
    6032:	4480                	lw	s0,8(s1)
    6034:	b7c9                	j	5ff6 <_puts_r+0x32>
    6036:	00003797          	auipc	a5,0x3
    603a:	80278793          	addi	a5,a5,-2046 # 8838 <__sf_fake_stderr>
    603e:	faf41ce3          	bne	s0,a5,5ff6 <_puts_r+0x32>
    6042:	44c0                	lw	s0,12(s1)
    6044:	bf4d                	j	5ff6 <_puts_r+0x32>
    6046:	85a2                	mv	a1,s0
    6048:	8526                	mv	a0,s1
    604a:	2ab1                	jal	61a6 <__swsetup_r>
    604c:	d955                	beqz	a0,6000 <_puts_r+0x3c>
    604e:	557d                	li	a0,-1
    6050:	40f2                	lw	ra,28(sp)
    6052:	4462                	lw	s0,24(sp)
    6054:	44d2                	lw	s1,20(sp)
    6056:	4942                	lw	s2,16(sp)
    6058:	49b2                	lw	s3,12(sp)
    605a:	4a22                	lw	s4,8(sp)
    605c:	6105                	addi	sp,sp,32
    605e:	8082                	ret
    6060:	c41c                	sw	a5,8(s0)
    6062:	0905                	addi	s2,s2,1
    6064:	0007d763          	bgez	a5,6072 <_puts_r+0xae>
    6068:	4c18                	lw	a4,24(s0)
    606a:	00e7ca63          	blt	a5,a4,607e <_puts_r+0xba>
    606e:	01458863          	beq	a1,s4,607e <_puts_r+0xba>
    6072:	401c                	lw	a5,0(s0)
    6074:	00178713          	addi	a4,a5,1
    6078:	c018                	sw	a4,0(s0)
    607a:	a38c                	sb	a1,0(a5)
    607c:	b761                	j	6004 <_puts_r+0x40>
    607e:	8622                	mv	a2,s0
    6080:	8526                	mv	a0,s1
    6082:	20a5                	jal	60ea <__swbuf_r>
    6084:	f93510e3          	bne	a0,s3,6004 <_puts_r+0x40>
    6088:	b7d9                	j	604e <_puts_r+0x8a>
    608a:	401c                	lw	a5,0(s0)
    608c:	00178713          	addi	a4,a5,1
    6090:	c018                	sw	a4,0(s0)
    6092:	4729                	li	a4,10
    6094:	a398                	sb	a4,0(a5)
    6096:	b771                	j	6022 <_puts_r+0x5e>

00006098 <puts>:
    6098:	81c18793          	addi	a5,gp,-2020 # 200000e4 <_impure_ptr>
    609c:	85aa                	mv	a1,a0
    609e:	4388                	lw	a0,0(a5)
    60a0:	f25ff06f          	j	5fc4 <_puts_r>

000060a4 <siprintf>:
    60a4:	7135                	addi	sp,sp,-160
    60a6:	cb3e                	sw	a5,148(sp)
    60a8:	800007b7          	lui	a5,0x80000
    60ac:	fff7c793          	not	a5,a5
    60b0:	ce3e                	sw	a5,28(sp)
    60b2:	c83e                	sw	a5,16(sp)
    60b4:	77c1                	lui	a5,0xffff0
    60b6:	20878793          	addi	a5,a5,520 # ffff0208 <_eusrstack+0xdffe8208>
    60ba:	c532                	sw	a2,136(sp)
    60bc:	c736                	sw	a3,140(sp)
    60be:	c93a                	sw	a4,144(sp)
    60c0:	cd42                	sw	a6,152(sp)
    60c2:	cf46                	sw	a7,156(sp)
    60c4:	ca3e                	sw	a5,20(sp)
    60c6:	81c18793          	addi	a5,gp,-2020 # 200000e4 <_impure_ptr>
    60ca:	c42a                	sw	a0,8(sp)
    60cc:	cc2a                	sw	a0,24(sp)
    60ce:	4388                	lw	a0,0(a5)
    60d0:	0134                	addi	a3,sp,136
    60d2:	862e                	mv	a2,a1
    60d4:	002c                	addi	a1,sp,8
    60d6:	de86                	sw	ra,124(sp)
    60d8:	c236                	sw	a3,4(sp)
    60da:	0db000ef          	jal	ra,69b4 <_svfiprintf_r>
    60de:	47a2                	lw	a5,8(sp)
    60e0:	00078023          	sb	zero,0(a5)
    60e4:	50f6                	lw	ra,124(sp)
    60e6:	610d                	addi	sp,sp,160
    60e8:	8082                	ret

000060ea <__swbuf_r>:
    60ea:	1101                	addi	sp,sp,-32
    60ec:	cc22                	sw	s0,24(sp)
    60ee:	ca26                	sw	s1,20(sp)
    60f0:	c84a                	sw	s2,16(sp)
    60f2:	ce06                	sw	ra,28(sp)
    60f4:	c64e                	sw	s3,12(sp)
    60f6:	84aa                	mv	s1,a0
    60f8:	892e                	mv	s2,a1
    60fa:	8432                	mv	s0,a2
    60fc:	c501                	beqz	a0,6104 <__swbuf_r+0x1a>
    60fe:	4d1c                	lw	a5,24(a0)
    6100:	e391                	bnez	a5,6104 <__swbuf_r+0x1a>
    6102:	26f5                	jal	64ee <__sinit>
    6104:	00002797          	auipc	a5,0x2
    6108:	75478793          	addi	a5,a5,1876 # 8858 <__sf_fake_stdin>
    610c:	06f41763          	bne	s0,a5,617a <__swbuf_r+0x90>
    6110:	40c0                	lw	s0,4(s1)
    6112:	4c1c                	lw	a5,24(s0)
    6114:	c41c                	sw	a5,8(s0)
    6116:	245e                	lhu	a5,12(s0)
    6118:	8ba1                	andi	a5,a5,8
    611a:	c3c1                	beqz	a5,619a <__swbuf_r+0xb0>
    611c:	481c                	lw	a5,16(s0)
    611e:	cfb5                	beqz	a5,619a <__swbuf_r+0xb0>
    6120:	481c                	lw	a5,16(s0)
    6122:	4008                	lw	a0,0(s0)
    6124:	0ff97993          	andi	s3,s2,255
    6128:	0ff97913          	andi	s2,s2,255
    612c:	8d1d                	sub	a0,a0,a5
    612e:	485c                	lw	a5,20(s0)
    6130:	00f54663          	blt	a0,a5,613c <__swbuf_r+0x52>
    6134:	85a2                	mv	a1,s0
    6136:	8526                	mv	a0,s1
    6138:	2c69                	jal	63d2 <_fflush_r>
    613a:	e525                	bnez	a0,61a2 <__swbuf_r+0xb8>
    613c:	441c                	lw	a5,8(s0)
    613e:	0505                	addi	a0,a0,1
    6140:	17fd                	addi	a5,a5,-1
    6142:	c41c                	sw	a5,8(s0)
    6144:	401c                	lw	a5,0(s0)
    6146:	00178713          	addi	a4,a5,1
    614a:	c018                	sw	a4,0(s0)
    614c:	01378023          	sb	s3,0(a5)
    6150:	485c                	lw	a5,20(s0)
    6152:	00a78863          	beq	a5,a0,6162 <__swbuf_r+0x78>
    6156:	245e                	lhu	a5,12(s0)
    6158:	8b85                	andi	a5,a5,1
    615a:	cb81                	beqz	a5,616a <__swbuf_r+0x80>
    615c:	47a9                	li	a5,10
    615e:	00f91663          	bne	s2,a5,616a <__swbuf_r+0x80>
    6162:	85a2                	mv	a1,s0
    6164:	8526                	mv	a0,s1
    6166:	24b5                	jal	63d2 <_fflush_r>
    6168:	ed0d                	bnez	a0,61a2 <__swbuf_r+0xb8>
    616a:	40f2                	lw	ra,28(sp)
    616c:	4462                	lw	s0,24(sp)
    616e:	854a                	mv	a0,s2
    6170:	44d2                	lw	s1,20(sp)
    6172:	4942                	lw	s2,16(sp)
    6174:	49b2                	lw	s3,12(sp)
    6176:	6105                	addi	sp,sp,32
    6178:	8082                	ret
    617a:	00002797          	auipc	a5,0x2
    617e:	6fe78793          	addi	a5,a5,1790 # 8878 <__sf_fake_stdout>
    6182:	00f41463          	bne	s0,a5,618a <__swbuf_r+0xa0>
    6186:	4480                	lw	s0,8(s1)
    6188:	b769                	j	6112 <__swbuf_r+0x28>
    618a:	00002797          	auipc	a5,0x2
    618e:	6ae78793          	addi	a5,a5,1710 # 8838 <__sf_fake_stderr>
    6192:	f8f410e3          	bne	s0,a5,6112 <__swbuf_r+0x28>
    6196:	44c0                	lw	s0,12(s1)
    6198:	bfad                	j	6112 <__swbuf_r+0x28>
    619a:	85a2                	mv	a1,s0
    619c:	8526                	mv	a0,s1
    619e:	2021                	jal	61a6 <__swsetup_r>
    61a0:	d141                	beqz	a0,6120 <__swbuf_r+0x36>
    61a2:	597d                	li	s2,-1
    61a4:	b7d9                	j	616a <__swbuf_r+0x80>

000061a6 <__swsetup_r>:
    61a6:	1141                	addi	sp,sp,-16
    61a8:	81c18793          	addi	a5,gp,-2020 # 200000e4 <_impure_ptr>
    61ac:	c226                	sw	s1,4(sp)
    61ae:	4384                	lw	s1,0(a5)
    61b0:	c422                	sw	s0,8(sp)
    61b2:	c04a                	sw	s2,0(sp)
    61b4:	c606                	sw	ra,12(sp)
    61b6:	892a                	mv	s2,a0
    61b8:	842e                	mv	s0,a1
    61ba:	c489                	beqz	s1,61c4 <__swsetup_r+0x1e>
    61bc:	4c9c                	lw	a5,24(s1)
    61be:	e399                	bnez	a5,61c4 <__swsetup_r+0x1e>
    61c0:	8526                	mv	a0,s1
    61c2:	2635                	jal	64ee <__sinit>
    61c4:	00002797          	auipc	a5,0x2
    61c8:	69478793          	addi	a5,a5,1684 # 8858 <__sf_fake_stdin>
    61cc:	02f41b63          	bne	s0,a5,6202 <__swsetup_r+0x5c>
    61d0:	40c0                	lw	s0,4(s1)
    61d2:	00c41703          	lh	a4,12(s0) # 400000c <_data_lma+0x3ff7738>
    61d6:	01071793          	slli	a5,a4,0x10
    61da:	83c1                	srli	a5,a5,0x10
    61dc:	0087f693          	andi	a3,a5,8
    61e0:	eaad                	bnez	a3,6252 <__swsetup_r+0xac>
    61e2:	0107f693          	andi	a3,a5,16
    61e6:	ee95                	bnez	a3,6222 <__swsetup_r+0x7c>
    61e8:	47a5                	li	a5,9
    61ea:	00f92023          	sw	a5,0(s2)
    61ee:	04076713          	ori	a4,a4,64
    61f2:	a45a                	sh	a4,12(s0)
    61f4:	557d                	li	a0,-1
    61f6:	40b2                	lw	ra,12(sp)
    61f8:	4422                	lw	s0,8(sp)
    61fa:	4492                	lw	s1,4(sp)
    61fc:	4902                	lw	s2,0(sp)
    61fe:	0141                	addi	sp,sp,16
    6200:	8082                	ret
    6202:	00002797          	auipc	a5,0x2
    6206:	67678793          	addi	a5,a5,1654 # 8878 <__sf_fake_stdout>
    620a:	00f41463          	bne	s0,a5,6212 <__swsetup_r+0x6c>
    620e:	4480                	lw	s0,8(s1)
    6210:	b7c9                	j	61d2 <__swsetup_r+0x2c>
    6212:	00002797          	auipc	a5,0x2
    6216:	62678793          	addi	a5,a5,1574 # 8838 <__sf_fake_stderr>
    621a:	faf41ce3          	bne	s0,a5,61d2 <__swsetup_r+0x2c>
    621e:	44c0                	lw	s0,12(s1)
    6220:	bf4d                	j	61d2 <__swsetup_r+0x2c>
    6222:	8b91                	andi	a5,a5,4
    6224:	c39d                	beqz	a5,624a <__swsetup_r+0xa4>
    6226:	584c                	lw	a1,52(s0)
    6228:	c989                	beqz	a1,623a <__swsetup_r+0x94>
    622a:	04440793          	addi	a5,s0,68
    622e:	00f58463          	beq	a1,a5,6236 <__swsetup_r+0x90>
    6232:	854a                	mv	a0,s2
    6234:	2b29                	jal	674e <_free_r>
    6236:	02042a23          	sw	zero,52(s0)
    623a:	245e                	lhu	a5,12(s0)
    623c:	00042223          	sw	zero,4(s0)
    6240:	fdb7f793          	andi	a5,a5,-37
    6244:	a45e                	sh	a5,12(s0)
    6246:	481c                	lw	a5,16(s0)
    6248:	c01c                	sw	a5,0(s0)
    624a:	245e                	lhu	a5,12(s0)
    624c:	0087e793          	ori	a5,a5,8
    6250:	a45e                	sh	a5,12(s0)
    6252:	481c                	lw	a5,16(s0)
    6254:	eb99                	bnez	a5,626a <__swsetup_r+0xc4>
    6256:	245e                	lhu	a5,12(s0)
    6258:	20000713          	li	a4,512
    625c:	2807f793          	andi	a5,a5,640
    6260:	00e78563          	beq	a5,a4,626a <__swsetup_r+0xc4>
    6264:	85a2                	mv	a1,s0
    6266:	854a                	mv	a0,s2
    6268:	2991                	jal	66bc <__smakebuf_r>
    626a:	245e                	lhu	a5,12(s0)
    626c:	0017f713          	andi	a4,a5,1
    6270:	c31d                	beqz	a4,6296 <__swsetup_r+0xf0>
    6272:	485c                	lw	a5,20(s0)
    6274:	00042423          	sw	zero,8(s0)
    6278:	40f007b3          	neg	a5,a5
    627c:	cc1c                	sw	a5,24(s0)
    627e:	481c                	lw	a5,16(s0)
    6280:	4501                	li	a0,0
    6282:	fbb5                	bnez	a5,61f6 <__swsetup_r+0x50>
    6284:	00c41783          	lh	a5,12(s0)
    6288:	0807f713          	andi	a4,a5,128
    628c:	d72d                	beqz	a4,61f6 <__swsetup_r+0x50>
    628e:	0407e793          	ori	a5,a5,64
    6292:	a45e                	sh	a5,12(s0)
    6294:	b785                	j	61f4 <__swsetup_r+0x4e>
    6296:	8b89                	andi	a5,a5,2
    6298:	4701                	li	a4,0
    629a:	e391                	bnez	a5,629e <__swsetup_r+0xf8>
    629c:	4858                	lw	a4,20(s0)
    629e:	c418                	sw	a4,8(s0)
    62a0:	bff9                	j	627e <__swsetup_r+0xd8>

000062a2 <__sflush_r>:
    62a2:	25de                	lhu	a5,12(a1)
    62a4:	1101                	addi	sp,sp,-32
    62a6:	cc22                	sw	s0,24(sp)
    62a8:	ca26                	sw	s1,20(sp)
    62aa:	ce06                	sw	ra,28(sp)
    62ac:	c84a                	sw	s2,16(sp)
    62ae:	c64e                	sw	s3,12(sp)
    62b0:	0087f713          	andi	a4,a5,8
    62b4:	84aa                	mv	s1,a0
    62b6:	842e                	mv	s0,a1
    62b8:	eb79                	bnez	a4,638e <__sflush_r+0xec>
    62ba:	41d8                	lw	a4,4(a1)
    62bc:	00e04d63          	bgtz	a4,62d6 <__sflush_r+0x34>
    62c0:	41b8                	lw	a4,64(a1)
    62c2:	00e04a63          	bgtz	a4,62d6 <__sflush_r+0x34>
    62c6:	4501                	li	a0,0
    62c8:	40f2                	lw	ra,28(sp)
    62ca:	4462                	lw	s0,24(sp)
    62cc:	44d2                	lw	s1,20(sp)
    62ce:	4942                	lw	s2,16(sp)
    62d0:	49b2                	lw	s3,12(sp)
    62d2:	6105                	addi	sp,sp,32
    62d4:	8082                	ret
    62d6:	5458                	lw	a4,44(s0)
    62d8:	d77d                	beqz	a4,62c6 <__sflush_r+0x24>
    62da:	0004a903          	lw	s2,0(s1)
    62de:	01379693          	slli	a3,a5,0x13
    62e2:	0004a023          	sw	zero,0(s1)
    62e6:	0606db63          	bgez	a3,635c <__sflush_r+0xba>
    62ea:	4870                	lw	a2,84(s0)
    62ec:	245e                	lhu	a5,12(s0)
    62ee:	8b91                	andi	a5,a5,4
    62f0:	c799                	beqz	a5,62fe <__sflush_r+0x5c>
    62f2:	405c                	lw	a5,4(s0)
    62f4:	8e1d                	sub	a2,a2,a5
    62f6:	585c                	lw	a5,52(s0)
    62f8:	c399                	beqz	a5,62fe <__sflush_r+0x5c>
    62fa:	403c                	lw	a5,64(s0)
    62fc:	8e1d                	sub	a2,a2,a5
    62fe:	545c                	lw	a5,44(s0)
    6300:	500c                	lw	a1,32(s0)
    6302:	4681                	li	a3,0
    6304:	8526                	mv	a0,s1
    6306:	9782                	jalr	a5
    6308:	57fd                	li	a5,-1
    630a:	245a                	lhu	a4,12(s0)
    630c:	00f51d63          	bne	a0,a5,6326 <__sflush_r+0x84>
    6310:	4094                	lw	a3,0(s1)
    6312:	47f5                	li	a5,29
    6314:	06d7e863          	bltu	a5,a3,6384 <__sflush_r+0xe2>
    6318:	204007b7          	lui	a5,0x20400
    631c:	0785                	addi	a5,a5,1
    631e:	00d7d7b3          	srl	a5,a5,a3
    6322:	8b85                	andi	a5,a5,1
    6324:	c3a5                	beqz	a5,6384 <__sflush_r+0xe2>
    6326:	481c                	lw	a5,16(s0)
    6328:	00042223          	sw	zero,4(s0)
    632c:	c01c                	sw	a5,0(s0)
    632e:	01371793          	slli	a5,a4,0x13
    6332:	0007d863          	bgez	a5,6342 <__sflush_r+0xa0>
    6336:	57fd                	li	a5,-1
    6338:	00f51463          	bne	a0,a5,6340 <__sflush_r+0x9e>
    633c:	409c                	lw	a5,0(s1)
    633e:	e391                	bnez	a5,6342 <__sflush_r+0xa0>
    6340:	c868                	sw	a0,84(s0)
    6342:	584c                	lw	a1,52(s0)
    6344:	0124a023          	sw	s2,0(s1)
    6348:	ddbd                	beqz	a1,62c6 <__sflush_r+0x24>
    634a:	04440793          	addi	a5,s0,68
    634e:	00f58463          	beq	a1,a5,6356 <__sflush_r+0xb4>
    6352:	8526                	mv	a0,s1
    6354:	2eed                	jal	674e <_free_r>
    6356:	02042a23          	sw	zero,52(s0)
    635a:	b7b5                	j	62c6 <__sflush_r+0x24>
    635c:	500c                	lw	a1,32(s0)
    635e:	4601                	li	a2,0
    6360:	4685                	li	a3,1
    6362:	8526                	mv	a0,s1
    6364:	9702                	jalr	a4
    6366:	57fd                	li	a5,-1
    6368:	862a                	mv	a2,a0
    636a:	f8f511e3          	bne	a0,a5,62ec <__sflush_r+0x4a>
    636e:	409c                	lw	a5,0(s1)
    6370:	dfb5                	beqz	a5,62ec <__sflush_r+0x4a>
    6372:	4775                	li	a4,29
    6374:	00e78563          	beq	a5,a4,637e <__sflush_r+0xdc>
    6378:	4759                	li	a4,22
    637a:	04e79363          	bne	a5,a4,63c0 <__sflush_r+0x11e>
    637e:	0124a023          	sw	s2,0(s1)
    6382:	b791                	j	62c6 <__sflush_r+0x24>
    6384:	04076713          	ori	a4,a4,64
    6388:	a45a                	sh	a4,12(s0)
    638a:	557d                	li	a0,-1
    638c:	bf35                	j	62c8 <__sflush_r+0x26>
    638e:	0105a983          	lw	s3,16(a1)
    6392:	f2098ae3          	beqz	s3,62c6 <__sflush_r+0x24>
    6396:	0005a903          	lw	s2,0(a1)
    639a:	8b8d                	andi	a5,a5,3
    639c:	0135a023          	sw	s3,0(a1)
    63a0:	41390933          	sub	s2,s2,s3
    63a4:	4701                	li	a4,0
    63a6:	e391                	bnez	a5,63aa <__sflush_r+0x108>
    63a8:	49d8                	lw	a4,20(a1)
    63aa:	c418                	sw	a4,8(s0)
    63ac:	f1205de3          	blez	s2,62c6 <__sflush_r+0x24>
    63b0:	541c                	lw	a5,40(s0)
    63b2:	500c                	lw	a1,32(s0)
    63b4:	86ca                	mv	a3,s2
    63b6:	864e                	mv	a2,s3
    63b8:	8526                	mv	a0,s1
    63ba:	9782                	jalr	a5
    63bc:	00a04763          	bgtz	a0,63ca <__sflush_r+0x128>
    63c0:	245e                	lhu	a5,12(s0)
    63c2:	0407e793          	ori	a5,a5,64
    63c6:	a45e                	sh	a5,12(s0)
    63c8:	b7c9                	j	638a <__sflush_r+0xe8>
    63ca:	99aa                	add	s3,s3,a0
    63cc:	40a90933          	sub	s2,s2,a0
    63d0:	bff1                	j	63ac <__sflush_r+0x10a>

000063d2 <_fflush_r>:
    63d2:	499c                	lw	a5,16(a1)
    63d4:	c3a5                	beqz	a5,6434 <_fflush_r+0x62>
    63d6:	1101                	addi	sp,sp,-32
    63d8:	cc22                	sw	s0,24(sp)
    63da:	ce06                	sw	ra,28(sp)
    63dc:	842a                	mv	s0,a0
    63de:	c511                	beqz	a0,63ea <_fflush_r+0x18>
    63e0:	4d1c                	lw	a5,24(a0)
    63e2:	e781                	bnez	a5,63ea <_fflush_r+0x18>
    63e4:	c62e                	sw	a1,12(sp)
    63e6:	2221                	jal	64ee <__sinit>
    63e8:	45b2                	lw	a1,12(sp)
    63ea:	00002797          	auipc	a5,0x2
    63ee:	46e78793          	addi	a5,a5,1134 # 8858 <__sf_fake_stdin>
    63f2:	00f59c63          	bne	a1,a5,640a <_fflush_r+0x38>
    63f6:	404c                	lw	a1,4(s0)
    63f8:	00c59783          	lh	a5,12(a1)
    63fc:	c79d                	beqz	a5,642a <_fflush_r+0x58>
    63fe:	8522                	mv	a0,s0
    6400:	4462                	lw	s0,24(sp)
    6402:	40f2                	lw	ra,28(sp)
    6404:	6105                	addi	sp,sp,32
    6406:	e9dff06f          	j	62a2 <__sflush_r>
    640a:	00002797          	auipc	a5,0x2
    640e:	46e78793          	addi	a5,a5,1134 # 8878 <__sf_fake_stdout>
    6412:	00f59463          	bne	a1,a5,641a <_fflush_r+0x48>
    6416:	440c                	lw	a1,8(s0)
    6418:	b7c5                	j	63f8 <_fflush_r+0x26>
    641a:	00002797          	auipc	a5,0x2
    641e:	41e78793          	addi	a5,a5,1054 # 8838 <__sf_fake_stderr>
    6422:	fcf59be3          	bne	a1,a5,63f8 <_fflush_r+0x26>
    6426:	444c                	lw	a1,12(s0)
    6428:	bfc1                	j	63f8 <_fflush_r+0x26>
    642a:	40f2                	lw	ra,28(sp)
    642c:	4462                	lw	s0,24(sp)
    642e:	4501                	li	a0,0
    6430:	6105                	addi	sp,sp,32
    6432:	8082                	ret
    6434:	4501                	li	a0,0
    6436:	8082                	ret

00006438 <std>:
    6438:	1141                	addi	sp,sp,-16
    643a:	c422                	sw	s0,8(sp)
    643c:	c606                	sw	ra,12(sp)
    643e:	842a                	mv	s0,a0
    6440:	a54e                	sh	a1,12(a0)
    6442:	a572                	sh	a2,14(a0)
    6444:	00052023          	sw	zero,0(a0)
    6448:	00052223          	sw	zero,4(a0)
    644c:	00052423          	sw	zero,8(a0)
    6450:	06052223          	sw	zero,100(a0)
    6454:	00052823          	sw	zero,16(a0)
    6458:	00052a23          	sw	zero,20(a0)
    645c:	00052c23          	sw	zero,24(a0)
    6460:	4621                	li	a2,8
    6462:	4581                	li	a1,0
    6464:	05c50513          	addi	a0,a0,92
    6468:	db9f90ef          	jal	ra,220 <memset>
    646c:	00001797          	auipc	a5,0x1
    6470:	e7c78793          	addi	a5,a5,-388 # 72e8 <__sread>
    6474:	d05c                	sw	a5,36(s0)
    6476:	00001797          	auipc	a5,0x1
    647a:	e9e78793          	addi	a5,a5,-354 # 7314 <__swrite>
    647e:	d41c                	sw	a5,40(s0)
    6480:	00001797          	auipc	a5,0x1
    6484:	edc78793          	addi	a5,a5,-292 # 735c <__sseek>
    6488:	d45c                	sw	a5,44(s0)
    648a:	00001797          	auipc	a5,0x1
    648e:	f0278793          	addi	a5,a5,-254 # 738c <__sclose>
    6492:	d000                	sw	s0,32(s0)
    6494:	d81c                	sw	a5,48(s0)
    6496:	40b2                	lw	ra,12(sp)
    6498:	4422                	lw	s0,8(sp)
    649a:	0141                	addi	sp,sp,16
    649c:	8082                	ret

0000649e <_cleanup_r>:
    649e:	00000597          	auipc	a1,0x0
    64a2:	f3458593          	addi	a1,a1,-204 # 63d2 <_fflush_r>
    64a6:	aa91                	j	65fa <_fwalk_reent>

000064a8 <__sfmoreglue>:
    64a8:	1141                	addi	sp,sp,-16
    64aa:	c226                	sw	s1,4(sp)
    64ac:	06800613          	li	a2,104
    64b0:	fff58493          	addi	s1,a1,-1
    64b4:	02c484b3          	mul	s1,s1,a2
    64b8:	c04a                	sw	s2,0(sp)
    64ba:	892e                	mv	s2,a1
    64bc:	c422                	sw	s0,8(sp)
    64be:	c606                	sw	ra,12(sp)
    64c0:	07448593          	addi	a1,s1,116
    64c4:	2e0d                	jal	67f6 <_malloc_r>
    64c6:	842a                	mv	s0,a0
    64c8:	cd01                	beqz	a0,64e0 <__sfmoreglue+0x38>
    64ca:	00052023          	sw	zero,0(a0)
    64ce:	01252223          	sw	s2,4(a0)
    64d2:	0531                	addi	a0,a0,12
    64d4:	c408                	sw	a0,8(s0)
    64d6:	06848613          	addi	a2,s1,104
    64da:	4581                	li	a1,0
    64dc:	d45f90ef          	jal	ra,220 <memset>
    64e0:	8522                	mv	a0,s0
    64e2:	40b2                	lw	ra,12(sp)
    64e4:	4422                	lw	s0,8(sp)
    64e6:	4492                	lw	s1,4(sp)
    64e8:	4902                	lw	s2,0(sp)
    64ea:	0141                	addi	sp,sp,16
    64ec:	8082                	ret

000064ee <__sinit>:
    64ee:	4d1c                	lw	a5,24(a0)
    64f0:	e7a5                	bnez	a5,6558 <__sinit+0x6a>
    64f2:	1141                	addi	sp,sp,-16
    64f4:	c606                	sw	ra,12(sp)
    64f6:	c422                	sw	s0,8(sp)
    64f8:	00000797          	auipc	a5,0x0
    64fc:	fa678793          	addi	a5,a5,-90 # 649e <_cleanup_r>
    6500:	d51c                	sw	a5,40(a0)
    6502:	82018793          	addi	a5,gp,-2016 # 200000e8 <_global_impure_ptr>
    6506:	439c                	lw	a5,0(a5)
    6508:	04052423          	sw	zero,72(a0)
    650c:	04052623          	sw	zero,76(a0)
    6510:	04052823          	sw	zero,80(a0)
    6514:	00f51463          	bne	a0,a5,651c <__sinit+0x2e>
    6518:	4785                	li	a5,1
    651a:	cd1c                	sw	a5,24(a0)
    651c:	842a                	mv	s0,a0
    651e:	2835                	jal	655a <__sfp>
    6520:	c048                	sw	a0,4(s0)
    6522:	8522                	mv	a0,s0
    6524:	281d                	jal	655a <__sfp>
    6526:	c408                	sw	a0,8(s0)
    6528:	8522                	mv	a0,s0
    652a:	2805                	jal	655a <__sfp>
    652c:	c448                	sw	a0,12(s0)
    652e:	4048                	lw	a0,4(s0)
    6530:	4601                	li	a2,0
    6532:	4591                	li	a1,4
    6534:	f05ff0ef          	jal	ra,6438 <std>
    6538:	4408                	lw	a0,8(s0)
    653a:	4605                	li	a2,1
    653c:	45a5                	li	a1,9
    653e:	efbff0ef          	jal	ra,6438 <std>
    6542:	4448                	lw	a0,12(s0)
    6544:	4609                	li	a2,2
    6546:	45c9                	li	a1,18
    6548:	ef1ff0ef          	jal	ra,6438 <std>
    654c:	4785                	li	a5,1
    654e:	cc1c                	sw	a5,24(s0)
    6550:	40b2                	lw	ra,12(sp)
    6552:	4422                	lw	s0,8(sp)
    6554:	0141                	addi	sp,sp,16
    6556:	8082                	ret
    6558:	8082                	ret

0000655a <__sfp>:
    655a:	1141                	addi	sp,sp,-16
    655c:	82018793          	addi	a5,gp,-2016 # 200000e8 <_global_impure_ptr>
    6560:	c226                	sw	s1,4(sp)
    6562:	4384                	lw	s1,0(a5)
    6564:	c04a                	sw	s2,0(sp)
    6566:	c606                	sw	ra,12(sp)
    6568:	4c9c                	lw	a5,24(s1)
    656a:	c422                	sw	s0,8(sp)
    656c:	892a                	mv	s2,a0
    656e:	e781                	bnez	a5,6576 <__sfp+0x1c>
    6570:	8526                	mv	a0,s1
    6572:	f7dff0ef          	jal	ra,64ee <__sinit>
    6576:	04848493          	addi	s1,s1,72
    657a:	4480                	lw	s0,8(s1)
    657c:	40dc                	lw	a5,4(s1)
    657e:	17fd                	addi	a5,a5,-1
    6580:	0007d663          	bgez	a5,658c <__sfp+0x32>
    6584:	409c                	lw	a5,0(s1)
    6586:	cfb9                	beqz	a5,65e4 <__sfp+0x8a>
    6588:	4084                	lw	s1,0(s1)
    658a:	bfc5                	j	657a <__sfp+0x20>
    658c:	00c41703          	lh	a4,12(s0)
    6590:	e739                	bnez	a4,65de <__sfp+0x84>
    6592:	77c1                	lui	a5,0xffff0
    6594:	0785                	addi	a5,a5,1
    6596:	06042223          	sw	zero,100(s0)
    659a:	00042023          	sw	zero,0(s0)
    659e:	00042223          	sw	zero,4(s0)
    65a2:	00042423          	sw	zero,8(s0)
    65a6:	c45c                	sw	a5,12(s0)
    65a8:	00042823          	sw	zero,16(s0)
    65ac:	00042a23          	sw	zero,20(s0)
    65b0:	00042c23          	sw	zero,24(s0)
    65b4:	4621                	li	a2,8
    65b6:	4581                	li	a1,0
    65b8:	05c40513          	addi	a0,s0,92
    65bc:	c65f90ef          	jal	ra,220 <memset>
    65c0:	02042a23          	sw	zero,52(s0)
    65c4:	02042c23          	sw	zero,56(s0)
    65c8:	04042423          	sw	zero,72(s0)
    65cc:	04042623          	sw	zero,76(s0)
    65d0:	8522                	mv	a0,s0
    65d2:	40b2                	lw	ra,12(sp)
    65d4:	4422                	lw	s0,8(sp)
    65d6:	4492                	lw	s1,4(sp)
    65d8:	4902                	lw	s2,0(sp)
    65da:	0141                	addi	sp,sp,16
    65dc:	8082                	ret
    65de:	06840413          	addi	s0,s0,104
    65e2:	bf71                	j	657e <__sfp+0x24>
    65e4:	4591                	li	a1,4
    65e6:	854a                	mv	a0,s2
    65e8:	ec1ff0ef          	jal	ra,64a8 <__sfmoreglue>
    65ec:	c088                	sw	a0,0(s1)
    65ee:	fd49                	bnez	a0,6588 <__sfp+0x2e>
    65f0:	47b1                	li	a5,12
    65f2:	00f92023          	sw	a5,0(s2)
    65f6:	4401                	li	s0,0
    65f8:	bfe1                	j	65d0 <__sfp+0x76>

000065fa <_fwalk_reent>:
    65fa:	7179                	addi	sp,sp,-48
    65fc:	d422                	sw	s0,40(sp)
    65fe:	d04a                	sw	s2,32(sp)
    6600:	cc52                	sw	s4,24(sp)
    6602:	ca56                	sw	s5,20(sp)
    6604:	c85a                	sw	s6,16(sp)
    6606:	c65e                	sw	s7,12(sp)
    6608:	d606                	sw	ra,44(sp)
    660a:	d226                	sw	s1,36(sp)
    660c:	ce4e                	sw	s3,28(sp)
    660e:	8a2a                	mv	s4,a0
    6610:	8aae                	mv	s5,a1
    6612:	04850413          	addi	s0,a0,72
    6616:	4901                	li	s2,0
    6618:	4b05                	li	s6,1
    661a:	5bfd                	li	s7,-1
    661c:	ec09                	bnez	s0,6636 <_fwalk_reent+0x3c>
    661e:	50b2                	lw	ra,44(sp)
    6620:	5422                	lw	s0,40(sp)
    6622:	854a                	mv	a0,s2
    6624:	5492                	lw	s1,36(sp)
    6626:	5902                	lw	s2,32(sp)
    6628:	49f2                	lw	s3,28(sp)
    662a:	4a62                	lw	s4,24(sp)
    662c:	4ad2                	lw	s5,20(sp)
    662e:	4b42                	lw	s6,16(sp)
    6630:	4bb2                	lw	s7,12(sp)
    6632:	6145                	addi	sp,sp,48
    6634:	8082                	ret
    6636:	4404                	lw	s1,8(s0)
    6638:	00442983          	lw	s3,4(s0)
    663c:	19fd                	addi	s3,s3,-1
    663e:	0009d463          	bgez	s3,6646 <_fwalk_reent+0x4c>
    6642:	4000                	lw	s0,0(s0)
    6644:	bfe1                	j	661c <_fwalk_reent+0x22>
    6646:	24de                	lhu	a5,12(s1)
    6648:	00fb7b63          	bgeu	s6,a5,665e <_fwalk_reent+0x64>
    664c:	00e49783          	lh	a5,14(s1)
    6650:	01778763          	beq	a5,s7,665e <_fwalk_reent+0x64>
    6654:	85a6                	mv	a1,s1
    6656:	8552                	mv	a0,s4
    6658:	9a82                	jalr	s5
    665a:	00a96933          	or	s2,s2,a0
    665e:	06848493          	addi	s1,s1,104
    6662:	bfe9                	j	663c <_fwalk_reent+0x42>

00006664 <__swhatbuf_r>:
    6664:	7119                	addi	sp,sp,-128
    6666:	daa6                	sw	s1,116(sp)
    6668:	84ae                	mv	s1,a1
    666a:	00e59583          	lh	a1,14(a1)
    666e:	dca2                	sw	s0,120(sp)
    6670:	de86                	sw	ra,124(sp)
    6672:	8432                	mv	s0,a2
    6674:	0005db63          	bgez	a1,668a <__swhatbuf_r+0x26>
    6678:	24de                	lhu	a5,12(s1)
    667a:	0006a023          	sw	zero,0(a3)
    667e:	0807f793          	andi	a5,a5,128
    6682:	e785                	bnez	a5,66aa <__swhatbuf_r+0x46>
    6684:	40000793          	li	a5,1024
    6688:	a01d                	j	66ae <__swhatbuf_r+0x4a>
    668a:	0830                	addi	a2,sp,24
    668c:	c636                	sw	a3,12(sp)
    668e:	55b000ef          	jal	ra,73e8 <_fstat_r>
    6692:	46b2                	lw	a3,12(sp)
    6694:	fe0542e3          	bltz	a0,6678 <__swhatbuf_r+0x14>
    6698:	4772                	lw	a4,28(sp)
    669a:	67bd                	lui	a5,0xf
    669c:	8ff9                	and	a5,a5,a4
    669e:	7779                	lui	a4,0xffffe
    66a0:	97ba                	add	a5,a5,a4
    66a2:	0017b793          	seqz	a5,a5
    66a6:	c29c                	sw	a5,0(a3)
    66a8:	bff1                	j	6684 <__swhatbuf_r+0x20>
    66aa:	04000793          	li	a5,64
    66ae:	c01c                	sw	a5,0(s0)
    66b0:	50f6                	lw	ra,124(sp)
    66b2:	5466                	lw	s0,120(sp)
    66b4:	54d6                	lw	s1,116(sp)
    66b6:	4501                	li	a0,0
    66b8:	6109                	addi	sp,sp,128
    66ba:	8082                	ret

000066bc <__smakebuf_r>:
    66bc:	25de                	lhu	a5,12(a1)
    66be:	1101                	addi	sp,sp,-32
    66c0:	cc22                	sw	s0,24(sp)
    66c2:	ce06                	sw	ra,28(sp)
    66c4:	ca26                	sw	s1,20(sp)
    66c6:	c84a                	sw	s2,16(sp)
    66c8:	8b89                	andi	a5,a5,2
    66ca:	842e                	mv	s0,a1
    66cc:	cf89                	beqz	a5,66e6 <__smakebuf_r+0x2a>
    66ce:	04740793          	addi	a5,s0,71
    66d2:	c01c                	sw	a5,0(s0)
    66d4:	c81c                	sw	a5,16(s0)
    66d6:	4785                	li	a5,1
    66d8:	c85c                	sw	a5,20(s0)
    66da:	40f2                	lw	ra,28(sp)
    66dc:	4462                	lw	s0,24(sp)
    66de:	44d2                	lw	s1,20(sp)
    66e0:	4942                	lw	s2,16(sp)
    66e2:	6105                	addi	sp,sp,32
    66e4:	8082                	ret
    66e6:	0074                	addi	a3,sp,12
    66e8:	0030                	addi	a2,sp,8
    66ea:	84aa                	mv	s1,a0
    66ec:	f79ff0ef          	jal	ra,6664 <__swhatbuf_r>
    66f0:	45a2                	lw	a1,8(sp)
    66f2:	892a                	mv	s2,a0
    66f4:	8526                	mv	a0,s1
    66f6:	2201                	jal	67f6 <_malloc_r>
    66f8:	e919                	bnez	a0,670e <__smakebuf_r+0x52>
    66fa:	00c41783          	lh	a5,12(s0)
    66fe:	2007f713          	andi	a4,a5,512
    6702:	ff61                	bnez	a4,66da <__smakebuf_r+0x1e>
    6704:	9bf1                	andi	a5,a5,-4
    6706:	0027e793          	ori	a5,a5,2
    670a:	a45e                	sh	a5,12(s0)
    670c:	b7c9                	j	66ce <__smakebuf_r+0x12>
    670e:	00000797          	auipc	a5,0x0
    6712:	d9078793          	addi	a5,a5,-624 # 649e <_cleanup_r>
    6716:	d49c                	sw	a5,40(s1)
    6718:	245e                	lhu	a5,12(s0)
    671a:	c008                	sw	a0,0(s0)
    671c:	c808                	sw	a0,16(s0)
    671e:	0807e793          	ori	a5,a5,128
    6722:	a45e                	sh	a5,12(s0)
    6724:	47a2                	lw	a5,8(sp)
    6726:	c85c                	sw	a5,20(s0)
    6728:	47b2                	lw	a5,12(sp)
    672a:	cf81                	beqz	a5,6742 <__smakebuf_r+0x86>
    672c:	00e41583          	lh	a1,14(s0)
    6730:	8526                	mv	a0,s1
    6732:	4e1000ef          	jal	ra,7412 <_isatty_r>
    6736:	c511                	beqz	a0,6742 <__smakebuf_r+0x86>
    6738:	245e                	lhu	a5,12(s0)
    673a:	9bf1                	andi	a5,a5,-4
    673c:	0017e793          	ori	a5,a5,1
    6740:	a45e                	sh	a5,12(s0)
    6742:	245e                	lhu	a5,12(s0)
    6744:	00f96933          	or	s2,s2,a5
    6748:	01241623          	sh	s2,12(s0)
    674c:	b779                	j	66da <__smakebuf_r+0x1e>

0000674e <_free_r>:
    674e:	c1dd                	beqz	a1,67f4 <_free_r+0xa6>
    6750:	ffc5a783          	lw	a5,-4(a1)
    6754:	1141                	addi	sp,sp,-16
    6756:	c422                	sw	s0,8(sp)
    6758:	c606                	sw	ra,12(sp)
    675a:	c226                	sw	s1,4(sp)
    675c:	ffc58413          	addi	s0,a1,-4
    6760:	0007d363          	bgez	a5,6766 <_free_r+0x18>
    6764:	943e                	add	s0,s0,a5
    6766:	84aa                	mv	s1,a0
    6768:	55d000ef          	jal	ra,74c4 <__malloc_lock>
    676c:	84c18793          	addi	a5,gp,-1972 # 20000114 <__malloc_free_list>
    6770:	439c                	lw	a5,0(a5)
    6772:	ef81                	bnez	a5,678a <_free_r+0x3c>
    6774:	00042223          	sw	zero,4(s0)
    6778:	8481a623          	sw	s0,-1972(gp) # 20000114 <__malloc_free_list>
    677c:	4422                	lw	s0,8(sp)
    677e:	40b2                	lw	ra,12(sp)
    6780:	8526                	mv	a0,s1
    6782:	4492                	lw	s1,4(sp)
    6784:	0141                	addi	sp,sp,16
    6786:	5410006f          	j	74c6 <__malloc_unlock>
    678a:	00f47e63          	bgeu	s0,a5,67a6 <_free_r+0x58>
    678e:	4014                	lw	a3,0(s0)
    6790:	00d40733          	add	a4,s0,a3
    6794:	00e79663          	bne	a5,a4,67a0 <_free_r+0x52>
    6798:	4398                	lw	a4,0(a5)
    679a:	43dc                	lw	a5,4(a5)
    679c:	9736                	add	a4,a4,a3
    679e:	c018                	sw	a4,0(s0)
    67a0:	c05c                	sw	a5,4(s0)
    67a2:	bfd9                	j	6778 <_free_r+0x2a>
    67a4:	87ba                	mv	a5,a4
    67a6:	43d8                	lw	a4,4(a5)
    67a8:	c319                	beqz	a4,67ae <_free_r+0x60>
    67aa:	fee47de3          	bgeu	s0,a4,67a4 <_free_r+0x56>
    67ae:	4394                	lw	a3,0(a5)
    67b0:	00d78633          	add	a2,a5,a3
    67b4:	00861f63          	bne	a2,s0,67d2 <_free_r+0x84>
    67b8:	4010                	lw	a2,0(s0)
    67ba:	96b2                	add	a3,a3,a2
    67bc:	c394                	sw	a3,0(a5)
    67be:	00d78633          	add	a2,a5,a3
    67c2:	fac71de3          	bne	a4,a2,677c <_free_r+0x2e>
    67c6:	4310                	lw	a2,0(a4)
    67c8:	4358                	lw	a4,4(a4)
    67ca:	96b2                	add	a3,a3,a2
    67cc:	c394                	sw	a3,0(a5)
    67ce:	c3d8                	sw	a4,4(a5)
    67d0:	b775                	j	677c <_free_r+0x2e>
    67d2:	00c47563          	bgeu	s0,a2,67dc <_free_r+0x8e>
    67d6:	47b1                	li	a5,12
    67d8:	c09c                	sw	a5,0(s1)
    67da:	b74d                	j	677c <_free_r+0x2e>
    67dc:	4010                	lw	a2,0(s0)
    67de:	00c406b3          	add	a3,s0,a2
    67e2:	00d71663          	bne	a4,a3,67ee <_free_r+0xa0>
    67e6:	4314                	lw	a3,0(a4)
    67e8:	4358                	lw	a4,4(a4)
    67ea:	96b2                	add	a3,a3,a2
    67ec:	c014                	sw	a3,0(s0)
    67ee:	c058                	sw	a4,4(s0)
    67f0:	c3c0                	sw	s0,4(a5)
    67f2:	b769                	j	677c <_free_r+0x2e>
    67f4:	8082                	ret

000067f6 <_malloc_r>:
    67f6:	1101                	addi	sp,sp,-32
    67f8:	ca26                	sw	s1,20(sp)
    67fa:	00358493          	addi	s1,a1,3
    67fe:	98f1                	andi	s1,s1,-4
    6800:	ce06                	sw	ra,28(sp)
    6802:	cc22                	sw	s0,24(sp)
    6804:	c84a                	sw	s2,16(sp)
    6806:	c64e                	sw	s3,12(sp)
    6808:	04a1                	addi	s1,s1,8
    680a:	47b1                	li	a5,12
    680c:	04f4f563          	bgeu	s1,a5,6856 <_malloc_r+0x60>
    6810:	44b1                	li	s1,12
    6812:	04b4e463          	bltu	s1,a1,685a <_malloc_r+0x64>
    6816:	892a                	mv	s2,a0
    6818:	4ad000ef          	jal	ra,74c4 <__malloc_lock>
    681c:	84c18793          	addi	a5,gp,-1972 # 20000114 <__malloc_free_list>
    6820:	4398                	lw	a4,0(a5)
    6822:	843a                	mv	s0,a4
    6824:	e429                	bnez	s0,686e <_malloc_r+0x78>
    6826:	85018793          	addi	a5,gp,-1968 # 20000118 <__malloc_sbrk_start>
    682a:	439c                	lw	a5,0(a5)
    682c:	e799                	bnez	a5,683a <_malloc_r+0x44>
    682e:	4581                	li	a1,0
    6830:	854a                	mv	a0,s2
    6832:	28d000ef          	jal	ra,72be <_sbrk_r>
    6836:	84a1a823          	sw	a0,-1968(gp) # 20000118 <__malloc_sbrk_start>
    683a:	85a6                	mv	a1,s1
    683c:	854a                	mv	a0,s2
    683e:	281000ef          	jal	ra,72be <_sbrk_r>
    6842:	59fd                	li	s3,-1
    6844:	07351963          	bne	a0,s3,68b6 <_malloc_r+0xc0>
    6848:	47b1                	li	a5,12
    684a:	00f92023          	sw	a5,0(s2)
    684e:	854a                	mv	a0,s2
    6850:	477000ef          	jal	ra,74c6 <__malloc_unlock>
    6854:	a029                	j	685e <_malloc_r+0x68>
    6856:	fa04dee3          	bgez	s1,6812 <_malloc_r+0x1c>
    685a:	47b1                	li	a5,12
    685c:	c11c                	sw	a5,0(a0)
    685e:	4501                	li	a0,0
    6860:	40f2                	lw	ra,28(sp)
    6862:	4462                	lw	s0,24(sp)
    6864:	44d2                	lw	s1,20(sp)
    6866:	4942                	lw	s2,16(sp)
    6868:	49b2                	lw	s3,12(sp)
    686a:	6105                	addi	sp,sp,32
    686c:	8082                	ret
    686e:	401c                	lw	a5,0(s0)
    6870:	8f85                	sub	a5,a5,s1
    6872:	0207cf63          	bltz	a5,68b0 <_malloc_r+0xba>
    6876:	46ad                	li	a3,11
    6878:	00f6f663          	bgeu	a3,a5,6884 <_malloc_r+0x8e>
    687c:	c01c                	sw	a5,0(s0)
    687e:	943e                	add	s0,s0,a5
    6880:	c004                	sw	s1,0(s0)
    6882:	a031                	j	688e <_malloc_r+0x98>
    6884:	405c                	lw	a5,4(s0)
    6886:	02871363          	bne	a4,s0,68ac <_malloc_r+0xb6>
    688a:	84f1a623          	sw	a5,-1972(gp) # 20000114 <__malloc_free_list>
    688e:	854a                	mv	a0,s2
    6890:	437000ef          	jal	ra,74c6 <__malloc_unlock>
    6894:	00b40513          	addi	a0,s0,11
    6898:	00440793          	addi	a5,s0,4
    689c:	9961                	andi	a0,a0,-8
    689e:	40f50733          	sub	a4,a0,a5
    68a2:	df5d                	beqz	a4,6860 <_malloc_r+0x6a>
    68a4:	943a                	add	s0,s0,a4
    68a6:	8f89                	sub	a5,a5,a0
    68a8:	c01c                	sw	a5,0(s0)
    68aa:	bf5d                	j	6860 <_malloc_r+0x6a>
    68ac:	c35c                	sw	a5,4(a4)
    68ae:	b7c5                	j	688e <_malloc_r+0x98>
    68b0:	8722                	mv	a4,s0
    68b2:	4040                	lw	s0,4(s0)
    68b4:	bf85                	j	6824 <_malloc_r+0x2e>
    68b6:	00350413          	addi	s0,a0,3
    68ba:	9871                	andi	s0,s0,-4
    68bc:	fc8502e3          	beq	a0,s0,6880 <_malloc_r+0x8a>
    68c0:	40a405b3          	sub	a1,s0,a0
    68c4:	854a                	mv	a0,s2
    68c6:	1f9000ef          	jal	ra,72be <_sbrk_r>
    68ca:	fb351be3          	bne	a0,s3,6880 <_malloc_r+0x8a>
    68ce:	bfad                	j	6848 <_malloc_r+0x52>

000068d0 <__ssputs_r>:
    68d0:	1101                	addi	sp,sp,-32
    68d2:	c84a                	sw	s2,16(sp)
    68d4:	0085a903          	lw	s2,8(a1)
    68d8:	cc22                	sw	s0,24(sp)
    68da:	c452                	sw	s4,8(sp)
    68dc:	c05a                	sw	s6,0(sp)
    68de:	ce06                	sw	ra,28(sp)
    68e0:	ca26                	sw	s1,20(sp)
    68e2:	c64e                	sw	s3,12(sp)
    68e4:	c256                	sw	s5,4(sp)
    68e6:	842e                	mv	s0,a1
    68e8:	8b32                	mv	s6,a2
    68ea:	8a36                	mv	s4,a3
    68ec:	0926e963          	bltu	a3,s2,697e <__ssputs_r+0xae>
    68f0:	25de                	lhu	a5,12(a1)
    68f2:	4807f713          	andi	a4,a5,1152
    68f6:	c351                	beqz	a4,697a <__ssputs_r+0xaa>
    68f8:	4004                	lw	s1,0(s0)
    68fa:	498c                	lw	a1,16(a1)
    68fc:	4858                	lw	a4,20(s0)
    68fe:	8aaa                	mv	s5,a0
    6900:	40b489b3          	sub	s3,s1,a1
    6904:	448d                	li	s1,3
    6906:	02e484b3          	mul	s1,s1,a4
    690a:	4709                	li	a4,2
    690c:	02e4c4b3          	div	s1,s1,a4
    6910:	00168713          	addi	a4,a3,1
    6914:	974e                	add	a4,a4,s3
    6916:	00e4f363          	bgeu	s1,a4,691c <__ssputs_r+0x4c>
    691a:	84ba                	mv	s1,a4
    691c:	4007f793          	andi	a5,a5,1024
    6920:	cfbd                	beqz	a5,699e <__ssputs_r+0xce>
    6922:	85a6                	mv	a1,s1
    6924:	8556                	mv	a0,s5
    6926:	ed1ff0ef          	jal	ra,67f6 <_malloc_r>
    692a:	892a                	mv	s2,a0
    692c:	e11d                	bnez	a0,6952 <__ssputs_r+0x82>
    692e:	47b1                	li	a5,12
    6930:	00faa023          	sw	a5,0(s5)
    6934:	245e                	lhu	a5,12(s0)
    6936:	557d                	li	a0,-1
    6938:	0407e793          	ori	a5,a5,64
    693c:	a45e                	sh	a5,12(s0)
    693e:	40f2                	lw	ra,28(sp)
    6940:	4462                	lw	s0,24(sp)
    6942:	44d2                	lw	s1,20(sp)
    6944:	4942                	lw	s2,16(sp)
    6946:	49b2                	lw	s3,12(sp)
    6948:	4a22                	lw	s4,8(sp)
    694a:	4a92                	lw	s5,4(sp)
    694c:	4b02                	lw	s6,0(sp)
    694e:	6105                	addi	sp,sp,32
    6950:	8082                	ret
    6952:	480c                	lw	a1,16(s0)
    6954:	864e                	mv	a2,s3
    6956:	d7cff0ef          	jal	ra,5ed2 <memcpy>
    695a:	245e                	lhu	a5,12(s0)
    695c:	b7f7f793          	andi	a5,a5,-1153
    6960:	0807e793          	ori	a5,a5,128
    6964:	a45e                	sh	a5,12(s0)
    6966:	01242823          	sw	s2,16(s0)
    696a:	c844                	sw	s1,20(s0)
    696c:	994e                	add	s2,s2,s3
    696e:	413484b3          	sub	s1,s1,s3
    6972:	01242023          	sw	s2,0(s0)
    6976:	c404                	sw	s1,8(s0)
    6978:	8952                	mv	s2,s4
    697a:	012a7363          	bgeu	s4,s2,6980 <__ssputs_r+0xb0>
    697e:	8952                	mv	s2,s4
    6980:	4008                	lw	a0,0(s0)
    6982:	864a                	mv	a2,s2
    6984:	85da                	mv	a1,s6
    6986:	2f9000ef          	jal	ra,747e <memmove>
    698a:	441c                	lw	a5,8(s0)
    698c:	4501                	li	a0,0
    698e:	412787b3          	sub	a5,a5,s2
    6992:	c41c                	sw	a5,8(s0)
    6994:	401c                	lw	a5,0(s0)
    6996:	993e                	add	s2,s2,a5
    6998:	01242023          	sw	s2,0(s0)
    699c:	b74d                	j	693e <__ssputs_r+0x6e>
    699e:	8626                	mv	a2,s1
    69a0:	8556                	mv	a0,s5
    69a2:	327000ef          	jal	ra,74c8 <_realloc_r>
    69a6:	892a                	mv	s2,a0
    69a8:	fd5d                	bnez	a0,6966 <__ssputs_r+0x96>
    69aa:	480c                	lw	a1,16(s0)
    69ac:	8556                	mv	a0,s5
    69ae:	da1ff0ef          	jal	ra,674e <_free_r>
    69b2:	bfb5                	j	692e <__ssputs_r+0x5e>

000069b4 <_svfiprintf_r>:
    69b4:	25de                	lhu	a5,12(a1)
    69b6:	7171                	addi	sp,sp,-176
    69b8:	d326                	sw	s1,164(sp)
    69ba:	d14a                	sw	s2,160(sp)
    69bc:	cf4e                	sw	s3,156(sp)
    69be:	d706                	sw	ra,172(sp)
    69c0:	d522                	sw	s0,168(sp)
    69c2:	cd52                	sw	s4,152(sp)
    69c4:	cb56                	sw	s5,148(sp)
    69c6:	c95a                	sw	s6,144(sp)
    69c8:	c75e                	sw	s7,140(sp)
    69ca:	c562                	sw	s8,136(sp)
    69cc:	c366                	sw	s9,132(sp)
    69ce:	0807f793          	andi	a5,a5,128
    69d2:	89aa                	mv	s3,a0
    69d4:	892e                	mv	s2,a1
    69d6:	84b2                	mv	s1,a2
    69d8:	c3b9                	beqz	a5,6a1e <_svfiprintf_r+0x6a>
    69da:	499c                	lw	a5,16(a1)
    69dc:	e3a9                	bnez	a5,6a1e <_svfiprintf_r+0x6a>
    69de:	04000593          	li	a1,64
    69e2:	c636                	sw	a3,12(sp)
    69e4:	e13ff0ef          	jal	ra,67f6 <_malloc_r>
    69e8:	00a92023          	sw	a0,0(s2)
    69ec:	00a92823          	sw	a0,16(s2)
    69f0:	46b2                	lw	a3,12(sp)
    69f2:	e115                	bnez	a0,6a16 <_svfiprintf_r+0x62>
    69f4:	47b1                	li	a5,12
    69f6:	00f9a023          	sw	a5,0(s3)
    69fa:	557d                	li	a0,-1
    69fc:	50ba                	lw	ra,172(sp)
    69fe:	542a                	lw	s0,168(sp)
    6a00:	549a                	lw	s1,164(sp)
    6a02:	590a                	lw	s2,160(sp)
    6a04:	49fa                	lw	s3,156(sp)
    6a06:	4a6a                	lw	s4,152(sp)
    6a08:	4ada                	lw	s5,148(sp)
    6a0a:	4b4a                	lw	s6,144(sp)
    6a0c:	4bba                	lw	s7,140(sp)
    6a0e:	4c2a                	lw	s8,136(sp)
    6a10:	4c9a                	lw	s9,132(sp)
    6a12:	614d                	addi	sp,sp,176
    6a14:	8082                	ret
    6a16:	04000793          	li	a5,64
    6a1a:	00f92a23          	sw	a5,20(s2)
    6a1e:	02000793          	li	a5,32
    6a22:	02f10ca3          	sb	a5,57(sp)
    6a26:	03000793          	li	a5,48
    6a2a:	da02                	sw	zero,52(sp)
    6a2c:	02f10d23          	sb	a5,58(sp)
    6a30:	ce36                	sw	a3,28(sp)
    6a32:	02500b93          	li	s7,37
    6a36:	00002a97          	auipc	s5,0x2
    6a3a:	e62a8a93          	addi	s5,s5,-414 # 8898 <__sf_fake_stdout+0x20>
    6a3e:	4c05                	li	s8,1
    6a40:	4b29                	li	s6,10
    6a42:	8426                	mv	s0,s1
    6a44:	201c                	lbu	a5,0(s0)
    6a46:	c399                	beqz	a5,6a4c <_svfiprintf_r+0x98>
    6a48:	09779963          	bne	a5,s7,6ada <_svfiprintf_r+0x126>
    6a4c:	40940cb3          	sub	s9,s0,s1
    6a50:	000c8e63          	beqz	s9,6a6c <_svfiprintf_r+0xb8>
    6a54:	86e6                	mv	a3,s9
    6a56:	8626                	mv	a2,s1
    6a58:	85ca                	mv	a1,s2
    6a5a:	854e                	mv	a0,s3
    6a5c:	e75ff0ef          	jal	ra,68d0 <__ssputs_r>
    6a60:	57fd                	li	a5,-1
    6a62:	18f50b63          	beq	a0,a5,6bf8 <_svfiprintf_r+0x244>
    6a66:	56d2                	lw	a3,52(sp)
    6a68:	96e6                	add	a3,a3,s9
    6a6a:	da36                	sw	a3,52(sp)
    6a6c:	201c                	lbu	a5,0(s0)
    6a6e:	18078563          	beqz	a5,6bf8 <_svfiprintf_r+0x244>
    6a72:	57fd                	li	a5,-1
    6a74:	00140493          	addi	s1,s0,1
    6a78:	d002                	sw	zero,32(sp)
    6a7a:	d602                	sw	zero,44(sp)
    6a7c:	d23e                	sw	a5,36(sp)
    6a7e:	d402                	sw	zero,40(sp)
    6a80:	060101a3          	sb	zero,99(sp)
    6a84:	dc82                	sw	zero,120(sp)
    6a86:	208c                	lbu	a1,0(s1)
    6a88:	4615                	li	a2,5
    6a8a:	8556                	mv	a0,s5
    6a8c:	1db000ef          	jal	ra,7466 <memchr>
    6a90:	00148413          	addi	s0,s1,1
    6a94:	5782                	lw	a5,32(sp)
    6a96:	e521                	bnez	a0,6ade <_svfiprintf_r+0x12a>
    6a98:	0107f713          	andi	a4,a5,16
    6a9c:	c709                	beqz	a4,6aa6 <_svfiprintf_r+0xf2>
    6a9e:	02000713          	li	a4,32
    6aa2:	06e101a3          	sb	a4,99(sp)
    6aa6:	0087f713          	andi	a4,a5,8
    6aaa:	c709                	beqz	a4,6ab4 <_svfiprintf_r+0x100>
    6aac:	02b00713          	li	a4,43
    6ab0:	06e101a3          	sb	a4,99(sp)
    6ab4:	2094                	lbu	a3,0(s1)
    6ab6:	02a00713          	li	a4,42
    6aba:	02e68a63          	beq	a3,a4,6aee <_svfiprintf_r+0x13a>
    6abe:	57b2                	lw	a5,44(sp)
    6ac0:	8426                	mv	s0,s1
    6ac2:	4681                	li	a3,0
    6ac4:	4625                	li	a2,9
    6ac6:	2018                	lbu	a4,0(s0)
    6ac8:	00140593          	addi	a1,s0,1
    6acc:	fd070713          	addi	a4,a4,-48 # ffffdfd0 <_eusrstack+0xdfff5fd0>
    6ad0:	06e67263          	bgeu	a2,a4,6b34 <_svfiprintf_r+0x180>
    6ad4:	c68d                	beqz	a3,6afe <_svfiprintf_r+0x14a>
    6ad6:	d63e                	sw	a5,44(sp)
    6ad8:	a01d                	j	6afe <_svfiprintf_r+0x14a>
    6ada:	0405                	addi	s0,s0,1
    6adc:	b7a5                	j	6a44 <_svfiprintf_r+0x90>
    6ade:	41550533          	sub	a0,a0,s5
    6ae2:	00ac1533          	sll	a0,s8,a0
    6ae6:	8fc9                	or	a5,a5,a0
    6ae8:	d03e                	sw	a5,32(sp)
    6aea:	84a2                	mv	s1,s0
    6aec:	bf69                	j	6a86 <_svfiprintf_r+0xd2>
    6aee:	4772                	lw	a4,28(sp)
    6af0:	00470693          	addi	a3,a4,4
    6af4:	4318                	lw	a4,0(a4)
    6af6:	ce36                	sw	a3,28(sp)
    6af8:	02074763          	bltz	a4,6b26 <_svfiprintf_r+0x172>
    6afc:	d63a                	sw	a4,44(sp)
    6afe:	2018                	lbu	a4,0(s0)
    6b00:	02e00793          	li	a5,46
    6b04:	04f71d63          	bne	a4,a5,6b5e <_svfiprintf_r+0x1aa>
    6b08:	3018                	lbu	a4,1(s0)
    6b0a:	02a00793          	li	a5,42
    6b0e:	02f71b63          	bne	a4,a5,6b44 <_svfiprintf_r+0x190>
    6b12:	47f2                	lw	a5,28(sp)
    6b14:	0409                	addi	s0,s0,2
    6b16:	00478713          	addi	a4,a5,4
    6b1a:	439c                	lw	a5,0(a5)
    6b1c:	ce3a                	sw	a4,28(sp)
    6b1e:	0207c163          	bltz	a5,6b40 <_svfiprintf_r+0x18c>
    6b22:	d23e                	sw	a5,36(sp)
    6b24:	a82d                	j	6b5e <_svfiprintf_r+0x1aa>
    6b26:	40e00733          	neg	a4,a4
    6b2a:	0027e793          	ori	a5,a5,2
    6b2e:	d63a                	sw	a4,44(sp)
    6b30:	d03e                	sw	a5,32(sp)
    6b32:	b7f1                	j	6afe <_svfiprintf_r+0x14a>
    6b34:	036787b3          	mul	a5,a5,s6
    6b38:	4685                	li	a3,1
    6b3a:	842e                	mv	s0,a1
    6b3c:	97ba                	add	a5,a5,a4
    6b3e:	b761                	j	6ac6 <_svfiprintf_r+0x112>
    6b40:	57fd                	li	a5,-1
    6b42:	b7c5                	j	6b22 <_svfiprintf_r+0x16e>
    6b44:	0405                	addi	s0,s0,1
    6b46:	d202                	sw	zero,36(sp)
    6b48:	4681                	li	a3,0
    6b4a:	4781                	li	a5,0
    6b4c:	4625                	li	a2,9
    6b4e:	2018                	lbu	a4,0(s0)
    6b50:	00140593          	addi	a1,s0,1
    6b54:	fd070713          	addi	a4,a4,-48
    6b58:	06e67663          	bgeu	a2,a4,6bc4 <_svfiprintf_r+0x210>
    6b5c:	f2f9                	bnez	a3,6b22 <_svfiprintf_r+0x16e>
    6b5e:	200c                	lbu	a1,0(s0)
    6b60:	460d                	li	a2,3
    6b62:	00002517          	auipc	a0,0x2
    6b66:	d3e50513          	addi	a0,a0,-706 # 88a0 <__sf_fake_stdout+0x28>
    6b6a:	0fd000ef          	jal	ra,7466 <memchr>
    6b6e:	cd11                	beqz	a0,6b8a <_svfiprintf_r+0x1d6>
    6b70:	00002797          	auipc	a5,0x2
    6b74:	d3078793          	addi	a5,a5,-720 # 88a0 <__sf_fake_stdout+0x28>
    6b78:	8d1d                	sub	a0,a0,a5
    6b7a:	04000793          	li	a5,64
    6b7e:	00a797b3          	sll	a5,a5,a0
    6b82:	5502                	lw	a0,32(sp)
    6b84:	0405                	addi	s0,s0,1
    6b86:	8d5d                	or	a0,a0,a5
    6b88:	d02a                	sw	a0,32(sp)
    6b8a:	200c                	lbu	a1,0(s0)
    6b8c:	4619                	li	a2,6
    6b8e:	00002517          	auipc	a0,0x2
    6b92:	d1650513          	addi	a0,a0,-746 # 88a4 <__sf_fake_stdout+0x2c>
    6b96:	00140493          	addi	s1,s0,1
    6b9a:	02b10c23          	sb	a1,56(sp)
    6b9e:	0c9000ef          	jal	ra,7466 <memchr>
    6ba2:	c525                	beqz	a0,6c0a <_svfiprintf_r+0x256>
    6ba4:	ffff9797          	auipc	a5,0xffff9
    6ba8:	45c78793          	addi	a5,a5,1116 # 0 <_sinit>
    6bac:	e795                	bnez	a5,6bd8 <_svfiprintf_r+0x224>
    6bae:	5702                	lw	a4,32(sp)
    6bb0:	47f2                	lw	a5,28(sp)
    6bb2:	10077713          	andi	a4,a4,256
    6bb6:	cf09                	beqz	a4,6bd0 <_svfiprintf_r+0x21c>
    6bb8:	0791                	addi	a5,a5,4
    6bba:	ce3e                	sw	a5,28(sp)
    6bbc:	57d2                	lw	a5,52(sp)
    6bbe:	97d2                	add	a5,a5,s4
    6bc0:	da3e                	sw	a5,52(sp)
    6bc2:	b541                	j	6a42 <_svfiprintf_r+0x8e>
    6bc4:	036787b3          	mul	a5,a5,s6
    6bc8:	4685                	li	a3,1
    6bca:	842e                	mv	s0,a1
    6bcc:	97ba                	add	a5,a5,a4
    6bce:	b741                	j	6b4e <_svfiprintf_r+0x19a>
    6bd0:	079d                	addi	a5,a5,7
    6bd2:	9be1                	andi	a5,a5,-8
    6bd4:	07a1                	addi	a5,a5,8
    6bd6:	b7d5                	j	6bba <_svfiprintf_r+0x206>
    6bd8:	0878                	addi	a4,sp,28
    6bda:	00000697          	auipc	a3,0x0
    6bde:	cf668693          	addi	a3,a3,-778 # 68d0 <__ssputs_r>
    6be2:	864a                	mv	a2,s2
    6be4:	100c                	addi	a1,sp,32
    6be6:	854e                	mv	a0,s3
    6be8:	00000097          	auipc	ra,0x0
    6bec:	000000e7          	jalr	zero # 0 <_sinit>
    6bf0:	57fd                	li	a5,-1
    6bf2:	8a2a                	mv	s4,a0
    6bf4:	fcf514e3          	bne	a0,a5,6bbc <_svfiprintf_r+0x208>
    6bf8:	00c95783          	lhu	a5,12(s2)
    6bfc:	557d                	li	a0,-1
    6bfe:	0407f793          	andi	a5,a5,64
    6c02:	de079de3          	bnez	a5,69fc <_svfiprintf_r+0x48>
    6c06:	5552                	lw	a0,52(sp)
    6c08:	bbd5                	j	69fc <_svfiprintf_r+0x48>
    6c0a:	0878                	addi	a4,sp,28
    6c0c:	00000697          	auipc	a3,0x0
    6c10:	cc468693          	addi	a3,a3,-828 # 68d0 <__ssputs_r>
    6c14:	864a                	mv	a2,s2
    6c16:	100c                	addi	a1,sp,32
    6c18:	854e                	mv	a0,s3
    6c1a:	2109                	jal	701c <_printf_i>
    6c1c:	bfd1                	j	6bf0 <_svfiprintf_r+0x23c>

00006c1e <__sfputc_r>:
    6c1e:	461c                	lw	a5,8(a2)
    6c20:	17fd                	addi	a5,a5,-1
    6c22:	c61c                	sw	a5,8(a2)
    6c24:	0007da63          	bgez	a5,6c38 <__sfputc_r+0x1a>
    6c28:	4e18                	lw	a4,24(a2)
    6c2a:	00e7c563          	blt	a5,a4,6c34 <__sfputc_r+0x16>
    6c2e:	47a9                	li	a5,10
    6c30:	00f59463          	bne	a1,a5,6c38 <__sfputc_r+0x1a>
    6c34:	cb6ff06f          	j	60ea <__swbuf_r>
    6c38:	421c                	lw	a5,0(a2)
    6c3a:	852e                	mv	a0,a1
    6c3c:	00178713          	addi	a4,a5,1
    6c40:	c218                	sw	a4,0(a2)
    6c42:	a38c                	sb	a1,0(a5)
    6c44:	8082                	ret

00006c46 <__sfputs_r>:
    6c46:	1101                	addi	sp,sp,-32
    6c48:	cc22                	sw	s0,24(sp)
    6c4a:	ca26                	sw	s1,20(sp)
    6c4c:	c84a                	sw	s2,16(sp)
    6c4e:	c64e                	sw	s3,12(sp)
    6c50:	c452                	sw	s4,8(sp)
    6c52:	ce06                	sw	ra,28(sp)
    6c54:	892a                	mv	s2,a0
    6c56:	89ae                	mv	s3,a1
    6c58:	8432                	mv	s0,a2
    6c5a:	00d604b3          	add	s1,a2,a3
    6c5e:	5a7d                	li	s4,-1
    6c60:	00941463          	bne	s0,s1,6c68 <__sfputs_r+0x22>
    6c64:	4501                	li	a0,0
    6c66:	a809                	j	6c78 <__sfputs_r+0x32>
    6c68:	200c                	lbu	a1,0(s0)
    6c6a:	864e                	mv	a2,s3
    6c6c:	854a                	mv	a0,s2
    6c6e:	fb1ff0ef          	jal	ra,6c1e <__sfputc_r>
    6c72:	0405                	addi	s0,s0,1
    6c74:	ff4516e3          	bne	a0,s4,6c60 <__sfputs_r+0x1a>
    6c78:	40f2                	lw	ra,28(sp)
    6c7a:	4462                	lw	s0,24(sp)
    6c7c:	44d2                	lw	s1,20(sp)
    6c7e:	4942                	lw	s2,16(sp)
    6c80:	49b2                	lw	s3,12(sp)
    6c82:	4a22                	lw	s4,8(sp)
    6c84:	6105                	addi	sp,sp,32
    6c86:	8082                	ret

00006c88 <_vfiprintf_r>:
    6c88:	7135                	addi	sp,sp,-160
    6c8a:	cd22                	sw	s0,152(sp)
    6c8c:	cb26                	sw	s1,148(sp)
    6c8e:	c94a                	sw	s2,144(sp)
    6c90:	c74e                	sw	s3,140(sp)
    6c92:	cf06                	sw	ra,156(sp)
    6c94:	c552                	sw	s4,136(sp)
    6c96:	c356                	sw	s5,132(sp)
    6c98:	c15a                	sw	s6,128(sp)
    6c9a:	dede                	sw	s7,124(sp)
    6c9c:	dce2                	sw	s8,120(sp)
    6c9e:	dae6                	sw	s9,116(sp)
    6ca0:	89aa                	mv	s3,a0
    6ca2:	84ae                	mv	s1,a1
    6ca4:	8932                	mv	s2,a2
    6ca6:	8436                	mv	s0,a3
    6ca8:	c509                	beqz	a0,6cb2 <_vfiprintf_r+0x2a>
    6caa:	4d1c                	lw	a5,24(a0)
    6cac:	e399                	bnez	a5,6cb2 <_vfiprintf_r+0x2a>
    6cae:	841ff0ef          	jal	ra,64ee <__sinit>
    6cb2:	00002797          	auipc	a5,0x2
    6cb6:	ba678793          	addi	a5,a5,-1114 # 8858 <__sf_fake_stdin>
    6cba:	0cf49863          	bne	s1,a5,6d8a <_vfiprintf_r+0x102>
    6cbe:	0049a483          	lw	s1,4(s3)
    6cc2:	24de                	lhu	a5,12(s1)
    6cc4:	8ba1                	andi	a5,a5,8
    6cc6:	c7e5                	beqz	a5,6dae <_vfiprintf_r+0x126>
    6cc8:	489c                	lw	a5,16(s1)
    6cca:	c3f5                	beqz	a5,6dae <_vfiprintf_r+0x126>
    6ccc:	02000793          	li	a5,32
    6cd0:	02f104a3          	sb	a5,41(sp)
    6cd4:	03000793          	li	a5,48
    6cd8:	d202                	sw	zero,36(sp)
    6cda:	02f10523          	sb	a5,42(sp)
    6cde:	c622                	sw	s0,12(sp)
    6ce0:	02500b93          	li	s7,37
    6ce4:	00002a97          	auipc	s5,0x2
    6ce8:	bb4a8a93          	addi	s5,s5,-1100 # 8898 <__sf_fake_stdout+0x20>
    6cec:	4c05                	li	s8,1
    6cee:	4b29                	li	s6,10
    6cf0:	844a                	mv	s0,s2
    6cf2:	201c                	lbu	a5,0(s0)
    6cf4:	c399                	beqz	a5,6cfa <_vfiprintf_r+0x72>
    6cf6:	0d779f63          	bne	a5,s7,6dd4 <_vfiprintf_r+0x14c>
    6cfa:	41240cb3          	sub	s9,s0,s2
    6cfe:	000c8e63          	beqz	s9,6d1a <_vfiprintf_r+0x92>
    6d02:	86e6                	mv	a3,s9
    6d04:	864a                	mv	a2,s2
    6d06:	85a6                	mv	a1,s1
    6d08:	854e                	mv	a0,s3
    6d0a:	f3dff0ef          	jal	ra,6c46 <__sfputs_r>
    6d0e:	57fd                	li	a5,-1
    6d10:	1cf50f63          	beq	a0,a5,6eee <_vfiprintf_r+0x266>
    6d14:	5692                	lw	a3,36(sp)
    6d16:	96e6                	add	a3,a3,s9
    6d18:	d236                	sw	a3,36(sp)
    6d1a:	201c                	lbu	a5,0(s0)
    6d1c:	1c078963          	beqz	a5,6eee <_vfiprintf_r+0x266>
    6d20:	57fd                	li	a5,-1
    6d22:	00140913          	addi	s2,s0,1
    6d26:	c802                	sw	zero,16(sp)
    6d28:	ce02                	sw	zero,28(sp)
    6d2a:	ca3e                	sw	a5,20(sp)
    6d2c:	cc02                	sw	zero,24(sp)
    6d2e:	040109a3          	sb	zero,83(sp)
    6d32:	d482                	sw	zero,104(sp)
    6d34:	00094583          	lbu	a1,0(s2)
    6d38:	4615                	li	a2,5
    6d3a:	8556                	mv	a0,s5
    6d3c:	272d                	jal	7466 <memchr>
    6d3e:	00190413          	addi	s0,s2,1
    6d42:	47c2                	lw	a5,16(sp)
    6d44:	e951                	bnez	a0,6dd8 <_vfiprintf_r+0x150>
    6d46:	0107f713          	andi	a4,a5,16
    6d4a:	c709                	beqz	a4,6d54 <_vfiprintf_r+0xcc>
    6d4c:	02000713          	li	a4,32
    6d50:	04e109a3          	sb	a4,83(sp)
    6d54:	0087f713          	andi	a4,a5,8
    6d58:	c709                	beqz	a4,6d62 <_vfiprintf_r+0xda>
    6d5a:	02b00713          	li	a4,43
    6d5e:	04e109a3          	sb	a4,83(sp)
    6d62:	00094683          	lbu	a3,0(s2)
    6d66:	02a00713          	li	a4,42
    6d6a:	06e68f63          	beq	a3,a4,6de8 <_vfiprintf_r+0x160>
    6d6e:	47f2                	lw	a5,28(sp)
    6d70:	844a                	mv	s0,s2
    6d72:	4681                	li	a3,0
    6d74:	4625                	li	a2,9
    6d76:	2018                	lbu	a4,0(s0)
    6d78:	00140593          	addi	a1,s0,1
    6d7c:	fd070713          	addi	a4,a4,-48
    6d80:	0ae67763          	bgeu	a2,a4,6e2e <_vfiprintf_r+0x1a6>
    6d84:	cab5                	beqz	a3,6df8 <_vfiprintf_r+0x170>
    6d86:	ce3e                	sw	a5,28(sp)
    6d88:	a885                	j	6df8 <_vfiprintf_r+0x170>
    6d8a:	00002797          	auipc	a5,0x2
    6d8e:	aee78793          	addi	a5,a5,-1298 # 8878 <__sf_fake_stdout>
    6d92:	00f49563          	bne	s1,a5,6d9c <_vfiprintf_r+0x114>
    6d96:	0089a483          	lw	s1,8(s3)
    6d9a:	b725                	j	6cc2 <_vfiprintf_r+0x3a>
    6d9c:	00002797          	auipc	a5,0x2
    6da0:	a9c78793          	addi	a5,a5,-1380 # 8838 <__sf_fake_stderr>
    6da4:	f0f49fe3          	bne	s1,a5,6cc2 <_vfiprintf_r+0x3a>
    6da8:	00c9a483          	lw	s1,12(s3)
    6dac:	bf19                	j	6cc2 <_vfiprintf_r+0x3a>
    6dae:	85a6                	mv	a1,s1
    6db0:	854e                	mv	a0,s3
    6db2:	bf4ff0ef          	jal	ra,61a6 <__swsetup_r>
    6db6:	d919                	beqz	a0,6ccc <_vfiprintf_r+0x44>
    6db8:	557d                	li	a0,-1
    6dba:	40fa                	lw	ra,156(sp)
    6dbc:	446a                	lw	s0,152(sp)
    6dbe:	44da                	lw	s1,148(sp)
    6dc0:	494a                	lw	s2,144(sp)
    6dc2:	49ba                	lw	s3,140(sp)
    6dc4:	4a2a                	lw	s4,136(sp)
    6dc6:	4a9a                	lw	s5,132(sp)
    6dc8:	4b0a                	lw	s6,128(sp)
    6dca:	5bf6                	lw	s7,124(sp)
    6dcc:	5c66                	lw	s8,120(sp)
    6dce:	5cd6                	lw	s9,116(sp)
    6dd0:	610d                	addi	sp,sp,160
    6dd2:	8082                	ret
    6dd4:	0405                	addi	s0,s0,1
    6dd6:	bf31                	j	6cf2 <_vfiprintf_r+0x6a>
    6dd8:	41550533          	sub	a0,a0,s5
    6ddc:	00ac1533          	sll	a0,s8,a0
    6de0:	8fc9                	or	a5,a5,a0
    6de2:	c83e                	sw	a5,16(sp)
    6de4:	8922                	mv	s2,s0
    6de6:	b7b9                	j	6d34 <_vfiprintf_r+0xac>
    6de8:	4732                	lw	a4,12(sp)
    6dea:	00470693          	addi	a3,a4,4
    6dee:	4318                	lw	a4,0(a4)
    6df0:	c636                	sw	a3,12(sp)
    6df2:	02074763          	bltz	a4,6e20 <_vfiprintf_r+0x198>
    6df6:	ce3a                	sw	a4,28(sp)
    6df8:	2018                	lbu	a4,0(s0)
    6dfa:	02e00793          	li	a5,46
    6dfe:	04f71d63          	bne	a4,a5,6e58 <_vfiprintf_r+0x1d0>
    6e02:	3018                	lbu	a4,1(s0)
    6e04:	02a00793          	li	a5,42
    6e08:	02f71b63          	bne	a4,a5,6e3e <_vfiprintf_r+0x1b6>
    6e0c:	47b2                	lw	a5,12(sp)
    6e0e:	0409                	addi	s0,s0,2
    6e10:	00478713          	addi	a4,a5,4
    6e14:	439c                	lw	a5,0(a5)
    6e16:	c63a                	sw	a4,12(sp)
    6e18:	0207c163          	bltz	a5,6e3a <_vfiprintf_r+0x1b2>
    6e1c:	ca3e                	sw	a5,20(sp)
    6e1e:	a82d                	j	6e58 <_vfiprintf_r+0x1d0>
    6e20:	40e00733          	neg	a4,a4
    6e24:	0027e793          	ori	a5,a5,2
    6e28:	ce3a                	sw	a4,28(sp)
    6e2a:	c83e                	sw	a5,16(sp)
    6e2c:	b7f1                	j	6df8 <_vfiprintf_r+0x170>
    6e2e:	036787b3          	mul	a5,a5,s6
    6e32:	4685                	li	a3,1
    6e34:	842e                	mv	s0,a1
    6e36:	97ba                	add	a5,a5,a4
    6e38:	bf3d                	j	6d76 <_vfiprintf_r+0xee>
    6e3a:	57fd                	li	a5,-1
    6e3c:	b7c5                	j	6e1c <_vfiprintf_r+0x194>
    6e3e:	0405                	addi	s0,s0,1
    6e40:	ca02                	sw	zero,20(sp)
    6e42:	4681                	li	a3,0
    6e44:	4781                	li	a5,0
    6e46:	4625                	li	a2,9
    6e48:	2018                	lbu	a4,0(s0)
    6e4a:	00140593          	addi	a1,s0,1
    6e4e:	fd070713          	addi	a4,a4,-48
    6e52:	06e67463          	bgeu	a2,a4,6eba <_vfiprintf_r+0x232>
    6e56:	f2f9                	bnez	a3,6e1c <_vfiprintf_r+0x194>
    6e58:	200c                	lbu	a1,0(s0)
    6e5a:	460d                	li	a2,3
    6e5c:	00002517          	auipc	a0,0x2
    6e60:	a4450513          	addi	a0,a0,-1468 # 88a0 <__sf_fake_stdout+0x28>
    6e64:	2509                	jal	7466 <memchr>
    6e66:	cd11                	beqz	a0,6e82 <_vfiprintf_r+0x1fa>
    6e68:	00002797          	auipc	a5,0x2
    6e6c:	a3878793          	addi	a5,a5,-1480 # 88a0 <__sf_fake_stdout+0x28>
    6e70:	8d1d                	sub	a0,a0,a5
    6e72:	04000793          	li	a5,64
    6e76:	00a797b3          	sll	a5,a5,a0
    6e7a:	4542                	lw	a0,16(sp)
    6e7c:	0405                	addi	s0,s0,1
    6e7e:	8d5d                	or	a0,a0,a5
    6e80:	c82a                	sw	a0,16(sp)
    6e82:	200c                	lbu	a1,0(s0)
    6e84:	4619                	li	a2,6
    6e86:	00002517          	auipc	a0,0x2
    6e8a:	a1e50513          	addi	a0,a0,-1506 # 88a4 <__sf_fake_stdout+0x2c>
    6e8e:	00140913          	addi	s2,s0,1
    6e92:	02b10423          	sb	a1,40(sp)
    6e96:	2bc1                	jal	7466 <memchr>
    6e98:	c135                	beqz	a0,6efc <_vfiprintf_r+0x274>
    6e9a:	ffff9797          	auipc	a5,0xffff9
    6e9e:	16678793          	addi	a5,a5,358 # 0 <_sinit>
    6ea2:	e795                	bnez	a5,6ece <_vfiprintf_r+0x246>
    6ea4:	4742                	lw	a4,16(sp)
    6ea6:	47b2                	lw	a5,12(sp)
    6ea8:	10077713          	andi	a4,a4,256
    6eac:	cf09                	beqz	a4,6ec6 <_vfiprintf_r+0x23e>
    6eae:	0791                	addi	a5,a5,4
    6eb0:	c63e                	sw	a5,12(sp)
    6eb2:	5792                	lw	a5,36(sp)
    6eb4:	97d2                	add	a5,a5,s4
    6eb6:	d23e                	sw	a5,36(sp)
    6eb8:	bd25                	j	6cf0 <_vfiprintf_r+0x68>
    6eba:	036787b3          	mul	a5,a5,s6
    6ebe:	4685                	li	a3,1
    6ec0:	842e                	mv	s0,a1
    6ec2:	97ba                	add	a5,a5,a4
    6ec4:	b751                	j	6e48 <_vfiprintf_r+0x1c0>
    6ec6:	079d                	addi	a5,a5,7
    6ec8:	9be1                	andi	a5,a5,-8
    6eca:	07a1                	addi	a5,a5,8
    6ecc:	b7d5                	j	6eb0 <_vfiprintf_r+0x228>
    6ece:	0078                	addi	a4,sp,12
    6ed0:	00000697          	auipc	a3,0x0
    6ed4:	d7668693          	addi	a3,a3,-650 # 6c46 <__sfputs_r>
    6ed8:	8626                	mv	a2,s1
    6eda:	080c                	addi	a1,sp,16
    6edc:	854e                	mv	a0,s3
    6ede:	00000097          	auipc	ra,0x0
    6ee2:	000000e7          	jalr	zero # 0 <_sinit>
    6ee6:	57fd                	li	a5,-1
    6ee8:	8a2a                	mv	s4,a0
    6eea:	fcf514e3          	bne	a0,a5,6eb2 <_vfiprintf_r+0x22a>
    6eee:	24de                	lhu	a5,12(s1)
    6ef0:	0407f793          	andi	a5,a5,64
    6ef4:	ec0792e3          	bnez	a5,6db8 <_vfiprintf_r+0x130>
    6ef8:	5512                	lw	a0,36(sp)
    6efa:	b5c1                	j	6dba <_vfiprintf_r+0x132>
    6efc:	0078                	addi	a4,sp,12
    6efe:	00000697          	auipc	a3,0x0
    6f02:	d4868693          	addi	a3,a3,-696 # 6c46 <__sfputs_r>
    6f06:	8626                	mv	a2,s1
    6f08:	080c                	addi	a1,sp,16
    6f0a:	854e                	mv	a0,s3
    6f0c:	2a01                	jal	701c <_printf_i>
    6f0e:	bfe1                	j	6ee6 <_vfiprintf_r+0x25e>

00006f10 <_printf_common>:
    6f10:	7179                	addi	sp,sp,-48
    6f12:	ca56                	sw	s5,20(sp)
    6f14:	499c                	lw	a5,16(a1)
    6f16:	8aba                	mv	s5,a4
    6f18:	4598                	lw	a4,8(a1)
    6f1a:	d422                	sw	s0,40(sp)
    6f1c:	d226                	sw	s1,36(sp)
    6f1e:	ce4e                	sw	s3,28(sp)
    6f20:	cc52                	sw	s4,24(sp)
    6f22:	d606                	sw	ra,44(sp)
    6f24:	d04a                	sw	s2,32(sp)
    6f26:	c85a                	sw	s6,16(sp)
    6f28:	c65e                	sw	s7,12(sp)
    6f2a:	89aa                	mv	s3,a0
    6f2c:	842e                	mv	s0,a1
    6f2e:	84b2                	mv	s1,a2
    6f30:	8a36                	mv	s4,a3
    6f32:	00e7d363          	bge	a5,a4,6f38 <_printf_common+0x28>
    6f36:	87ba                	mv	a5,a4
    6f38:	c09c                	sw	a5,0(s1)
    6f3a:	04344703          	lbu	a4,67(s0)
    6f3e:	c319                	beqz	a4,6f44 <_printf_common+0x34>
    6f40:	0785                	addi	a5,a5,1
    6f42:	c09c                	sw	a5,0(s1)
    6f44:	401c                	lw	a5,0(s0)
    6f46:	0207f793          	andi	a5,a5,32
    6f4a:	c781                	beqz	a5,6f52 <_printf_common+0x42>
    6f4c:	409c                	lw	a5,0(s1)
    6f4e:	0789                	addi	a5,a5,2
    6f50:	c09c                	sw	a5,0(s1)
    6f52:	00042903          	lw	s2,0(s0)
    6f56:	00697913          	andi	s2,s2,6
    6f5a:	00091a63          	bnez	s2,6f6e <_printf_common+0x5e>
    6f5e:	01940b13          	addi	s6,s0,25
    6f62:	5bfd                	li	s7,-1
    6f64:	445c                	lw	a5,12(s0)
    6f66:	4098                	lw	a4,0(s1)
    6f68:	8f99                	sub	a5,a5,a4
    6f6a:	04f94c63          	blt	s2,a5,6fc2 <_printf_common+0xb2>
    6f6e:	401c                	lw	a5,0(s0)
    6f70:	04344683          	lbu	a3,67(s0)
    6f74:	0207f793          	andi	a5,a5,32
    6f78:	00d036b3          	snez	a3,a3
    6f7c:	eba5                	bnez	a5,6fec <_printf_common+0xdc>
    6f7e:	04340613          	addi	a2,s0,67
    6f82:	85d2                	mv	a1,s4
    6f84:	854e                	mv	a0,s3
    6f86:	9a82                	jalr	s5
    6f88:	57fd                	li	a5,-1
    6f8a:	04f50363          	beq	a0,a5,6fd0 <_printf_common+0xc0>
    6f8e:	401c                	lw	a5,0(s0)
    6f90:	4611                	li	a2,4
    6f92:	4098                	lw	a4,0(s1)
    6f94:	8b99                	andi	a5,a5,6
    6f96:	4454                	lw	a3,12(s0)
    6f98:	4481                	li	s1,0
    6f9a:	00c79763          	bne	a5,a2,6fa8 <_printf_common+0x98>
    6f9e:	40e684b3          	sub	s1,a3,a4
    6fa2:	0004d363          	bgez	s1,6fa8 <_printf_common+0x98>
    6fa6:	4481                	li	s1,0
    6fa8:	441c                	lw	a5,8(s0)
    6faa:	4818                	lw	a4,16(s0)
    6fac:	00f75463          	bge	a4,a5,6fb4 <_printf_common+0xa4>
    6fb0:	8f99                	sub	a5,a5,a4
    6fb2:	94be                	add	s1,s1,a5
    6fb4:	4901                	li	s2,0
    6fb6:	0469                	addi	s0,s0,26
    6fb8:	5b7d                	li	s6,-1
    6fba:	05249863          	bne	s1,s2,700a <_printf_common+0xfa>
    6fbe:	4501                	li	a0,0
    6fc0:	a809                	j	6fd2 <_printf_common+0xc2>
    6fc2:	4685                	li	a3,1
    6fc4:	865a                	mv	a2,s6
    6fc6:	85d2                	mv	a1,s4
    6fc8:	854e                	mv	a0,s3
    6fca:	9a82                	jalr	s5
    6fcc:	01751e63          	bne	a0,s7,6fe8 <_printf_common+0xd8>
    6fd0:	557d                	li	a0,-1
    6fd2:	50b2                	lw	ra,44(sp)
    6fd4:	5422                	lw	s0,40(sp)
    6fd6:	5492                	lw	s1,36(sp)
    6fd8:	5902                	lw	s2,32(sp)
    6fda:	49f2                	lw	s3,28(sp)
    6fdc:	4a62                	lw	s4,24(sp)
    6fde:	4ad2                	lw	s5,20(sp)
    6fe0:	4b42                	lw	s6,16(sp)
    6fe2:	4bb2                	lw	s7,12(sp)
    6fe4:	6145                	addi	sp,sp,48
    6fe6:	8082                	ret
    6fe8:	0905                	addi	s2,s2,1
    6fea:	bfad                	j	6f64 <_printf_common+0x54>
    6fec:	00d40733          	add	a4,s0,a3
    6ff0:	03000613          	li	a2,48
    6ff4:	04c701a3          	sb	a2,67(a4)
    6ff8:	04544703          	lbu	a4,69(s0)
    6ffc:	00168793          	addi	a5,a3,1
    7000:	97a2                	add	a5,a5,s0
    7002:	0689                	addi	a3,a3,2
    7004:	04e781a3          	sb	a4,67(a5)
    7008:	bf9d                	j	6f7e <_printf_common+0x6e>
    700a:	4685                	li	a3,1
    700c:	8622                	mv	a2,s0
    700e:	85d2                	mv	a1,s4
    7010:	854e                	mv	a0,s3
    7012:	9a82                	jalr	s5
    7014:	fb650ee3          	beq	a0,s6,6fd0 <_printf_common+0xc0>
    7018:	0905                	addi	s2,s2,1
    701a:	b745                	j	6fba <_printf_common+0xaa>

0000701c <_printf_i>:
    701c:	7179                	addi	sp,sp,-48
    701e:	d422                	sw	s0,40(sp)
    7020:	d226                	sw	s1,36(sp)
    7022:	d04a                	sw	s2,32(sp)
    7024:	ce4e                	sw	s3,28(sp)
    7026:	d606                	sw	ra,44(sp)
    7028:	cc52                	sw	s4,24(sp)
    702a:	ca56                	sw	s5,20(sp)
    702c:	c85a                	sw	s6,16(sp)
    702e:	89b6                	mv	s3,a3
    7030:	2d94                	lbu	a3,24(a1)
    7032:	06900793          	li	a5,105
    7036:	8932                	mv	s2,a2
    7038:	84aa                	mv	s1,a0
    703a:	842e                	mv	s0,a1
    703c:	04358613          	addi	a2,a1,67
    7040:	02f68d63          	beq	a3,a5,707a <_printf_i+0x5e>
    7044:	06d7e263          	bltu	a5,a3,70a8 <_printf_i+0x8c>
    7048:	05800793          	li	a5,88
    704c:	18f68663          	beq	a3,a5,71d8 <_printf_i+0x1bc>
    7050:	00d7ed63          	bltu	a5,a3,706a <_printf_i+0x4e>
    7054:	20068e63          	beqz	a3,7270 <_printf_i+0x254>
    7058:	04300793          	li	a5,67
    705c:	0af68e63          	beq	a3,a5,7118 <_printf_i+0xfc>
    7060:	04240a93          	addi	s5,s0,66
    7064:	04d40123          	sb	a3,66(s0)
    7068:	a0c9                	j	712a <_printf_i+0x10e>
    706a:	06300793          	li	a5,99
    706e:	0af68563          	beq	a3,a5,7118 <_printf_i+0xfc>
    7072:	06400793          	li	a5,100
    7076:	fef695e3          	bne	a3,a5,7060 <_printf_i+0x44>
    707a:	401c                	lw	a5,0(s0)
    707c:	4308                	lw	a0,0(a4)
    707e:	0807f693          	andi	a3,a5,128
    7082:	00450593          	addi	a1,a0,4
    7086:	c6c5                	beqz	a3,712e <_printf_i+0x112>
    7088:	411c                	lw	a5,0(a0)
    708a:	c30c                	sw	a1,0(a4)
    708c:	0007d863          	bgez	a5,709c <_printf_i+0x80>
    7090:	02d00713          	li	a4,45
    7094:	40f007b3          	neg	a5,a5
    7098:	04e401a3          	sb	a4,67(s0)
    709c:	00002697          	auipc	a3,0x2
    70a0:	81068693          	addi	a3,a3,-2032 # 88ac <__sf_fake_stdout+0x34>
    70a4:	4729                	li	a4,10
    70a6:	a865                	j	715e <_printf_i+0x142>
    70a8:	07000793          	li	a5,112
    70ac:	16f68263          	beq	a3,a5,7210 <_printf_i+0x1f4>
    70b0:	02d7e563          	bltu	a5,a3,70da <_printf_i+0xbe>
    70b4:	06e00793          	li	a5,110
    70b8:	18f68963          	beq	a3,a5,724a <_printf_i+0x22e>
    70bc:	06f00793          	li	a5,111
    70c0:	faf690e3          	bne	a3,a5,7060 <_printf_i+0x44>
    70c4:	400c                	lw	a1,0(s0)
    70c6:	431c                	lw	a5,0(a4)
    70c8:	0805f813          	andi	a6,a1,128
    70cc:	00478513          	addi	a0,a5,4
    70d0:	06080763          	beqz	a6,713e <_printf_i+0x122>
    70d4:	c308                	sw	a0,0(a4)
    70d6:	439c                	lw	a5,0(a5)
    70d8:	a885                	j	7148 <_printf_i+0x12c>
    70da:	07500793          	li	a5,117
    70de:	fef683e3          	beq	a3,a5,70c4 <_printf_i+0xa8>
    70e2:	07800793          	li	a5,120
    70e6:	12f68963          	beq	a3,a5,7218 <_printf_i+0x1fc>
    70ea:	07300793          	li	a5,115
    70ee:	f6f699e3          	bne	a3,a5,7060 <_printf_i+0x44>
    70f2:	431c                	lw	a5,0(a4)
    70f4:	41d0                	lw	a2,4(a1)
    70f6:	4581                	li	a1,0
    70f8:	00478693          	addi	a3,a5,4
    70fc:	c314                	sw	a3,0(a4)
    70fe:	0007aa83          	lw	s5,0(a5)
    7102:	8556                	mv	a0,s5
    7104:	268d                	jal	7466 <memchr>
    7106:	c501                	beqz	a0,710e <_printf_i+0xf2>
    7108:	41550533          	sub	a0,a0,s5
    710c:	c048                	sw	a0,4(s0)
    710e:	405c                	lw	a5,4(s0)
    7110:	c81c                	sw	a5,16(s0)
    7112:	040401a3          	sb	zero,67(s0)
    7116:	a861                	j	71ae <_printf_i+0x192>
    7118:	431c                	lw	a5,0(a4)
    711a:	04240a93          	addi	s5,s0,66
    711e:	00478693          	addi	a3,a5,4
    7122:	439c                	lw	a5,0(a5)
    7124:	c314                	sw	a3,0(a4)
    7126:	04f40123          	sb	a5,66(s0)
    712a:	4785                	li	a5,1
    712c:	b7d5                	j	7110 <_printf_i+0xf4>
    712e:	0407f693          	andi	a3,a5,64
    7132:	411c                	lw	a5,0(a0)
    7134:	c30c                	sw	a1,0(a4)
    7136:	dab9                	beqz	a3,708c <_printf_i+0x70>
    7138:	07c2                	slli	a5,a5,0x10
    713a:	87c1                	srai	a5,a5,0x10
    713c:	bf81                	j	708c <_printf_i+0x70>
    713e:	0405f593          	andi	a1,a1,64
    7142:	c308                	sw	a0,0(a4)
    7144:	d9c9                	beqz	a1,70d6 <_printf_i+0xba>
    7146:	239e                	lhu	a5,0(a5)
    7148:	06f00713          	li	a4,111
    714c:	0ee68763          	beq	a3,a4,723a <_printf_i+0x21e>
    7150:	00001697          	auipc	a3,0x1
    7154:	75c68693          	addi	a3,a3,1884 # 88ac <__sf_fake_stdout+0x34>
    7158:	4729                	li	a4,10
    715a:	040401a3          	sb	zero,67(s0)
    715e:	404c                	lw	a1,4(s0)
    7160:	c40c                	sw	a1,8(s0)
    7162:	0005c563          	bltz	a1,716c <_printf_i+0x150>
    7166:	4008                	lw	a0,0(s0)
    7168:	996d                	andi	a0,a0,-5
    716a:	c008                	sw	a0,0(s0)
    716c:	e399                	bnez	a5,7172 <_printf_i+0x156>
    716e:	8ab2                	mv	s5,a2
    7170:	cd89                	beqz	a1,718a <_printf_i+0x16e>
    7172:	8ab2                	mv	s5,a2
    7174:	02e7f5b3          	remu	a1,a5,a4
    7178:	1afd                	addi	s5,s5,-1
    717a:	95b6                	add	a1,a1,a3
    717c:	218c                	lbu	a1,0(a1)
    717e:	00ba8023          	sb	a1,0(s5)
    7182:	02e7d5b3          	divu	a1,a5,a4
    7186:	0ce7f063          	bgeu	a5,a4,7246 <_printf_i+0x22a>
    718a:	47a1                	li	a5,8
    718c:	00f71e63          	bne	a4,a5,71a8 <_printf_i+0x18c>
    7190:	401c                	lw	a5,0(s0)
    7192:	8b85                	andi	a5,a5,1
    7194:	cb91                	beqz	a5,71a8 <_printf_i+0x18c>
    7196:	4058                	lw	a4,4(s0)
    7198:	481c                	lw	a5,16(s0)
    719a:	00e7c763          	blt	a5,a4,71a8 <_printf_i+0x18c>
    719e:	03000793          	li	a5,48
    71a2:	fefa8fa3          	sb	a5,-1(s5)
    71a6:	1afd                	addi	s5,s5,-1
    71a8:	41560633          	sub	a2,a2,s5
    71ac:	c810                	sw	a2,16(s0)
    71ae:	874e                	mv	a4,s3
    71b0:	86ca                	mv	a3,s2
    71b2:	0070                	addi	a2,sp,12
    71b4:	85a2                	mv	a1,s0
    71b6:	8526                	mv	a0,s1
    71b8:	d59ff0ef          	jal	ra,6f10 <_printf_common>
    71bc:	5a7d                	li	s4,-1
    71be:	0b451d63          	bne	a0,s4,7278 <_printf_i+0x25c>
    71c2:	557d                	li	a0,-1
    71c4:	50b2                	lw	ra,44(sp)
    71c6:	5422                	lw	s0,40(sp)
    71c8:	5492                	lw	s1,36(sp)
    71ca:	5902                	lw	s2,32(sp)
    71cc:	49f2                	lw	s3,28(sp)
    71ce:	4a62                	lw	s4,24(sp)
    71d0:	4ad2                	lw	s5,20(sp)
    71d2:	4b42                	lw	s6,16(sp)
    71d4:	6145                	addi	sp,sp,48
    71d6:	8082                	ret
    71d8:	04d582a3          	sb	a3,69(a1)
    71dc:	00001697          	auipc	a3,0x1
    71e0:	6d068693          	addi	a3,a3,1744 # 88ac <__sf_fake_stdout+0x34>
    71e4:	400c                	lw	a1,0(s0)
    71e6:	4308                	lw	a0,0(a4)
    71e8:	0805f813          	andi	a6,a1,128
    71ec:	411c                	lw	a5,0(a0)
    71ee:	0511                	addi	a0,a0,4
    71f0:	02080d63          	beqz	a6,722a <_printf_i+0x20e>
    71f4:	c308                	sw	a0,0(a4)
    71f6:	0015f713          	andi	a4,a1,1
    71fa:	c701                	beqz	a4,7202 <_printf_i+0x1e6>
    71fc:	0205e593          	ori	a1,a1,32
    7200:	c00c                	sw	a1,0(s0)
    7202:	4741                	li	a4,16
    7204:	fbb9                	bnez	a5,715a <_printf_i+0x13e>
    7206:	400c                	lw	a1,0(s0)
    7208:	fdf5f593          	andi	a1,a1,-33
    720c:	c00c                	sw	a1,0(s0)
    720e:	b7b1                	j	715a <_printf_i+0x13e>
    7210:	419c                	lw	a5,0(a1)
    7212:	0207e793          	ori	a5,a5,32
    7216:	c19c                	sw	a5,0(a1)
    7218:	07800793          	li	a5,120
    721c:	04f402a3          	sb	a5,69(s0)
    7220:	00001697          	auipc	a3,0x1
    7224:	6a068693          	addi	a3,a3,1696 # 88c0 <__sf_fake_stdout+0x48>
    7228:	bf75                	j	71e4 <_printf_i+0x1c8>
    722a:	0405f813          	andi	a6,a1,64
    722e:	c308                	sw	a0,0(a4)
    7230:	fc0803e3          	beqz	a6,71f6 <_printf_i+0x1da>
    7234:	07c2                	slli	a5,a5,0x10
    7236:	83c1                	srli	a5,a5,0x10
    7238:	bf7d                	j	71f6 <_printf_i+0x1da>
    723a:	00001697          	auipc	a3,0x1
    723e:	67268693          	addi	a3,a3,1650 # 88ac <__sf_fake_stdout+0x34>
    7242:	4721                	li	a4,8
    7244:	bf19                	j	715a <_printf_i+0x13e>
    7246:	87ae                	mv	a5,a1
    7248:	b735                	j	7174 <_printf_i+0x158>
    724a:	4194                	lw	a3,0(a1)
    724c:	431c                	lw	a5,0(a4)
    724e:	49cc                	lw	a1,20(a1)
    7250:	0806f813          	andi	a6,a3,128
    7254:	00478513          	addi	a0,a5,4
    7258:	00080663          	beqz	a6,7264 <_printf_i+0x248>
    725c:	c308                	sw	a0,0(a4)
    725e:	439c                	lw	a5,0(a5)
    7260:	c38c                	sw	a1,0(a5)
    7262:	a039                	j	7270 <_printf_i+0x254>
    7264:	c308                	sw	a0,0(a4)
    7266:	0406f693          	andi	a3,a3,64
    726a:	439c                	lw	a5,0(a5)
    726c:	daf5                	beqz	a3,7260 <_printf_i+0x244>
    726e:	a38e                	sh	a1,0(a5)
    7270:	00042823          	sw	zero,16(s0)
    7274:	8ab2                	mv	s5,a2
    7276:	bf25                	j	71ae <_printf_i+0x192>
    7278:	4814                	lw	a3,16(s0)
    727a:	8656                	mv	a2,s5
    727c:	85ca                	mv	a1,s2
    727e:	8526                	mv	a0,s1
    7280:	9982                	jalr	s3
    7282:	f54500e3          	beq	a0,s4,71c2 <_printf_i+0x1a6>
    7286:	401c                	lw	a5,0(s0)
    7288:	8b89                	andi	a5,a5,2
    728a:	e78d                	bnez	a5,72b4 <_printf_i+0x298>
    728c:	47b2                	lw	a5,12(sp)
    728e:	4448                	lw	a0,12(s0)
    7290:	f2f55ae3          	bge	a0,a5,71c4 <_printf_i+0x1a8>
    7294:	853e                	mv	a0,a5
    7296:	b73d                	j	71c4 <_printf_i+0x1a8>
    7298:	4685                	li	a3,1
    729a:	8656                	mv	a2,s5
    729c:	85ca                	mv	a1,s2
    729e:	8526                	mv	a0,s1
    72a0:	9982                	jalr	s3
    72a2:	f36500e3          	beq	a0,s6,71c2 <_printf_i+0x1a6>
    72a6:	0a05                	addi	s4,s4,1
    72a8:	445c                	lw	a5,12(s0)
    72aa:	4732                	lw	a4,12(sp)
    72ac:	8f99                	sub	a5,a5,a4
    72ae:	fefa45e3          	blt	s4,a5,7298 <_printf_i+0x27c>
    72b2:	bfe9                	j	728c <_printf_i+0x270>
    72b4:	4a01                	li	s4,0
    72b6:	01940a93          	addi	s5,s0,25
    72ba:	5b7d                	li	s6,-1
    72bc:	b7f5                	j	72a8 <_printf_i+0x28c>

000072be <_sbrk_r>:
    72be:	1141                	addi	sp,sp,-16
    72c0:	c422                	sw	s0,8(sp)
    72c2:	842a                	mv	s0,a0
    72c4:	852e                	mv	a0,a1
    72c6:	8601a223          	sw	zero,-1948(gp) # 2000012c <errno>
    72ca:	c606                	sw	ra,12(sp)
    72cc:	cd6fb0ef          	jal	ra,27a2 <_sbrk>
    72d0:	57fd                	li	a5,-1
    72d2:	00f51763          	bne	a0,a5,72e0 <_sbrk_r+0x22>
    72d6:	86418793          	addi	a5,gp,-1948 # 2000012c <errno>
    72da:	439c                	lw	a5,0(a5)
    72dc:	c391                	beqz	a5,72e0 <_sbrk_r+0x22>
    72de:	c01c                	sw	a5,0(s0)
    72e0:	40b2                	lw	ra,12(sp)
    72e2:	4422                	lw	s0,8(sp)
    72e4:	0141                	addi	sp,sp,16
    72e6:	8082                	ret

000072e8 <__sread>:
    72e8:	1141                	addi	sp,sp,-16
    72ea:	c422                	sw	s0,8(sp)
    72ec:	842e                	mv	s0,a1
    72ee:	00e59583          	lh	a1,14(a1)
    72f2:	c606                	sw	ra,12(sp)
    72f4:	2435                	jal	7520 <_read_r>
    72f6:	00054963          	bltz	a0,7308 <__sread+0x20>
    72fa:	487c                	lw	a5,84(s0)
    72fc:	97aa                	add	a5,a5,a0
    72fe:	c87c                	sw	a5,84(s0)
    7300:	40b2                	lw	ra,12(sp)
    7302:	4422                	lw	s0,8(sp)
    7304:	0141                	addi	sp,sp,16
    7306:	8082                	ret
    7308:	245e                	lhu	a5,12(s0)
    730a:	777d                	lui	a4,0xfffff
    730c:	177d                	addi	a4,a4,-1
    730e:	8ff9                	and	a5,a5,a4
    7310:	a45e                	sh	a5,12(s0)
    7312:	b7fd                	j	7300 <__sread+0x18>

00007314 <__swrite>:
    7314:	25de                	lhu	a5,12(a1)
    7316:	1101                	addi	sp,sp,-32
    7318:	cc22                	sw	s0,24(sp)
    731a:	ca26                	sw	s1,20(sp)
    731c:	c84a                	sw	s2,16(sp)
    731e:	c64e                	sw	s3,12(sp)
    7320:	ce06                	sw	ra,28(sp)
    7322:	1007f793          	andi	a5,a5,256
    7326:	84aa                	mv	s1,a0
    7328:	842e                	mv	s0,a1
    732a:	8932                	mv	s2,a2
    732c:	89b6                	mv	s3,a3
    732e:	c791                	beqz	a5,733a <__swrite+0x26>
    7330:	00e59583          	lh	a1,14(a1)
    7334:	4689                	li	a3,2
    7336:	4601                	li	a2,0
    7338:	2209                	jal	743a <_lseek_r>
    733a:	245e                	lhu	a5,12(s0)
    733c:	777d                	lui	a4,0xfffff
    733e:	177d                	addi	a4,a4,-1
    7340:	8ff9                	and	a5,a5,a4
    7342:	a45e                	sh	a5,12(s0)
    7344:	00e41583          	lh	a1,14(s0)
    7348:	4462                	lw	s0,24(sp)
    734a:	40f2                	lw	ra,28(sp)
    734c:	86ce                	mv	a3,s3
    734e:	864a                	mv	a2,s2
    7350:	49b2                	lw	s3,12(sp)
    7352:	4942                	lw	s2,16(sp)
    7354:	8526                	mv	a0,s1
    7356:	44d2                	lw	s1,20(sp)
    7358:	6105                	addi	sp,sp,32
    735a:	a825                	j	7392 <_write_r>

0000735c <__sseek>:
    735c:	1141                	addi	sp,sp,-16
    735e:	c422                	sw	s0,8(sp)
    7360:	842e                	mv	s0,a1
    7362:	00e59583          	lh	a1,14(a1)
    7366:	c606                	sw	ra,12(sp)
    7368:	28c9                	jal	743a <_lseek_r>
    736a:	57fd                	li	a5,-1
    736c:	245a                	lhu	a4,12(s0)
    736e:	00f51a63          	bne	a0,a5,7382 <__sseek+0x26>
    7372:	77fd                	lui	a5,0xfffff
    7374:	17fd                	addi	a5,a5,-1
    7376:	8ff9                	and	a5,a5,a4
    7378:	a45e                	sh	a5,12(s0)
    737a:	40b2                	lw	ra,12(sp)
    737c:	4422                	lw	s0,8(sp)
    737e:	0141                	addi	sp,sp,16
    7380:	8082                	ret
    7382:	6785                	lui	a5,0x1
    7384:	8fd9                	or	a5,a5,a4
    7386:	a45e                	sh	a5,12(s0)
    7388:	c868                	sw	a0,84(s0)
    738a:	bfc5                	j	737a <__sseek+0x1e>

0000738c <__sclose>:
    738c:	00e59583          	lh	a1,14(a1)
    7390:	a805                	j	73c0 <_close_r>

00007392 <_write_r>:
    7392:	1141                	addi	sp,sp,-16
    7394:	c422                	sw	s0,8(sp)
    7396:	842a                	mv	s0,a0
    7398:	852e                	mv	a0,a1
    739a:	85b2                	mv	a1,a2
    739c:	8636                	mv	a2,a3
    739e:	8601a223          	sw	zero,-1948(gp) # 2000012c <errno>
    73a2:	c606                	sw	ra,12(sp)
    73a4:	bc0fb0ef          	jal	ra,2764 <_write>
    73a8:	57fd                	li	a5,-1
    73aa:	00f51763          	bne	a0,a5,73b8 <_write_r+0x26>
    73ae:	86418793          	addi	a5,gp,-1948 # 2000012c <errno>
    73b2:	439c                	lw	a5,0(a5)
    73b4:	c391                	beqz	a5,73b8 <_write_r+0x26>
    73b6:	c01c                	sw	a5,0(s0)
    73b8:	40b2                	lw	ra,12(sp)
    73ba:	4422                	lw	s0,8(sp)
    73bc:	0141                	addi	sp,sp,16
    73be:	8082                	ret

000073c0 <_close_r>:
    73c0:	1141                	addi	sp,sp,-16
    73c2:	c422                	sw	s0,8(sp)
    73c4:	842a                	mv	s0,a0
    73c6:	852e                	mv	a0,a1
    73c8:	8601a223          	sw	zero,-1948(gp) # 2000012c <errno>
    73cc:	c606                	sw	ra,12(sp)
    73ce:	2a49                	jal	7560 <_close>
    73d0:	57fd                	li	a5,-1
    73d2:	00f51763          	bne	a0,a5,73e0 <_close_r+0x20>
    73d6:	86418793          	addi	a5,gp,-1948 # 2000012c <errno>
    73da:	439c                	lw	a5,0(a5)
    73dc:	c391                	beqz	a5,73e0 <_close_r+0x20>
    73de:	c01c                	sw	a5,0(s0)
    73e0:	40b2                	lw	ra,12(sp)
    73e2:	4422                	lw	s0,8(sp)
    73e4:	0141                	addi	sp,sp,16
    73e6:	8082                	ret

000073e8 <_fstat_r>:
    73e8:	1141                	addi	sp,sp,-16
    73ea:	c422                	sw	s0,8(sp)
    73ec:	842a                	mv	s0,a0
    73ee:	852e                	mv	a0,a1
    73f0:	85b2                	mv	a1,a2
    73f2:	8601a223          	sw	zero,-1948(gp) # 2000012c <errno>
    73f6:	c606                	sw	ra,12(sp)
    73f8:	2a95                	jal	756c <_fstat>
    73fa:	57fd                	li	a5,-1
    73fc:	00f51763          	bne	a0,a5,740a <_fstat_r+0x22>
    7400:	86418793          	addi	a5,gp,-1948 # 2000012c <errno>
    7404:	439c                	lw	a5,0(a5)
    7406:	c391                	beqz	a5,740a <_fstat_r+0x22>
    7408:	c01c                	sw	a5,0(s0)
    740a:	40b2                	lw	ra,12(sp)
    740c:	4422                	lw	s0,8(sp)
    740e:	0141                	addi	sp,sp,16
    7410:	8082                	ret

00007412 <_isatty_r>:
    7412:	1141                	addi	sp,sp,-16
    7414:	c422                	sw	s0,8(sp)
    7416:	842a                	mv	s0,a0
    7418:	852e                	mv	a0,a1
    741a:	8601a223          	sw	zero,-1948(gp) # 2000012c <errno>
    741e:	c606                	sw	ra,12(sp)
    7420:	2aa1                	jal	7578 <_isatty>
    7422:	57fd                	li	a5,-1
    7424:	00f51763          	bne	a0,a5,7432 <_isatty_r+0x20>
    7428:	86418793          	addi	a5,gp,-1948 # 2000012c <errno>
    742c:	439c                	lw	a5,0(a5)
    742e:	c391                	beqz	a5,7432 <_isatty_r+0x20>
    7430:	c01c                	sw	a5,0(s0)
    7432:	40b2                	lw	ra,12(sp)
    7434:	4422                	lw	s0,8(sp)
    7436:	0141                	addi	sp,sp,16
    7438:	8082                	ret

0000743a <_lseek_r>:
    743a:	1141                	addi	sp,sp,-16
    743c:	c422                	sw	s0,8(sp)
    743e:	842a                	mv	s0,a0
    7440:	852e                	mv	a0,a1
    7442:	85b2                	mv	a1,a2
    7444:	8636                	mv	a2,a3
    7446:	8601a223          	sw	zero,-1948(gp) # 2000012c <errno>
    744a:	c606                	sw	ra,12(sp)
    744c:	2a25                	jal	7584 <_lseek>
    744e:	57fd                	li	a5,-1
    7450:	00f51763          	bne	a0,a5,745e <_lseek_r+0x24>
    7454:	86418793          	addi	a5,gp,-1948 # 2000012c <errno>
    7458:	439c                	lw	a5,0(a5)
    745a:	c391                	beqz	a5,745e <_lseek_r+0x24>
    745c:	c01c                	sw	a5,0(s0)
    745e:	40b2                	lw	ra,12(sp)
    7460:	4422                	lw	s0,8(sp)
    7462:	0141                	addi	sp,sp,16
    7464:	8082                	ret

00007466 <memchr>:
    7466:	0ff5f593          	andi	a1,a1,255
    746a:	962a                	add	a2,a2,a0
    746c:	00c51463          	bne	a0,a2,7474 <memchr+0xe>
    7470:	4501                	li	a0,0
    7472:	8082                	ret
    7474:	211c                	lbu	a5,0(a0)
    7476:	feb78ee3          	beq	a5,a1,7472 <memchr+0xc>
    747a:	0505                	addi	a0,a0,1
    747c:	bfc5                	j	746c <memchr+0x6>

0000747e <memmove>:
    747e:	04a5f163          	bgeu	a1,a0,74c0 <memmove+0x42>
    7482:	00c586b3          	add	a3,a1,a2
    7486:	02d57d63          	bgeu	a0,a3,74c0 <memmove+0x42>
    748a:	fff64593          	not	a1,a2
    748e:	4781                	li	a5,0
    7490:	17fd                	addi	a5,a5,-1
    7492:	00f59363          	bne	a1,a5,7498 <memmove+0x1a>
    7496:	8082                	ret
    7498:	00f68733          	add	a4,a3,a5
    749c:	00074803          	lbu	a6,0(a4) # fffff000 <_eusrstack+0xdfff7000>
    74a0:	00c78733          	add	a4,a5,a2
    74a4:	972a                	add	a4,a4,a0
    74a6:	01070023          	sb	a6,0(a4)
    74aa:	b7dd                	j	7490 <memmove+0x12>
    74ac:	00f58733          	add	a4,a1,a5
    74b0:	2314                	lbu	a3,0(a4)
    74b2:	00f50733          	add	a4,a0,a5
    74b6:	0785                	addi	a5,a5,1
    74b8:	a314                	sb	a3,0(a4)
    74ba:	fef619e3          	bne	a2,a5,74ac <memmove+0x2e>
    74be:	8082                	ret
    74c0:	4781                	li	a5,0
    74c2:	bfe5                	j	74ba <memmove+0x3c>

000074c4 <__malloc_lock>:
    74c4:	8082                	ret

000074c6 <__malloc_unlock>:
    74c6:	8082                	ret

000074c8 <_realloc_r>:
    74c8:	e581                	bnez	a1,74d0 <_realloc_r+0x8>
    74ca:	85b2                	mv	a1,a2
    74cc:	b2aff06f          	j	67f6 <_malloc_r>
    74d0:	1101                	addi	sp,sp,-32
    74d2:	cc22                	sw	s0,24(sp)
    74d4:	ce06                	sw	ra,28(sp)
    74d6:	ca26                	sw	s1,20(sp)
    74d8:	c84a                	sw	s2,16(sp)
    74da:	c64e                	sw	s3,12(sp)
    74dc:	8432                	mv	s0,a2
    74de:	ee01                	bnez	a2,74f6 <_realloc_r+0x2e>
    74e0:	a6eff0ef          	jal	ra,674e <_free_r>
    74e4:	4901                	li	s2,0
    74e6:	40f2                	lw	ra,28(sp)
    74e8:	4462                	lw	s0,24(sp)
    74ea:	854a                	mv	a0,s2
    74ec:	44d2                	lw	s1,20(sp)
    74ee:	4942                	lw	s2,16(sp)
    74f0:	49b2                	lw	s3,12(sp)
    74f2:	6105                	addi	sp,sp,32
    74f4:	8082                	ret
    74f6:	84ae                	mv	s1,a1
    74f8:	89aa                	mv	s3,a0
    74fa:	2889                	jal	754c <_malloc_usable_size_r>
    74fc:	8926                	mv	s2,s1
    74fe:	fe8574e3          	bgeu	a0,s0,74e6 <_realloc_r+0x1e>
    7502:	85a2                	mv	a1,s0
    7504:	854e                	mv	a0,s3
    7506:	af0ff0ef          	jal	ra,67f6 <_malloc_r>
    750a:	892a                	mv	s2,a0
    750c:	dd69                	beqz	a0,74e6 <_realloc_r+0x1e>
    750e:	85a6                	mv	a1,s1
    7510:	8622                	mv	a2,s0
    7512:	9c1fe0ef          	jal	ra,5ed2 <memcpy>
    7516:	85a6                	mv	a1,s1
    7518:	854e                	mv	a0,s3
    751a:	a34ff0ef          	jal	ra,674e <_free_r>
    751e:	b7e1                	j	74e6 <_realloc_r+0x1e>

00007520 <_read_r>:
    7520:	1141                	addi	sp,sp,-16
    7522:	c422                	sw	s0,8(sp)
    7524:	842a                	mv	s0,a0
    7526:	852e                	mv	a0,a1
    7528:	85b2                	mv	a1,a2
    752a:	8636                	mv	a2,a3
    752c:	8601a223          	sw	zero,-1948(gp) # 2000012c <errno>
    7530:	c606                	sw	ra,12(sp)
    7532:	28b9                	jal	7590 <_read>
    7534:	57fd                	li	a5,-1
    7536:	00f51763          	bne	a0,a5,7544 <_read_r+0x24>
    753a:	86418793          	addi	a5,gp,-1948 # 2000012c <errno>
    753e:	439c                	lw	a5,0(a5)
    7540:	c391                	beqz	a5,7544 <_read_r+0x24>
    7542:	c01c                	sw	a5,0(s0)
    7544:	40b2                	lw	ra,12(sp)
    7546:	4422                	lw	s0,8(sp)
    7548:	0141                	addi	sp,sp,16
    754a:	8082                	ret

0000754c <_malloc_usable_size_r>:
    754c:	ffc5a783          	lw	a5,-4(a1)
    7550:	ffc78513          	addi	a0,a5,-4 # ffc <mpu_set_lpf+0x30>
    7554:	0007d563          	bgez	a5,755e <_malloc_usable_size_r+0x12>
    7558:	95aa                	add	a1,a1,a0
    755a:	419c                	lw	a5,0(a1)
    755c:	953e                	add	a0,a0,a5
    755e:	8082                	ret

00007560 <_close>:
    7560:	05800793          	li	a5,88
    7564:	86f1a223          	sw	a5,-1948(gp) # 2000012c <errno>
    7568:	557d                	li	a0,-1
    756a:	8082                	ret

0000756c <_fstat>:
    756c:	05800793          	li	a5,88
    7570:	86f1a223          	sw	a5,-1948(gp) # 2000012c <errno>
    7574:	557d                	li	a0,-1
    7576:	8082                	ret

00007578 <_isatty>:
    7578:	05800793          	li	a5,88
    757c:	86f1a223          	sw	a5,-1948(gp) # 2000012c <errno>
    7580:	4501                	li	a0,0
    7582:	8082                	ret

00007584 <_lseek>:
    7584:	05800793          	li	a5,88
    7588:	86f1a223          	sw	a5,-1948(gp) # 2000012c <errno>
    758c:	557d                	li	a0,-1
    758e:	8082                	ret

00007590 <_read>:
    7590:	05800793          	li	a5,88
    7594:	86f1a223          	sw	a5,-1948(gp) # 2000012c <errno>
    7598:	557d                	li	a0,-1
    759a:	8082                	ret
    759c:	f2fe                	fsw	ft11,100(sp)
    759e:	f1aac4ab          	0xf1aac4ab
    75a2:	dfdf afbb dfdf      	0xdfdfafbbdfdf
    75a8:	aab8                	sb	a4,18(a3)
    75aa:	aaaa                	sh	a0,18(a3)
    75ac:	88b0                	0x88b0
    75ae:	00c7c5c3          	fmadd.s	fa1,fa5,fa2,ft0,rmm
    75b2:	0000                	unimp
    75b4:	b1d8                	sb	a4,5(a1)
    75b6:	f3b9                	bnez	a5,74fc <_realloc_r+0x34>
    75b8:	b691a38b          	0xb691a38b
    75bc:	b409                	j	6fbe <_printf_common+0xae>
    75be:	00d9                	addi	ra,ra,22
    75c0:	b1da                	sh	a4,36(a1)
    75c2:	f3b9                	bnez	a5,7508 <_realloc_r+0x40>
    75c4:	b691a38b          	0xb691a38b
    75c8:	b4da                	sh	a4,44(s1)
    75ca:	00da                	slli	ra,ra,0x16
    75cc:	74737953          	0x74737953
    75d0:	6d65                	lui	s10,0x19
    75d2:	3a6b6c43          	fmadd.d	fs8,fs6,ft6,ft7,unknown
    75d6:	6425                	lui	s0,0x9
    75d8:	0a0d                	addi	s4,s4,3
    75da:	0000                	unimp
    75dc:	4449                	li	s0,18
    75de:	253a                	lhu	a4,10(a0)
    75e0:	0d78                	addi	a4,sp,668
    75e2:	000a                	c.slli	zero,0x2

000075e4 <hw>:
    75e4:	0068 0400 0076 0154 fdf7 0100 6e55 7573     h...v.T.....Unsu
    75f4:	7070 726f 6574 2064 6f73 7466 6177 6572     pported software
    7604:	7020 6f72 7564 7463 7220 7665 2520 2e64      product rev %d.
    7614:	000a 0000 7250 646f 6375 2074 4449 7220     ....Product ID r
    7624:	6165 2064 7361 3020 6920 646e 6369 7461     ead as 0 indicat
    7634:	7365 6420 7665 6369 2065 7369 6520 7469     es device is eit
    7644:	6568 2072 6e69 6f63 706d 7461 6269 656c     her incompatible
    7654:	6f20 2072 6e61 4d20 5550 3033 3035 002e      or an MPU3050..
    7664:	6148 666c 7320 6e65 6973 6974 6976 7974     Half sensitivity
    7674:	7020 7261 2074 6f66 6e75 2e64 0000 0000      part found.....

00007684 <reg>:
    7684:	1975 0c1a 236a 1c1b 0000 201f 7472 3b43     u...j#..... rtC;
    7694:	3841 3a39 6b00 376c 066f 6d24 706e 0000     A89:.kl7o.$mnp..

000076a4 <test>:
    76a4:	0083 0000 0800 0000 0100 1800 0032 0005     ............2...
    76b4:	0000 4120 0000 42d2 5c29 3e0f 999a 3e99     .. A...B)\.>...>
    76c4:	3333 3f73 5c29 3e0f                         33s?)\.>

000076cc <dmp_memory>:
    76cc:	0000 0070 0000 2400 0000 0200 0300 0000     ..p....$........
    76dc:	6500 5400 efff 0000 80fa 0b00 8212 0100     .e.T............
    76ec:	0c03 c330 8c0e e98c d514 0240 7113 8e0f     ..0.......@..q..
    76fc:	8338 83f8 0030 83f8 8e25 83f8 0030 83f8     8...0...%...0...
    770c:	ffff ffff fe0f d6a9 0024 0004 821a a179     ........$.....y.
    771c:	0000 3c00 ffff 0000 1000 0000 8338 a26f     ...<........8.o.
    772c:	3e00 3003 0040 0000 ca02 09e3 803e 0000     .>.0@.......>...
    773c:	0020 0000 0000 0000 0040 0000 0060 0000      .......@...`...
    774c:	0c00 0000 0c00 6e18 0000 9206 160a dfc0     .......n........
    775c:	ffff 5602 8cfd 77d3 e1ff 96c4 c5e0 aabe     ...V...w........
    776c:	0000 0000 ffff 2b0b 0000 5716 0000 5903     .......+...W...Y
    777c:	0040 0000 0000 fa1d 0200 1d6c 0000 0000     @.........l.....
    778c:	ff3f ebdf 3e00 b6b3 0d00 7822 0000 3c2f     ?....>...."x../<
    779c:	0000 0000 1900 b542 0000 a239 0000 65b3     ......B...9....e
    77ac:	0ed9 c99f cf1d 344c 0030 0000 0050 0000     ......L40...P...
    77bc:	b63b e87a 6400 0000 c800 0000 0000 0000     ;.z..d..........
    77cc:	0010 0000 0010 92fa 0010 5e22 0d00 9f22     .........."^..".
    77dc:	0100 0000 3200 0000 46ff 0000 d463 0000     .....2...F..c...
    77ec:	0010 0000 d604 0000 cc04 0000 cc04 0000     ................
    77fc:	0000 7210 0000 4000 0000 0000 0000 0000     ...r...@........
    780c:	0600 0200 0500 0700 0000 0000 6400 0000     .............d..
    781c:	0000 0000 0000 0500 0500 6400 2000 0000     ...........d. ..
	...
    7834:	0000 0040 0000 0003 0000 3200 98f8 0000     ..@........2....
    7844:	65ff 0000 0f83 0000 9bff 00fc 0000 0000     .e..............
	...
    7878:	0000 0010 0040 0000 0000 0600 0000 6ab2     ....@..........j
    7888:	0200 0000 0100 83fb 6800 0000 d900 00fc     .........h......
    7898:	f17c 83ff 0000 0000 6500 0000 6400 e803     |........e...d..
    78a8:	6400 2800 0000 2500 0000 0000 a016 0000     .d.(...%........
    78b8:	0000 0010 0000 0010 2f00 0000 0000 f401     ........./......
    78c8:	0000 0010 2800 0000 ffff 8145 ffff 72fa     .....(....E....r
	...
    78e0:	4400 0500 0500 c6ba 4700 a278 0000 0100     .D.......Gx.....
    78f0:	0000 0000 0000 0006 0000 1400 0000 4d25     ..............%M
    7900:	2f00 6d70 0000 ae05 0c00 d002 0000 0000     ./pm............
	...
    791c:	1b00 0000 0000 0000 0000 0000 0000 0000     ................
    792c:	6400 0000 0800 0000 0000 0000 0000 0000     .d..............
	...
    798c:	1b00 0000 0000 0000 0000 0000 0e00 0e00     ................
    799c:	0000 c70a 0400 0000 0000 3200 ffff 9cff     ...........2....
    79ac:	0000 2b0b 0000 0200 0000 0100 0000 6400     ...+...........d
    79bc:	e5ff 0000 0000 0000 0000 0000 0000 0000     ................
    79cc:	0000 0100 0000 0000 0100 0000 0000 0000     ................
    79dc:	0100 0080 0100 0080 0100 0080 2400 d326     .............$&.
	...
    79f4:	0600 1000 9600 3c00 0000 0000 0000 0000     .......<........
	...
    7a0c:	0a0c 684e cfcd 0977 1650 5967 19c6 82ce     ..Nh..w.P.gY....
	...
    7a34:	d717 0084 0003 0000 0000 0000 0000 0000     ................
    7a44:	93c7 9d8f 1b1e 191c 0000 0000 0000 0000     ................
	...
    7a64:	0302 8518 0000 0040 0000 0300 0000 0300     ......@.........
	...
    7a7c:	0040 0000 0000 0000 0000 0000 0000 0000     @...............
	...
    7ab0:	7d67 7edf 9072 552e f64c 88e6 0000 0000     g}.~r..UL.......
	...
    7acc:	dcd8 b8b4 d8b0 abb9 f8f3 b3fa bbb7 9e8e     ................
    7adc:	f1ae f532 f11b b8b4 80b0 f197 dfa9 dfdf     ..2.............
    7aec:	dfaa dfdf aaf2 cdc5 a9c7 c90c 972c a9f1     ............,...
    7afc:	2689 6646 89b2 a999 552d b07d 8ab0 96a8     .&Ff....-U}.....
    7b0c:	5636 f176 a3ba b2b4 c080 a8b8 1197 83b2     6Vv.............
    7b1c:	ba98 f0a3 0824 1044 1864 b9b2 98b4 f183     ....$.D.d.......
    7b2c:	29a3 7d55 b5ba a3b1 9383 00f0 5028 b2f5     .)U}........(P..
    7b3c:	aab6 9383 5428 f17c a3b9 9382 ba61 daa2     ....(T|.....a...
    7b4c:	dfde 81db b99a f5ae 6860 f170 bada dfa2     ........`hp.....
    7b5c:	bad9 faa2 a3b9 9282 31db a2ba bad9 f8a2     .........1......
    7b6c:	85df d0a4 bbc1 83ad c5c2 b8c7 dfa2 dfdf     ................
    7b7c:	a0ba dfdf d8df f1d8 aab8 8db3 98b4 350d     ...............5
    7b8c:	b25d bab6 8caf 1996 9f8f 0ea7 1e16 9ab4     ]...............
    7b9c:	aab8 2c87 7c54 a4ba 8ab0 91b6 5632 b276     ...,T|......2Vv.
    7bac:	9484 c8a4 cd08 b8d8 b0b4 99f1 a882 552d     ..............-U
    7bbc:	987d 0ea8 1e16 2ca2 7c54 a492 2cf0 7850     }......,T|...,Px
    7bcc:	84f1 98a8 cdc4 d8fc db0d fca8 f32d bad9     ............-...
    7bdc:	f8a6 bada dea6 bad8 b6b2 9686 d0a6 c8f3     ................
    7bec:	da41 c8a6 d8f8 b4b0 82b8 92a8 2cf5 8854     A............,T.
    7bfc:	f198 d935 18f4 f1d8 d0a2 f9f8 84a8 c7d9     ..5.............
    7c0c:	f8df 83f8 dac5 69df 83df d8c1 01f4 f114     .......i........
    7c1c:	82a8 a84e f384 d111 f582 92d9 9728 f188     ..N.........(...
    7c2c:	f409 1c1c 84d8 f3a8 f9c0 d9d1 8297 29f1     ...............)
    7c3c:	0df4 f3d8 f9f9 d9d1 f482 03c2 ded8 1adf     ................
    7c4c:	f1d8 faa2 a8f9 9884 c7d9 f8df f8f8 c783     ................
    7c5c:	dfda df69 83f8 d8c3 01f4 f114 a898 2e82     ..i.............
    7c6c:	84a8 11f3 82d1 d9f5 5092 8897 09f1 1cf4     .........P......
    7c7c:	84d8 f3a8 f8c0 d1f9 97d9 f182 f449 d80d     ............I...
    7c8c:	f9f3 d1f9 82d9 c4f4 d803 dfde f1d8 88ad     ................
    7c9c:	cc98 09a8 d9f9 9282 f5a8 f17c 3a88 94cf     ..........|..:..
    7cac:	6e4a db98 3169 adda def2 d8f9 9587 f2a8     Jn..i1..........
    7cbc:	d121 a5da f4f9 d917 aef1 d08e c3c0 82ae     !...............
    7ccc:	84c6 a8c3 9585 a5c8 f288 f1c0 01f4 f10e     ................
    7cdc:	9e8e c6a8 563e 54f5 88f1 f472 1501 98f1     ....>V.T..r.....
    7cec:	8545 f56e 9e8e 8804 42f1 5a98 9e8e 8806     E.n......B.Z....
    7cfc:	f469 1c01 98f1 111e d008 04f5 1ef1 0297     i...............
    7d0c:	9802 2536 f9db 85d9 f3a5 dac1 a585 dff3     ..6%............
    7d1c:	85d8 a895 09f3 a5da d8fa 9282 f5a8 f178     ..............x.
    7d2c:	1a88 9f84 8826 2198 f4da f31d 87d8 399f     ....&..!.......9
    7d3c:	afd1 dfd9 fbdf f4f9 f30c fad8 f8d0 f9da     ................
    7d4c:	d0f9 d9df d8f9 0bf4 f3d8 9f87 d139 d9af     ............9...
    7d5c:	dfdf 1df4 d8f3 fcfa 69a8 f9f9 d0af deda     .........i......
    7d6c:	d9fa 8ff8 a89f ccf1 98f3 45db afd9 d0df     ...........E....
    7d7c:	d8f8 8ff1 a89f f3ca 0988 afda cb8f d8f8     ................
    7d8c:	adf2 8d97 d90c dfa5 baf9 f3a6 f4fa f212     ................
    7d9c:	95d8 d10d bad9 f3a6 dafa f2a5 bac1 f3a6     ................
    7dac:	d8df baf1 b6b2 9686 d0a6 f3ca da49 cba6     ............I...
    7dbc:	d8f8 b4b0 d8b8 84ad c0f2 f1df cb8f a8c3     ................
    7dcc:	b6b2 9686 c1c8 c3cb b0f3 88b4 a898 db21     ..............!.
    7ddc:	8d71 719d 9585 d921 f2ad d8fa 9785 28a8     q..q..!........(
    7dec:	f4d9 d808 8df2 da29 05f4 f2d9 a485 f2c2     ......).........
    7dfc:	a8d8 948d d101 f4d9 f211 87d8 d821 0af4     ............!...
    7e0c:	f2d8 9884 c8a8 d101 f4d9 d811 a4f3 bbc8     ................
    7e1c:	d0af def2 f8f8 f8f8 f8f8 f8f8 f1d8 f6b8     ................
    7e2c:	b9b5 8ab0 a395 3cde d9a3 d8f8 a35c f8d9     .......<....\...
    7e3c:	7cd8 d9a3 d8f8 f9f8 a5d1 dfd9 fada b1d8     .|..............
    7e4c:	3085 d9f7 d8de 30f8 daad d8de b4f2 998c     .0.....0........
    7e5c:	2da3 7d55 83a0 dfdf b5df a091 29f6 fbd9     .-U}.........)..
    7e6c:	a0d8 29fc fad9 a0d8 51d0 f8d9 fcd8 d951     ...).....Q....Q.
    7e7c:	d8f9 d979 d8fb d0a0 79fc fad9 a1d8 f9f9     ..y......y......
    7e8c:	f9f9 a0f9 dfda dfdf a1d8 f8f8 f8f8 acf8     ................
    7e9c:	f8de dead 9383 2cac 7c54 a8f1 dfdf f6df     .......,T|......
    7eac:	2c9d a0da d9df dbfa f82d a8d8 da50 d0a0     .,......-...P...
    7ebc:	d9de f8d0 f8f8 55db d8f8 78a8 a0da dfd0     .......U...x....
    7ecc:	d0d9 f8fa f8f8 dbf8 f87d 9cd8 8ca8 30f5     ........}......0
    7edc:	38db d0d9 dfde d0a0 dfde a8d8 db48 d958     .8..........H.X.
    7eec:	d0df a0de d0df d8de 68a8 70db dfd9 a0df     .........h.p....
    7efc:	dfdf f1d8 88a8 2c90 7c54 a898 5cd0 d138     .......,T|...\8.
    7f0c:	f2da 8cae f9df b0d8 a887 c1c1 88b1 c6a8     ................
    7f1c:	f9f9 36da a8d8 daf9 d836 f9a8 36da a8d8     ...6....6....6..
    7f2c:	daf9 d836 f9a8 36da f7d8 9d8d f8ad da18     ..6....6........
    7f3c:	aef2 d8df adf7 30fa a4d9 f9de f2d8 deae     .......0........
    7f4c:	f9fa a783 c3d9 c7c5 88f1 a79b ad7a def7     ............z...
    7f5c:	a4df 84f8 0894 97a7 00f3 f2ae 1998 88a4     ................
    7f6c:	a3c6 8894 32f6 f2df 9383 09db f2d9 dfaa     .....2..........
    7f7c:	d8d8 f8ae d1f9 f3da dea4 f1a7 9b88 d87a     ..............z.
    7f8c:	84f3 ae94 f919 aada dff1 a8d8 c081 c5c3     ................
    7f9c:	a3c7 8392 28f6 dead f8d9 a3d8 ad50 f8d9     .....(......P...
    7fac:	a3d8 ad78 f8d9 f8d8 d1f9 daa1 c3de c7c5     ..x.............
    7fbc:	a1d8 9481 18f8 b0f2 ac89 c5c3 f1c7 b8d8     ................
    7fcc:	b0b4 8697 31a8 069b 0799 97ab 8828 f09b     .....1......(...
    7fdc:	200c 4014 b4b0 f0b8 8aa8 289a 7850 9bb7     . .@.......(Px..
    7fec:	29a8 7951 7024 4459 3869 4864 f131 abbb     .)Qy$pYDi8dH1...
    7ffc:	0088 542c f07c 8bb3 a8b8 2804 7850 b0f1     ..,T|......(Px..
    800c:	b488 2697 59a8 bb98 b3ab 028b 4626 b066     ...&.Y......&Ff.
    801c:	f0b8 9c8a 29a8 7951 298b 7951 248a 5970     .....)Qy.)Qy.$pY
    802c:	208b 7158 448a 3869 398b 6840 648a 3148     . Xq.Di8.9@h.dH1
    803c:	308b 6049 f188 00ac 542c f07c a88c 2804     .0I`....,T|....(
    804c:	7850 88f1 2697 59a8 ac98 028c 4626 f066     Px...&.Y....&Ff.
    805c:	9c89 29a8 7951 7024 4459 3869 4864 a931     ...)Qy$pYDi8dH1.
    806c:	0988 5920 ab70 3811 6940 19a8 4831 8c60     .. Yp..8@i..1H`.
    807c:	3ca8 5c41 7c20 f100 9887 8619 6ea8 7e76     .<A\ |.......nv~
    808c:	99a9 2d88 7d55 b1d8 b9b5 dfa3 dfdf d0ae     ...-U}..........
    809c:	aadf ded0 abf2 f9f8 b0d9 c487 f1aa dfdf     ................
    80ac:	afbb dfdf d8b9 f1b1 97a3 608e b0df f284     ...........`....
    80bc:	f8c8 d9f9 d8de 8593 4af1 83b1 08a3 83b5     .........J......
    80cc:	089a b710 109f f1d8 bab0 b0ae c28a b6b2     ................
    80dc:	9e8e fbf1 f4d9 d81d d9f9 f10c f8d8 adf8     ................
    80ec:	d961 fbae f4d8 f10c f8d8 adf8 d919 fbae     a...............
    80fc:	d8df 16f4 d8f1 adf8 618d f4d9 acf4 9cf5     .........a......
    810c:	8d9c 2bdf b6ba faae f4f8 d80b aef1 f8d0     ...+............
    811c:	51ad aeda f8fa d8f1 b1b9 a3b6 9c83 b908     .Q..............
    812c:	83b1 b59a c0aa 30fd b783 109f 8bb5 f293     .......0........
    813c:	0202 abd1 deda f1d8 80b0 abba c3c0 84b2     ................
    814c:	c3c1 b1d8 f3b9 a38b b691 b409 abd9 b0de     ................
    815c:	9c87 a3b9 f1dd 8bb3 8b8b 8b8b 87b0 a3a3     ................
    816c:	a3a3 8bb2 9bb6 a3f2 a3a3 a3a3 a3a3 a3a3     ................
    817c:	f1a3 87b0 9ab5 f3a3 a39b dca3 acba b9df     ................
    818c:	a3a3 a3a3 a3a3 a3a3 a3a3 a3a3 a3a3 a3a3     ................
    819c:	d8d8 bbd8 b7b3 aaf1 daf9 d9ff 9a80 28aa     ...............(
    81ac:	80b4 a798 b720 8797 66a8 f088 5179 90f1     .... ....f..yQ..
    81bc:	872c a70c 9781 9362 71f0 6071 9485 2901     ,.....b..qq`...)
    81cc:	7951 a590 28f1 6c4c 0c87 1895 7885 83a3     Qy...(Ll.....x..
    81dc:	2890 6c4c 6c88 f3d8 82a2 f200 a810 1992     .(Ll.l..........
    81ec:	a280 d9f2 d826 88f1 4da8 48d9 96d8 39a8     ....&....M.H...9
    81fc:	d980 d83c 8095 39a8 86a6 d998 da2c a787     ..<....9....,...
    820c:	d82c 89a8 1995 80a9 38d9 a8d8 3989 80a9     ,........8...9..
    821c:	3cda a8d8 a82e 9039 0cd9 a8d8 3195 d998     .<....9......1..
    822c:	d80c 09a8 ffd9 01d8 ffda 95d8 a939 26da     ............9..&
    823c:	d8ff a890 890d a899 8010 2198 2eda 89d8     ...........!....
    824c:	a899 8031 2eda a8d8 9686 8031 2eda a8d8     ..1.......1.....
    825c:	3187 da80 d82e 82a8 f392 8041 d9f1 d82e     .1........A.....
    826c:	82a8 19f3 f180 2ed9 82d8 f3ac a2c0 2280     ..............."
    827c:	a6f1 a72e a92e 9822 29a8 acda ffde a2d8     ......"..)......
    828c:	2af2 a9f1 822e a892 31f2 a680 f196 00d9     .*.......1......
    829c:	8cac 0c9c ac30 d0de ffde 8cd8 ac9c 10d0     ....0...........
    82ac:	deac 9280 f2a2 824c f1a8 f2ca f135 8896     ......L.....5...
    82bc:	d9a6 d800 fff1 0000 0000 4348 0000 4680     ..........HC...F
    82cc:	0000 4640 0000 4600 0000 45c0 0000 4580     ..@F...F...E...E
    82dc:	0000 4540 0000 4500 0000 44c0 0000 4120     ..@E...E...D.. A
    82ec:	bdb2 fdca 203a 6425 000a 0000 b7c2 ccb3     ....: %d........
    82fc:	203a 6425 6320 0a6d 0000 0000 0000 42c8     : %d cm........B
    830c:	2d0a 2d2d b620 c8c1 b3a1 caa2 20d4 2523     .--- ........ #%
    831c:	2064 2d2d 0a2d 0000 c9b3 a6b9 2021 cbd7     d ---.......! ..
    832c:	accc c7bd 203a 6950 6374 3d68 6425 e3a1     ....: Pitch=%d..
    833c:	5220 6c6f 3d6c 6425 e3a1 5920 7761 253d      Roll=%d.. Yaw=%
    834c:	a164 0de3 000a 0000 c1b6 a1c8 a7ca dcb0     d...............
    835c:	aca3 edb4 f3ce ebc2 203a 6425 0a0d 0000     ........: %d....
    836c:	0000 3080 0000 c000 0000 3f80 6666 6666     ...0.......?ffff
    837c:	a666 404c 706d 5f75 6e69 7469 3a20 6425     f.L@mpu_init :%d
    838c:	0a0d 0000 7325 0000 706d 5f75 6573 5f74     ....%s..mpu_set_
    839c:	6573 736e 726f 2073 253a 0d64 000a 0000     sensors :%d.....
    83ac:	706d 5f75 6f63 666e 6769 7275 5f65 6966     mpu_configure_fi
    83bc:	6f66 3a20 6425 0a0d 0000 0000 706d 5f75     fo :%d......mpu_
    83cc:	6573 5f74 6173 706d 656c 725f 7461 2065     set_sample_rate 
    83dc:	253a 0d64 000a 0000 6d64 5f70 6f6c 6461     :%d.....dmp_load
    83ec:	6d5f 746f 6f69 5f6e 7264 7669 7265 665f     _motion_driver_f
    83fc:	7269 776d 7261 2065 253a 0d64 000a 0000     irmware :%d.....
    840c:	6d64 5f70 6573 5f74 726f 6569 746e 7461     dmp_set_orientat
    841c:	6f69 206e 253a 0d64 000a 0000 6d64 5f70     ion :%d.....dmp_
    842c:	6e65 6261 656c 665f 6165 7574 6572 3a20     enable_feature :
    843c:	6425 0a0d 0000 0000 6d64 5f70 6573 5f74     %d......dmp_set_
    844c:	6966 6f66 725f 7461 2065 253a 0d64 000a     fifo_rate :%d...
    845c:	706d 5f75 6573 5f74 6d64 5f70 7473 7461     mpu_set_dmp_stat
    846c:	2065 253a 0d64 000a 0000 0000 0000 0000     e :%d...........
    847c:	0000 3ff0 7361 6e69 0000 0000 2d18 5444     ...?asin.....-DT
    848c:	21fb 3ff9 5c07 3314 a626 3c91 759c 8800     .!.?.\.3&..<.u..
    849c:	e43c 7e37 f709 0dfd 3de1 3f02 b288 7501     <.7~.....=.?...u
    84ac:	efe0 3f49 8f3b b568 8228 3fa4 4455 0e88     ..I?;.h.(..?UD..
    84bc:	c155 3fc9 6f7d 03eb d612 3fd4 5555 5555     U..?}o.....?UUUU
    84cc:	5555 3fc5 9282 b12e b8c5 3fb3 0159 1b8d     UU.?.......?Y...
    84dc:	066c 3fe6 8ac8 9c59 2ae5 4000 2d4b 1c8a     l..?..Y..*.@K-..
    84ec:	3a27 4003 0000 0000 0000 3fe0 2d18 5444     ':.@.......?.-DT
    84fc:	21fb 3fe9 2d18 5444 21fb 4009 2d18 5444     .!.?.-DT.!.@.-DT
    850c:	21fb c009 0000 0000 0000 8000 2d18 5444     .!...........-DT
    851c:	21fb bff9 21d2 7f33 d97c 4002 21d2 7f33     .!...!3.|..@.!3.
    852c:	d97c c002 2d18 5444 21fb bfe9 5c07 3314     |....-DT.!...\.3
    853c:	a626 3ca1 0000 0000 0000 4000 0000 0000     &..<.......@....
    854c:	0000 3ff8 0000 0000 0000 bff0 da11 e322     ...?..........".
    855c:	ad3a 3f90 0deb 2476 7b4b 3fa9 3d51 a0d0     :..?..v$K{.?Q=..
    856c:	0d66 3fb1 206e c54c 45cd 3fb7 83ff 9200     f..?n L..E.?....
    857c:	4924 3fc2 550d 5555 5555 3fd5 6c2f 2c6a     $I.?.UUUUU.?/lj,
    858c:	b444 bfa2 fd9a 52de de2d 3fad 9a6d af74     D......R-..?m.t.
    859c:	b0f2 3fb3 1671 fe23 71c6 3fbc ebc4 9998     ...?q.#..q.?....
    85ac:	9999 3fc9                                   ...?

000085b0 <atanhi>:
    85b0:	bb4f 0561 ac67 3fdd 2d18 5444 21fb 3fe9     O.a.g..?.-DT.!.?
    85c0:	f69b d281 730b 3fef 2d18 5444 21fb 3ff9     .....s.?.-DT.!.?

000085d0 <atanlo>:
    85d0:	65e2 222f 2b7f 3c7a 5c07 3314 a626 3c81     .e/".+z<.\.3&..<
    85e0:	cbbd 7af0 0788 3c70 5c07 3314 a626 3c91     ...z..p<.\.3&..<
    85f0:	0000 0000 0000 7ff8 b754 ffff b5d8 ffff     ........T.......
    8600:	b6e8 ffff b6f0 ffff b6e8 ffff b608 ffff     ................
    8610:	b6e8 ffff b6f0 ffff b5d8 ffff b5d8 ffff     ................
    8620:	b608 ffff b6f0 ffff b74a ffff b74a ffff     ........J...J...
    8630:	b74a ffff b608 ffff bd44 ffff bc36 ffff     J.......D...6...
    8640:	bc36 ffff bc34 ffff bc3c ffff bc3c ffff     6...4...<...<...
    8650:	bc02 ffff bc34 ffff bc3c ffff bc02 ffff     ....4...<.......
    8660:	bc3c ffff bc34 ffff bd30 ffff bd30 ffff     <...4...0...0...
    8670:	bd30 ffff bc02 ffff cc4a ffff cb70 ffff     0.......J...p...
    8680:	cc44 ffff cb78 ffff cc44 ffff cb3e ffff     D...x...D...>...
    8690:	cc44 ffff cb78 ffff cb70 ffff cb70 ffff     D...x...p...p...
    86a0:	cb3e ffff cb78 ffff cb7e ffff cb7e ffff     >...x...~...~...
    86b0:	cb7e ffff cb3e ffff cb30 ffff cb30 ffff     ~...>...0...0...
    86c0:	cc04 ffff cce0 ffff cc04 ffff cafe ffff     ................
    86d0:	cc04 ffff cce0 ffff cb30 ffff cb30 ffff     ........0...0...
    86e0:	cafe ffff cce0 ffff cb3e ffff cb3e ffff     ........>...>...
    86f0:	cb3e ffff cafe ffff ce46 ffff cd94 ffff     >.......F.......
    8700:	cd94 ffff cd92 ffff cd98 ffff cd98 ffff     ................
    8710:	cd68 ffff cd92 ffff cd98 ffff cd68 ffff     h...........h...
    8720:	cd98 ffff cd92 ffff ce34 ffff ce34 ffff     ........4...4...
    8730:	ce34 ffff cd68 ffff                         4...h...

00008738 <__clz_tab>:
    8738:	0100 0202 0303 0303 0404 0404 0404 0404     ................
    8748:	0505 0505 0505 0505 0505 0505 0505 0505     ................
    8758:	0606 0606 0606 0606 0606 0606 0606 0606     ................
    8768:	0606 0606 0606 0606 0606 0606 0606 0606     ................
    8778:	0707 0707 0707 0707 0707 0707 0707 0707     ................
    8788:	0707 0707 0707 0707 0707 0707 0707 0707     ................
    8798:	0707 0707 0707 0707 0707 0707 0707 0707     ................
    87a8:	0707 0707 0707 0707 0707 0707 0707 0707     ................
    87b8:	0808 0808 0808 0808 0808 0808 0808 0808     ................
    87c8:	0808 0808 0808 0808 0808 0808 0808 0808     ................
    87d8:	0808 0808 0808 0808 0808 0808 0808 0808     ................
    87e8:	0808 0808 0808 0808 0808 0808 0808 0808     ................
    87f8:	0808 0808 0808 0808 0808 0808 0808 0808     ................
    8808:	0808 0808 0808 0808 0808 0808 0808 0808     ................
    8818:	0808 0808 0808 0808 0808 0808 0808 0808     ................
    8828:	0808 0808 0808 0808 0808 0808 0808 0808     ................

00008838 <__sf_fake_stderr>:
	...

00008858 <__sf_fake_stdin>:
	...

00008878 <__sf_fake_stdout>:
	...
    8898:	2d23 2b30 0020 0000 6c68 004c 6665 4567     #-0+ ...hlL.efgE
    88a8:	4746 0000 3130 3332 3534 3736 3938 4241     FG..0123456789AB
    88b8:	4443 4645 0000 0000 3130 3332 3534 3736     CDEF....01234567
    88c8:	3938 6261 6463 6665 0000 0000               89abcdef....
